(dp0
S'summer'
p1
ccollections
Counter
p2
((dp3
S'I-TIMEX3'
p4
F0.8333333333333334
sS'B-TIMEX3'
p5
F0.16666666666666666
stp6
Rp7
sS'currently'
p8
g2
((dp9
S'O-TIMEX3'
p10
F0.3333333333333333
sS'B-TIMEX3'
p11
F0.6666666666666666
stp12
Rp13
sS'less'
p14
g2
((dp15
S'O-TIMEX3'
p16
F0.9230769230769231
sS'B-TIMEX3'
p17
F0.07692307692307693
stp18
Rp19
sS'over'
p20
g2
((dp21
S'O-TIMEX3'
p22
F0.9761904761904762
sS'B-TIMEX3'
p23
F0.023809523809523808
stp24
Rp25
sS'fall'
p26
g2
((dp27
S'O-TIMEX3'
p28
F0.5454545454545454
sS'I-TIMEX3'
p29
F0.45454545454545453
stp30
Rp31
sS'soon'
p32
g2
((dp33
S'O-TIMEX3'
p34
F0.8125
sS'B-TIMEX3'
p35
F0.1875
stp36
Rp37
sS'years'
p38
g2
((dp39
S'O-TIMEX3'
p40
F0.16176470588235295
sS'I-TIMEX3'
p41
F0.7794117647058824
sS'B-TIMEX3'
p42
F0.058823529411764705
stp43
Rp44
sS'four'
p45
g2
((dp46
S'O-TIMEX3'
p47
F0.7058823529411765
sS'I-TIMEX3'
p48
F0.23529411764705882
sS'B-TIMEX3'
p49
F0.058823529411764705
stp50
Rp51
sS'Sunday'
p52
g2
((dp53
S'I-TIMEX3'
p54
F0.047619047619047616
sS'B-TIMEX3'
p55
F0.9523809523809523
stp56
Rp57
sS'18'
p58
g2
((dp59
S'O-TIMEX3'
p60
F0.5
sS'I-TIMEX3'
p61
F0.375
sS'B-TIMEX3'
p62
F0.125
stp63
Rp64
sS'25.'
p65
g2
((dp66
S'I-TIMEX3'
p67
F0.6666666666666666
sS'B-TIMEX3'
p68
F0.3333333333333333
stp69
Rp70
sS"Tuesday's"
p71
g2
((dp72
S'I-TIMEX3'
p73
F0.5
sS'B-TIMEX3'
p74
F0.5
stp75
Rp76
sS'year-earlier'
p77
g2
((dp78
S'I-TIMEX3'
p79
F0.6666666666666666
sS'B-TIMEX3'
p80
F0.3333333333333333
stp81
Rp82
sS'Oct'
p83
g2
((dp84
S'I-TIMEX3'
p85
F0.15789473684210525
sS'B-TIMEX3'
p86
F0.8421052631578947
stp87
Rp88
sS'decade'
p89
g2
((dp90
S'I-TIMEX3'
p91
F1.0
stp92
Rp93
sS'before'
p94
g2
((dp95
S'O-TIMEX3'
p96
F0.9743589743589743
sS'I-TIMEX3'
p97
F0.02564102564102564
stp98
Rp99
sS'25'
p100
g2
((dp101
S'O-TIMEX3'
p102
F0.75
sS'I-TIMEX3'
p103
F0.25
stp104
Rp105
sS'26'
p106
g2
((dp107
S'O-TIMEX3'
p108
F0.3333333333333333
sS'I-TIMEX3'
p109
F0.6666666666666666
stp110
Rp111
sS'1949'
p112
g2
((dp113
S'I-TIMEX3'
p114
F0.3333333333333333
sS'B-TIMEX3'
p115
F0.6666666666666666
stp116
Rp117
sS'20'
p118
g2
((dp119
S'O-TIMEX3'
p120
F0.7407407407407407
sS'I-TIMEX3'
p121
F0.25925925925925924
stp122
Rp123
sS'21'
p124
g2
((dp125
S'O-TIMEX3'
p126
F0.5714285714285714
sS'I-TIMEX3'
p127
F0.42857142857142855
stp128
Rp129
sS'22'
p130
g2
((dp131
S'O-TIMEX3'
p132
F0.6666666666666666
sS'I-TIMEX3'
p133
F0.2222222222222222
sS'B-TIMEX3'
p134
F0.1111111111111111
stp135
Rp136
sS'23'
p137
g2
((dp138
S'O-TIMEX3'
p139
F0.3333333333333333
sS'I-TIMEX3'
p140
F0.6666666666666666
stp141
Rp142
sS'nineteen'
p143
g2
((dp144
S'I-TIMEX3'
p145
F0.2857142857142857
sS'B-TIMEX3'
p146
F0.7142857142857143
stp147
Rp148
sS'Friday'
p149
g2
((dp150
S'I-TIMEX3'
p151
F0.030612244897959183
sS'B-TIMEX3'
p152
F0.9693877551020408
stp153
Rp154
sS','
p155
g2
((dp156
S'O-TIMEX3'
p157
F0.9948752228163993
sS'I-TIMEX3'
p158
F0.005124777183600713
stp159
Rp160
sS'the'
p161
g2
((dp162
S'O-TIMEX3'
p163
F0.9529411764705882
sS'I-TIMEX3'
p164
F0.0016147635524798155
sS'B-TIMEX3'
p165
F0.04544405997693195
stp166
Rp167
sS'late'
p168
g2
((dp169
S'O-TIMEX3'
p170
F0.38461538461538464
sS'I-TIMEX3'
p171
F0.07692307692307693
sS'B-TIMEX3'
p172
F0.5384615384615384
stp173
Rp174
sS'to'
p175
g2
((dp176
S'O-TIMEX3'
p177
F0.9978002639683238
sS'I-TIMEX3'
p178
F0.002199736031676199
stp179
Rp180
sS'4'
p181
g2
((dp182
S'O-TIMEX3'
p183
F0.75
sS'I-TIMEX3'
p184
F0.08333333333333333
sS'B-TIMEX3'
p185
F0.16666666666666666
stp186
Rp187
sS'8'
p188
g2
((dp189
S'O-TIMEX3'
p190
F0.6666666666666666
sS'I-TIMEX3'
p191
F0.3333333333333333
stp192
Rp193
sS'Nov'
p194
g2
((dp195
S'B-TIMEX3'
p196
F1.0
stp197
Rp198
sS'Now'
p199
g2
((dp200
S'O-TIMEX3'
p201
F0.5454545454545454
sS'B-TIMEX3'
p202
F0.45454545454545453
stp203
Rp204
sS'decades'
p205
g2
((dp206
S'O-TIMEX3'
p207
F0.5
sS'I-TIMEX3'
p208
F0.5
stp209
Rp210
sS'Day'
p211
g2
((dp212
S'O-TIMEX3'
p213
F0.5
sS'I-TIMEX3'
p214
F0.5
stp215
Rp216
sS'11'
p217
g2
((dp218
S'O-TIMEX3'
p219
F0.8571428571428571
sS'I-TIMEX3'
p220
F0.07142857142857142
sS'B-TIMEX3'
p221
F0.07142857142857142
stp222
Rp223
sS'evening'
p224
g2
((dp225
S'I-TIMEX3'
p226
F1.0
stp227
Rp228
sS'Last'
p229
g2
((dp230
S'B-TIMEX3'
p231
F1.0
stp232
Rp233
sS'10'
p234
g2
((dp235
S'O-TIMEX3'
p236
F0.84
sS'I-TIMEX3'
p237
F0.08
sS'B-TIMEX3'
p238
F0.08
stp239
Rp240
sS'1994.'
p241
g2
((dp242
S'I-TIMEX3'
p243
F0.6
sS'B-TIMEX3'
p244
F0.4
stp245
Rp246
sS'mid-November'
p247
g2
((dp248
S'B-TIMEX3'
p249
F1.0
stp250
Rp251
sS'couple'
p252
g2
((dp253
S'O-TIMEX3'
p254
F0.3333333333333333
sS'I-TIMEX3'
p255
F0.6666666666666666
stp256
Rp257
sS'term'
p258
g2
((dp259
S'O-TIMEX3'
p260
F0.25
sS'I-TIMEX3'
p261
F0.75
stp262
Rp263
sS'13.'
p264
g2
((dp265
S'I-TIMEX3'
p266
F1.0
stp267
Rp268
sS'1955'
p269
g2
((dp270
S'B-TIMEX3'
p271
F1.0
stp272
Rp273
sS'1956'
p274
g2
((dp275
S'I-TIMEX3'
p276
F0.5
sS'B-TIMEX3'
p277
F0.5
stp278
Rp279
sS'five'
p280
g2
((dp281
S'O-TIMEX3'
p282
F0.5806451612903226
sS'I-TIMEX3'
p283
F0.06451612903225806
sS'B-TIMEX3'
p284
F0.3548387096774194
stp285
Rp286
sS'nearly'
p287
g2
((dp288
S'O-TIMEX3'
p289
F0.8387096774193549
sS'B-TIMEX3'
p290
F0.16129032258064516
stp291
Rp292
sS'half'
p293
g2
((dp294
S'O-TIMEX3'
p295
F0.8333333333333334
sS'I-TIMEX3'
p296
F0.16666666666666666
stp297
Rp298
sS'10-year'
p299
g2
((dp300
S'B-TIMEX3'
p301
F1.0
stp302
Rp303
sS'1995'
p304
g2
((dp305
S'O-TIMEX3'
p306
F0.14285714285714285
sS'I-TIMEX3'
p307
F0.2857142857142857
sS'B-TIMEX3'
p308
F0.5714285714285714
stp309
Rp310
sS'now'
p311
g2
((dp312
S'O-TIMEX3'
p313
F0.2608695652173913
sS'I-TIMEX3'
p314
F0.014492753623188406
sS'B-TIMEX3'
p315
F0.7246376811594203
stp316
Rp317
sS'1959'
p318
g2
((dp319
S'I-TIMEX3'
p320
F0.5
sS'B-TIMEX3'
p321
F0.5
stp322
Rp323
sS'day'
p324
g2
((dp325
S'O-TIMEX3'
p326
F0.40540540540540543
sS'I-TIMEX3'
p327
F0.43243243243243246
sS'B-TIMEX3'
p328
F0.16216216216216217
stp329
Rp330
sS'minute'
p331
g2
((dp332
S'I-TIMEX3'
p333
F1.0
stp334
Rp335
sS'14'
p336
g2
((dp337
S'O-TIMEX3'
p338
F0.5625
sS'I-TIMEX3'
p339
F0.375
sS'B-TIMEX3'
p340
F0.0625
stp341
Rp342
sS'Jan'
p343
g2
((dp344
S'O-TIMEX3'
p345
F0.3333333333333333
sS'B-TIMEX3'
p346
F0.6666666666666666
stp347
Rp348
sS'30-year'
p349
g2
((dp350
S'B-TIMEX3'
p351
F1.0
stp352
Rp353
sS'hour'
p354
g2
((dp355
S'O-TIMEX3'
p356
F0.3333333333333333
sS'I-TIMEX3'
p357
F0.6666666666666666
stp358
Rp359
sS'Previously'
p360
g2
((dp361
S'O-TIMEX3'
p362
F0.7142857142857143
sS'B-TIMEX3'
p363
F0.2857142857142857
stp364
Rp365
sS"Sunday's"
p366
g2
((dp367
S'B-TIMEX3'
p368
F1.0
stp369
Rp370
sS'morning'
p371
g2
((dp372
S'O-TIMEX3'
p373
F0.07692307692307693
sS'I-TIMEX3'
p374
F0.9230769230769231
stp375
Rp376
sS'19'
p377
g2
((dp378
S'O-TIMEX3'
p379
F0.6
sS'I-TIMEX3'
p380
F0.4
stp381
Rp382
sS"week's"
p383
g2
((dp384
S'O-TIMEX3'
p385
F0.3333333333333333
sS'I-TIMEX3'
p386
F0.3333333333333333
sS'B-TIMEX3'
p387
F0.3333333333333333
stp388
Rp389
sS'night'
p390
g2
((dp391
S'O-TIMEX3'
p392
F0.3181818181818182
sS'I-TIMEX3'
p393
F0.6818181818181818
stp394
Rp395
sS'quarter'
p396
g2
((dp397
S'O-TIMEX3'
p398
F0.056338028169014086
sS'I-TIMEX3'
p399
F0.9295774647887324
sS'B-TIMEX3'
p400
F0.014084507042253521
stp401
Rp402
sS'1989.'
p403
g2
((dp404
S'I-TIMEX3'
p405
F0.6666666666666666
sS'B-TIMEX3'
p406
F0.3333333333333333
stp407
Rp408
sS'20th'
p409
g2
((dp410
S'I-TIMEX3'
p411
F0.5
sS'B-TIMEX3'
p412
F0.5
stp413
Rp414
sS'week'
p415
g2
((dp416
S'O-TIMEX3'
p417
F0.06153846153846154
sS'I-TIMEX3'
p418
F0.9076923076923077
sS'B-TIMEX3'
p419
F0.03076923076923077
stp420
Rp421
sS'ten'
p422
g2
((dp423
S'O-TIMEX3'
p424
F0.3333333333333333
sS'I-TIMEX3'
p425
F0.3333333333333333
sS'B-TIMEX3'
p426
F0.3333333333333333
stp427
Rp428
sS'two-week'
p429
g2
((dp430
S'B-TIMEX3'
p431
F1.0
stp432
Rp433
sS'spring'
p434
g2
((dp435
S'O-TIMEX3'
p436
F0.3333333333333333
sS'I-TIMEX3'
p437
F0.6666666666666666
stp438
Rp439
sS'1997.'
p440
g2
((dp441
S'O-TIMEX3'
p442
F0.3333333333333333
sS'B-TIMEX3'
p443
F0.6666666666666666
stp444
Rp445
sS'past'
p446
g2
((dp447
S'O-TIMEX3'
p448
F0.09090909090909091
sS'I-TIMEX3'
p449
F0.7878787878787878
sS'B-TIMEX3'
p450
F0.12121212121212122
stp451
Rp452
sS'second'
p453
g2
((dp454
S'O-TIMEX3'
p455
F0.8125
sS'I-TIMEX3'
p456
F0.125
sS'B-TIMEX3'
p457
F0.0625
stp458
Rp459
sS'31.'
p460
g2
((dp461
S'I-TIMEX3'
p462
F1.0
stp463
Rp464
sS'year'
p465
g2
((dp466
S'O-TIMEX3'
p467
F0.08139534883720931
sS'I-TIMEX3'
p468
F0.9127906976744186
sS'B-TIMEX3'
p469
F0.005813953488372093
stp470
Rp471
sS'recently'
p472
g2
((dp473
S'O-TIMEX3'
p474
F0.29411764705882354
sS'I-TIMEX3'
p475
F0.058823529411764705
sS'B-TIMEX3'
p476
F0.6470588235294118
stp477
Rp478
sS"'"
p479
g2
((dp480
S'O-TIMEX3'
p481
F0.9977426636568849
sS'I-TIMEX3'
p482
F0.002257336343115124
stp483
Rp484
sS'noon'
p485
g2
((dp486
S'O-TIMEX3'
p487
F0.3333333333333333
sS'B-TIMEX3'
p488
F0.6666666666666666
stp489
Rp490
sS'Earlier'
p491
g2
((dp492
S'O-TIMEX3'
p493
F0.5333333333333333
sS'B-TIMEX3'
p494
F0.4666666666666667
stp495
Rp496
sS'p.m.'
p497
g2
((dp498
S'I-TIMEX3'
p499
F1.0
stp500
Rp501
sS'current'
p502
g2
((dp503
S'O-TIMEX3'
p504
F0.42105263157894735
sS'I-TIMEX3'
p505
F0.15789473684210525
sS'B-TIMEX3'
p506
F0.42105263157894735
stp507
Rp508
sS'3'
p509
g2
((dp510
S'O-TIMEX3'
p511
F0.5
sS'I-TIMEX3'
p512
F0.5
stp513
Rp514
sS'7'
p515
g2
((dp516
S'O-TIMEX3'
p517
F0.16666666666666666
sS'I-TIMEX3'
p518
F0.8333333333333334
stp519
Rp520
sS'eight-year'
p521
g2
((dp522
S'B-TIMEX3'
p523
F1.0
stp524
Rp525
sS'July'
p526
g2
((dp527
S'I-TIMEX3'
p528
F0.1111111111111111
sS'B-TIMEX3'
p529
F0.8888888888888888
stp530
Rp531
sS'16-hour'
p532
g2
((dp533
S'B-TIMEX3'
p534
F1.0
stp535
Rp536
sS'1996.'
p537
g2
((dp538
S'I-TIMEX3'
p539
F0.6666666666666666
sS'B-TIMEX3'
p540
F0.3333333333333333
stp541
Rp542
sS'full'
p543
g2
((dp544
S'O-TIMEX3'
p545
F0.8181818181818182
sS'I-TIMEX3'
p546
F0.18181818181818182
stp547
Rp548
sS'10.'
p549
g2
((dp550
S'I-TIMEX3'
p551
F1.0
stp552
Rp553
sS'This'
p554
g2
((dp555
S'O-TIMEX3'
p556
F0.8695652173913043
sS'B-TIMEX3'
p557
F0.13043478260869565
stp558
Rp559
sS'each'
p560
g2
((dp561
S'O-TIMEX3'
p562
F0.8888888888888888
sS'B-TIMEX3'
p563
F0.1111111111111111
stp564
Rp565
sS'yesterday'
p566
g2
((dp567
S'I-TIMEX3'
p568
F0.13157894736842105
sS'B-TIMEX3'
p569
F0.868421052631579
stp570
Rp571
sS'hours'
p572
g2
((dp573
S'O-TIMEX3'
p574
F0.2222222222222222
sS'I-TIMEX3'
p575
F0.7777777777777778
stp576
Rp577
sS'following'
p578
g2
((dp579
S'O-TIMEX3'
p580
F0.8888888888888888
sS'I-TIMEX3'
p581
F0.1111111111111111
stp582
Rp583
sS'30.'
p584
g2
((dp585
S'I-TIMEX3'
p586
F1.0
stp587
Rp588
sS'1984.'
p589
g2
((dp590
S'B-TIMEX3'
p591
F1.0
stp592
Rp593
sS"month's"
p594
g2
((dp595
S'O-TIMEX3'
p596
F0.2
sS'I-TIMEX3'
p597
F0.8
stp598
Rp599
sS'1983'
p600
g2
((dp601
S'B-TIMEX3'
p602
F1.0
stp603
Rp604
sS'every'
p605
g2
((dp606
S'O-TIMEX3'
p607
F0.6153846153846154
sS'B-TIMEX3'
p608
F0.38461538461538464
stp609
Rp610
sS'about'
p611
g2
((dp612
S'O-TIMEX3'
p613
F0.9897959183673469
sS'B-TIMEX3'
p614
F0.01020408163265306
stp615
Rp616
sS'weeks'
p617
g2
((dp618
S'O-TIMEX3'
p619
F0.04
sS'I-TIMEX3'
p620
F0.68
sS'B-TIMEX3'
p621
F0.28
stp622
Rp623
sS'last'
p624
g2
((dp625
S'O-TIMEX3'
p626
F0.12698412698412698
sS'I-TIMEX3'
p627
F0.1111111111111111
sS'B-TIMEX3'
p628
F0.7619047619047619
stp629
Rp630
sS'1961'
p631
g2
((dp632
S'B-TIMEX3'
p633
F1.0
stp634
Rp635
sS'September'
p636
g2
((dp637
S'I-TIMEX3'
p638
F0.5
sS'B-TIMEX3'
p639
F0.5
stp640
Rp641
sS'December'
p642
g2
((dp643
S'I-TIMEX3'
p644
F0.25
sS'B-TIMEX3'
p645
F0.75
stp646
Rp647
sS'Tuesday'
p648
g2
((dp649
S'I-TIMEX3'
p650
F0.09375
sS'B-TIMEX3'
p651
F0.90625
stp652
Rp653
sS'months'
p654
g2
((dp655
S'O-TIMEX3'
p656
F0.07142857142857142
sS'I-TIMEX3'
p657
F0.9107142857142857
sS'B-TIMEX3'
p658
F0.017857142857142856
stp659
Rp660
sS'days'
p661
g2
((dp662
S'O-TIMEX3'
p663
F0.21428571428571427
sS'I-TIMEX3'
p664
F0.6190476190476191
sS'B-TIMEX3'
p665
F0.16666666666666666
stp666
Rp667
sS"year's"
p668
g2
((dp669
S'O-TIMEX3'
p670
F0.21428571428571427
sS'I-TIMEX3'
p671
F0.7142857142857143
sS'B-TIMEX3'
p672
F0.07142857142857142
stp673
Rp674
sS'ninety-six'
p675
g2
((dp676
S'I-TIMEX3'
p677
F1.0
stp678
Rp679
sS'a.m.'
p680
g2
((dp681
S'I-TIMEX3'
p682
F1.0
stp683
Rp684
sS'afternoon'
p685
g2
((dp686
S'I-TIMEX3'
p687
F1.0
stp688
Rp689
sS'or'
p690
g2
((dp691
S'O-TIMEX3'
p692
F0.9776119402985075
sS'I-TIMEX3'
p693
F0.022388059701492536
stp694
Rp695
sS'first'
p696
g2
((dp697
S'O-TIMEX3'
p698
F0.7833333333333333
sS'I-TIMEX3'
p699
F0.16666666666666666
sS'B-TIMEX3'
p700
F0.05
stp701
Rp702
sS'fourth-quarter'
p703
g2
((dp704
S'B-TIMEX3'
p705
F1.0
stp706
Rp707
sS'Feb'
p708
g2
((dp709
S'B-TIMEX3'
p710
F1.0
stp711
Rp712
sS'Aug'
p713
g2
((dp714
S'B-TIMEX3'
p715
F1.0
stp716
Rp717
sS'March'
p718
g2
((dp719
S'O-TIMEX3'
p720
F0.08695652173913043
sS'I-TIMEX3'
p721
F0.043478260869565216
sS'B-TIMEX3'
p722
F0.8695652173913043
stp723
Rp724
sS'period'
p725
g2
((dp726
S'O-TIMEX3'
p727
F0.19047619047619047
sS'I-TIMEX3'
p728
F0.8095238095238095
stp729
Rp730
sS'6.'
p731
g2
((dp732
S'I-TIMEX3'
p733
F1.0
stp734
Rp735
sS'one'
p736
g2
((dp737
S'O-TIMEX3'
p738
F0.918918918918919
sS'I-TIMEX3'
p739
F0.009009009009009009
sS'B-TIMEX3'
p740
F0.07207207207207207
stp741
Rp742
sS'1988'
p743
g2
((dp744
S'I-TIMEX3'
p745
F0.6153846153846154
sS'B-TIMEX3'
p746
F0.38461538461538464
stp747
Rp748
sS'1950.'
p749
g2
((dp750
S'B-TIMEX3'
p751
F1.0
stp752
Rp753
sS'1990s'
p754
g2
((dp755
S'I-TIMEX3'
p756
F0.6666666666666666
sS'B-TIMEX3'
p757
F0.3333333333333333
stp758
Rp759
sS'1989'
p760
g2
((dp761
S'I-TIMEX3'
p762
F0.36363636363636365
sS'B-TIMEX3'
p763
F0.6363636363636364
stp764
Rp765
sS'two-year'
p766
g2
((dp767
S'B-TIMEX3'
p768
F1.0
stp769
Rp770
sS'tomorrow'
p771
g2
((dp772
S'O-TIMEX3'
p773
F0.1
sI0
F0.0
sS'B-TIMEX3'
p774
F0.9
stp775
Rp776
sS'1987'
p777
g2
((dp778
S'O-TIMEX3'
p779
F0.2
sS'B-TIMEX3'
p780
F0.8
stp781
Rp782
sS'1984'
p783
g2
((dp784
S'I-TIMEX3'
p785
F0.6666666666666666
sS'B-TIMEX3'
p786
F0.3333333333333333
stp787
Rp788
sS'1985'
p789
g2
((dp790
S'B-TIMEX3'
p791
F1.0
stp792
Rp793
sS'August'
p794
g2
((dp795
S'O-TIMEX3'
p796
F0.125
sS'I-TIMEX3'
p797
F0.0625
sS'B-TIMEX3'
p798
F0.8125
stp799
Rp800
sS'Monday'
p801
g2
((dp802
S'I-TIMEX3'
p803
F0.03125
sS'B-TIMEX3'
p804
F0.96875
stp805
Rp806
sS'twenty'
p807
g2
((dp808
S'O-TIMEX3'
p809
F0.42857142857142855
sS'I-TIMEX3'
p810
F0.2857142857142857
sS'B-TIMEX3'
p811
F0.2857142857142857
stp812
Rp813
sS'June'
p814
g2
((dp815
S'I-TIMEX3'
p816
F0.16666666666666666
sS'B-TIMEX3'
p817
F0.8333333333333334
stp818
Rp819
sS'two'
p820
g2
((dp821
S'O-TIMEX3'
p822
F0.7045454545454546
sS'I-TIMEX3'
p823
F0.16666666666666666
sS'B-TIMEX3'
p824
F0.12878787878787878
stp825
Rp826
sS'least'
p827
g2
((dp828
S'O-TIMEX3'
p829
F0.9
sS'I-TIMEX3'
p830
F0.1
stp831
Rp832
sS'next'
p833
g2
((dp834
S'O-TIMEX3'
p835
F0.2708333333333333
sS'I-TIMEX3'
p836
F0.3541666666666667
sS'B-TIMEX3'
p837
F0.375
stp838
Rp839
sS'few'
p840
g2
((dp841
S'O-TIMEX3'
p842
F0.6666666666666666
sS'I-TIMEX3'
p843
F0.3333333333333333
stp844
Rp845
sS'2'
p846
g2
((dp847
S'O-TIMEX3'
p848
F0.5652173913043478
sS'I-TIMEX3'
p849
F0.391304347826087
sS'B-TIMEX3'
p850
F0.043478260869565216
stp851
Rp852
sS'_'
p853
g2
((dp854
S'O-TIMEX3'
p855
F0.9761904761904762
sS'I-TIMEX3'
p856
F0.023809523809523808
stp857
Rp858
sS'year-ago'
p859
g2
((dp860
S'I-TIMEX3'
p861
F0.7777777777777778
sS'B-TIMEX3'
p862
F0.2222222222222222
stp863
Rp864
sS'November'
p865
g2
((dp866
S'I-TIMEX3'
p867
F0.6428571428571429
sS'B-TIMEX3'
p868
F0.35714285714285715
stp869
Rp870
sS'today'
p871
g2
((dp872
S'B-TIMEX3'
p873
F1.0
stp874
Rp875
sS'more'
p876
g2
((dp877
S'O-TIMEX3'
p878
F0.9607843137254902
sS'I-TIMEX3'
p879
F0.0196078431372549
sS'B-TIMEX3'
p880
F0.0196078431372549
stp881
Rp882
sS'a'
p883
g2
((dp884
S'O-TIMEX3'
p885
F0.9586402266288951
sS'I-TIMEX3'
p886
F0.0033994334277620396
sS'B-TIMEX3'
p887
F0.037960339943342775
stp888
Rp889
sS'October'
p890
g2
((dp891
S'I-TIMEX3'
p892
F0.3
sS'B-TIMEX3'
p893
F0.7
stp894
Rp895
sS'1990.'
p896
g2
((dp897
S'I-TIMEX3'
p898
F0.5
sS'B-TIMEX3'
p899
F0.5
stp900
Rp901
sS'9.'
p902
g2
((dp903
S'I-TIMEX3'
p904
F1.0
stp905
Rp906
sS'month'
p907
g2
((dp908
S'O-TIMEX3'
p909
F0.075
sS'I-TIMEX3'
p910
F0.925
stp911
Rp912
sS'January'
p913
g2
((dp914
S'B-TIMEX3'
p915
F1.0
stp916
Rp917
sS'thousand'
p918
g2
((dp919
S'O-TIMEX3'
p920
F0.8
sS'I-TIMEX3'
p921
F0.2
stp922
Rp923
sS'6'
p924
g2
((dp925
S'O-TIMEX3'
p926
F0.4444444444444444
sS'I-TIMEX3'
p927
F0.4444444444444444
sS'B-TIMEX3'
p928
F0.1111111111111111
stp929
Rp930
sS'Wednesday'
p931
g2
((dp932
S'O-TIMEX3'
p933
F0.04878048780487805
sS'I-TIMEX3'
p934
F0.07317073170731707
sS'B-TIMEX3'
p935
F0.8780487804878049
stp936
Rp937
sS'Third-quarter'
p938
g2
((dp939
S'B-TIMEX3'
p940
F1.0
stp941
Rp942
sS'ninety-seven'
p943
g2
((dp944
S'I-TIMEX3'
p945
F1.0
stp946
Rp947
sS'Dec'
p948
g2
((dp949
S'B-TIMEX3'
p950
F1.0
stp951
Rp952
sS'Sept'
p953
g2
((dp954
S'B-TIMEX3'
p955
F1.0
stp956
Rp957
sS'than'
p958
g2
((dp959
S'O-TIMEX3'
p960
F0.95
sS'I-TIMEX3'
p961
F0.05
stp962
Rp963
sS'1991'
p964
g2
((dp965
S'B-TIMEX3'
p966
F1.0
stp967
Rp968
sS'1990'
p969
g2
((dp970
S'I-TIMEX3'
p971
F0.2222222222222222
sS'B-TIMEX3'
p972
F0.7777777777777778
stp973
Rp974
sS'1993'
p975
g2
((dp976
S'B-TIMEX3'
p977
F1.0
stp978
Rp979
sS'1992'
p980
g2
((dp981
S'O-TIMEX3'
p982
F0.25
sS'B-TIMEX3'
p983
F0.75
stp984
Rp985
sS'third-quarter'
p986
g2
((dp987
S'O-TIMEX3'
p988
F0.045454545454545456
sS'B-TIMEX3'
p989
F0.9545454545454546
stp990
Rp991
sS'1994'
p992
g2
((dp993
S'I-TIMEX3'
p994
F0.2
sS'B-TIMEX3'
p995
F0.8
stp996
Rp997
sS'1997'
p998
g2
((dp999
S'I-TIMEX3'
p1000
F0.6
sS'B-TIMEX3'
p1001
F0.4
stp1002
Rp1003
sS'1996'
p1004
g2
((dp1005
S'B-TIMEX3'
p1006
F1.0
stp1007
Rp1008
sS'1999'
p1009
g2
((dp1010
S'I-TIMEX3'
p1011
F0.5
sS'B-TIMEX3'
p1012
F0.5
stp1013
Rp1014
sS'1998'
p1015
g2
((dp1016
S'I-TIMEX3'
p1017
F0.8571428571428571
sS'B-TIMEX3'
p1018
F0.14285714285714285
stp1019
Rp1020
sS'this'
p1021
g2
((dp1022
S'O-TIMEX3'
p1023
F0.535031847133758
sS'I-TIMEX3'
p1024
F0.08917197452229299
sS'B-TIMEX3'
p1025
F0.37579617834394907
stp1026
Rp1027
sS'near'
p1028
g2
((dp1029
S'O-TIMEX3'
p1030
F0.9230769230769231
sS'I-TIMEX3'
p1031
F0.07692307692307693
stp1032
Rp1033
sS'future'
p1034
g2
((dp1035
S'O-TIMEX3'
p1036
F0.5714285714285714
sS'I-TIMEX3'
p1037
F0.25
sS'B-TIMEX3'
p1038
F0.17857142857142858
stp1039
Rp1040
sS'nine'
p1041
g2
((dp1042
S'O-TIMEX3'
p1043
F0.28
sS'I-TIMEX3'
p1044
F0.72
stp1045
Rp1046
sS'three'
p1047
g2
((dp1048
S'O-TIMEX3'
p1049
F0.8372093023255814
sS'I-TIMEX3'
p1050
F0.11627906976744186
sS'B-TIMEX3'
p1051
F0.046511627906976744
stp1052
Rp1053
sS'of'
p1054
g2
((dp1055
S'O-TIMEX3'
p1056
F0.9912603495860166
sS'I-TIMEX3'
p1057
F0.008739650413983441
stp1058
Rp1059
sS'quarters'
p1060
g2
((dp1061
S'O-TIMEX3'
p1062
F0.125
sS'I-TIMEX3'
p1063
F0.875
stp1064
Rp1065
sS'31'
p1066
g2
((dp1067
S'O-TIMEX3'
p1068
F0.36363636363636365
sS'I-TIMEX3'
p1069
F0.6363636363636364
stp1070
Rp1071
sS'1/'
p1072
g2
((dp1073
S'O-TIMEX3'
p1074
F0.6
sS'I-TIMEX3'
p1075
F0.4
stp1076
Rp1077
sS'1.'
p1078
g2
((dp1079
S'I-TIMEX3'
p1080
F1.0
stp1081
Rp1082
sS'and'
p1083
g2
((dp1084
S'O-TIMEX3'
p1085
F0.99812734082397
sS'I-TIMEX3'
p1086
F0.0018726591760299626
stp1087
Rp1088
sS'30'
p1089
g2
((dp1090
S'O-TIMEX3'
p1091
F0.4444444444444444
sS'I-TIMEX3'
p1092
F0.5555555555555556
stp1093
Rp1094
sS'century'
p1095
g2
((dp1096
S'O-TIMEX3'
p1097
F0.2
sS'I-TIMEX3'
p1098
F0.8
stp1099
Rp1100
sS'almost'
p1101
g2
((dp1102
S'O-TIMEX3'
p1103
F0.8888888888888888
sS'B-TIMEX3'
p1104
F0.1111111111111111
stp1105
Rp1106
sS'1952'
p1107
g2
((dp1108
S'B-TIMEX3'
p1109
F1.0
stp1110
Rp1111
sS'Thursday'
p1112
g2
((dp1113
S'I-TIMEX3'
p1114
F0.07142857142857142
sS'B-TIMEX3'
p1115
F0.9285714285714286
stp1116
Rp1117
sS'an'
p1118
g2
((dp1119
S'O-TIMEX3'
p1120
F0.9904458598726115
sS'I-TIMEX3'
p1121
F0.006369426751592357
sS'B-TIMEX3'
p1122
F0.0031847133757961785
stp1123
Rp1124
sS'at'
p1125
g2
((dp1126
S'O-TIMEX3'
p1127
F0.989821882951654
sS'B-TIMEX3'
p1128
F0.010178117048346057
stp1129
Rp1130
sS'in'
p1131
g2
((dp1132
S'O-TIMEX3'
p1133
F0.9988269794721407
sS'I-TIMEX3'
p1134
F0.0011730205278592375
stp1135
Rp1136
sS'15.'
p1137
g2
((dp1138
S'O-TIMEX3'
p1139
F0.25
sS'I-TIMEX3'
p1140
F0.75
stp1141
Rp1142
sS'end'
p1143
g2
((dp1144
S'O-TIMEX3'
p1145
F0.7307692307692307
sS'I-TIMEX3'
p1146
F0.23076923076923078
sS'B-TIMEX3'
p1147
F0.038461538461538464
stp1148
Rp1149
sS'fiscal'
p1150
g2
((dp1151
S'O-TIMEX3'
p1152
F0.1
sS'I-TIMEX3'
p1153
F0.5
sS'B-TIMEX3'
p1154
F0.4
stp1155
Rp1156
sS"Thursday's"
p1157
g2
((dp1158
S'B-TIMEX3'
p1159
F1.0
stp1160
Rp1161
sS'May'
p1162
g2
((dp1163
S'I-TIMEX3'
p1164
F0.25
sS'B-TIMEX3'
p1165
F0.75
stp1166
Rp1167
sS'six'
p1168
g2
((dp1169
S'O-TIMEX3'
p1170
F0.6956521739130435
sS'I-TIMEX3'
p1171
F0.043478260869565216
sS'B-TIMEX3'
p1172
F0.2608695652173913
stp1173
Rp1174
sS'Yesterday'
p1175
g2
((dp1176
S'B-TIMEX3'
p1177
F1.0
stp1178
Rp1179
sS'40'
p1180
g2
((dp1181
S'O-TIMEX3'
p1182
F0.8
sS'B-TIMEX3'
p1183
F0.2
stp1184
Rp1185
sS'1'
p1186
g2
((dp1187
S'O-TIMEX3'
p1188
F0.5
sS'I-TIMEX3'
p1189
F0.5
stp1190
Rp1191
sS'.'
p1192
g2
((dp1193
S'O-TIMEX3'
p1194
F0.9694734164334775
sS'I-TIMEX3'
p1195
F0.029254642584584076
sS'B-TIMEX3'
p1196
F0.0012719409819384382
stp1197
Rp1198
sS'that'
p1199
g2
((dp1200
S'O-TIMEX3'
p1201
F0.994729907773386
sS'I-TIMEX3'
p1202
F0.002635046113306983
sS'B-TIMEX3'
p1203
F0.002635046113306983
stp1204
Rp1205
sS'5'
p1206
g2
((dp1207
S'O-TIMEX3'
p1208
F0.8181818181818182
sS'I-TIMEX3'
p1209
F0.09090909090909091
sS'B-TIMEX3'
p1210
F0.09090909090909091
stp1211
Rp1212
sS'fourth'
p1213
g2
((dp1214
S'O-TIMEX3'
p1215
F0.2
sS'I-TIMEX3'
p1216
F0.8
stp1217
Rp1218
sS'9'
p1219
g2
((dp1220
S'O-TIMEX3'
p1221
F0.5
sS'I-TIMEX3'
p1222
F0.16666666666666666
sS'B-TIMEX3'
p1223
F0.3333333333333333
stp1224
Rp1225
sS'several'
p1226
g2
((dp1227
S'O-TIMEX3'
p1228
F0.76
sS'I-TIMEX3'
p1229
F0.04
sS'B-TIMEX3'
p1230
F0.2
stp1231
Rp1232
sS'A'
p1233
g2
((dp1234
S'O-TIMEX3'
p1235
F0.935064935064935
sS'B-TIMEX3'
p1236
F0.06493506493506493
stp1237
Rp1238
sS'February'
p1239
g2
((dp1240
S'I-TIMEX3'
p1241
F0.1
sS'B-TIMEX3'
p1242
F0.9
stp1243
Rp1244
sS"quarter's"
p1245
g2
((dp1246
S'I-TIMEX3'
p1247
F1.0
stp1248
Rp1249
sS'centuries'
p1250
g2
((dp1251
S'B-TIMEX3'
p1252
F1.0
stp1253
Rp1254
sS'earlier'
p1255
g2
((dp1256
S'O-TIMEX3'
p1257
F0.36363636363636365
sS'I-TIMEX3'
p1258
F0.5
sS'B-TIMEX3'
p1259
F0.13636363636363635
stp1260
Rp1261
sS'1980.'
p1262
g2
((dp1263
S'I-TIMEX3'
p1264
F0.5
sS'B-TIMEX3'
p1265
F0.5
stp1266
Rp1267
sS'Thanksgiving'
p1268
g2
((dp1269
S'I-TIMEX3'
p1270
F0.25
sS'B-TIMEX3'
p1271
F0.75
stp1272
Rp1273
sS'April'
p1274
g2
((dp1275
S'I-TIMEX3'
p1276
F0.19047619047619047
sS'B-TIMEX3'
p1277
F0.8095238095238095
stp1278
Rp1279
sS'1988.'
p1280
g2
((dp1281
S'I-TIMEX3'
p1282
F0.25
sS'B-TIMEX3'
p1283
F0.75
stp1284
Rp1285
sS'coming'
p1286
g2
((dp1287
S'O-TIMEX3'
p1288
F0.7333333333333333
sS'B-TIMEX3'
p1289
F0.26666666666666666
stp1290
Rp1291
sS'14.'
p1292
g2
((dp1293
S'I-TIMEX3'
p1294
F1.0
stp1295
Rp1296
sS'1968'
p1297
g2
((dp1298
S'B-TIMEX3'
p1299
F1.0
stp1300
Rp1301
sS'The'
p1302
g2
((dp1303
S'O-TIMEX3'
p1304
F0.992526158445441
sS'B-TIMEX3'
p1305
F0.007473841554559043
stp1306
Rp1307
sS"Friday's"
p1308
g2
((dp1309
S'I-TIMEX3'
p1310
F0.2222222222222222
sS'B-TIMEX3'
p1311
F0.7777777777777778
stp1312
Rp1313
sS'weekend'
p1314
g2
((dp1315
S'O-TIMEX3'
p1316
F0.1111111111111111
sS'I-TIMEX3'
p1317
F0.8888888888888888
stp1318
Rp1319
sS'13'
p1320
g2
((dp1321
S'O-TIMEX3'
p1322
F0.75
sS'I-TIMEX3'
p1323
F0.1875
sS'B-TIMEX3'
p1324
F0.0625
stp1325
Rp1326
sS'recent'
p1327
g2
((dp1328
S'O-TIMEX3'
p1329
F0.2727272727272727
sS'B-TIMEX3'
p1330
F0.7272727272727273
stp1331
Rp1332
sS'ago'
p1333
g2
((dp1334
S'O-TIMEX3'
p1335
F0.022727272727272728
sS'I-TIMEX3'
p1336
F0.9772727272727273
stp1337
Rp1338
sS'early'
p1339
g2
((dp1340
S'O-TIMEX3'
p1341
F0.6382978723404256
sS'I-TIMEX3'
p1342
F0.0425531914893617
sS'B-TIMEX3'
p1343
F0.3191489361702128
stp1344
Rp1345
sS'third'
p1346
g2
((dp1347
S'O-TIMEX3'
p1348
F0.32142857142857145
sS'I-TIMEX3'
p1349
F0.6785714285714286
stp1350
Rp1351
sS'later'
p1352
g2
((dp1353
S'O-TIMEX3'
p1354
F0.7894736842105263
sS'I-TIMEX3'
p1355
F0.10526315789473684
sS'B-TIMEX3'
p1356
F0.10526315789473684
stp1357
Rp1358
sS'daily'
p1359
g2
((dp1360
S'O-TIMEX3'
p1361
F0.35294117647058826
sS'B-TIMEX3'
p1362
F0.6470588235294118
stp1363
Rp1364
sS'so'
p1365
g2
((dp1366
S'O-TIMEX3'
p1367
F0.9523809523809523
sS'I-TIMEX3'
p1368
F0.047619047619047616
stp1369
Rp1370
sS'time'
p1371
g2
((dp1372
S'O-TIMEX3'
p1373
F0.9444444444444444
sS'I-TIMEX3'
p1374
F0.05555555555555555
stp1375
Rp1376
sS"Wednesday's"
p1377
g2
((dp1378
S'B-TIMEX3'
p1379
F1.0
stp1380
Rp1381
sS'1982.'
p1382
g2
((dp1383
S'B-TIMEX3'
p1384
F1.0
stp1385
Rp1386
sS'12'
p1387
g2
((dp1388
S'O-TIMEX3'
p1389
F0.7647058823529411
sS'I-TIMEX3'
p1390
F0.23529411764705882
stp1391
Rp1392
sS'Saturday'
p1393
g2
((dp1394
S'I-TIMEX3'
p1395
F0.0625
sS'B-TIMEX3'
p1396
F0.9375
stp1397
Rp1398
sS'latest'
p1399
g2
((dp1400
S'O-TIMEX3'
p1401
F0.4482758620689655
sS'I-TIMEX3'
p1402
F0.5517241379310345
stp1403
Rp1404
s.