c__builtin__
set
p1
((lp2
(S'Bosnia'
S'and'
S'Herzegovina'
tp3
a(S'Democratic'
S'Republic'
S'of'
S'Congo'
tp4
a(S'Somaliland'
tp5
a(S'America'
tp6
a(S'Guinea-Bissau'
tp7
a(S'Bahamas'
tp8
a(S'Niger'
tp9
a(S'Mayotte'
tp10
a(S'Albania'
tp11
a(S'Marshall'
S'Islands'
tp12
a(S'Czech'
S'Republic'
tp13
a(S'Northern'
S'Mariana'
S'Islands'
tp14
a(S'Singapore'
tp15
a(S'Saint'
S'Vincent'
S'and'
S'the'
S'Grenadines'
tp16
a(S'Slovenia'
tp17
a(S'Uruguay'
tp18
a(S'Nagorno-Karabakh'
S'Republic'
tp19
a(S'Palestine'
tp20
a(S'East'
S'Timor'
tp21
a(S'Vatican'
tp22
a(S'Syria'
tp23
a(S'Guernsey'
tp24
a(S'Ghana'
tp25
a(S'Nauru'
tp26
a(S'Yemen'
tp27
a(S'UK'
tp28
a(S'Afghanistan'
tp29
a(S'Akrotiri'
S'and'
S'Dhekelia'
tp30
a(S'Russia'
tp31
a(S'Fiji'
tp32
a(S'Tajikistan'
tp33
a(S'Malta'
tp34
a(S'Saint'
S'Pierre'
S'and'
S'Miquelon'
tp35
a(S'North'
S'Korea'
tp36
a(S'Saint'
S'Kitts'
S'and'
S'Nevis'
tp37
a(S'El'
S'Salvador'
tp38
a(S'Germany'
tp39
a(S'US'
tp40
a(S'Moldova'
tp41
a(S'Suriname'
tp42
a(S'Philippines'
tp43
a(S'Greenland'
tp44
a(S'Japan'
tp45
a(S'Saint'
S'Kitts'
tp46
a(S'Korea'
tp47
a(S'England'
tp48
a(S'Faroe'
S'Islands'
tp49
a(S'Tobago'
tp50
a(S'Tibet'
tp51
a(S'Guatemala'
tp52
a(S'Switzerland'
tp53
a(S'Congo'
tp54
a(S'Micronesia'
tp55
a(S'China'
tp56
a(S'Caicos'
S'Islands'
tp57
a(S'South'
S'Africa'
tp58
a(S'Canada'
tp59
a(S'Mauritania'
tp60
a(S'Eritrea'
tp61
a(S'Tanzania'
tp62
a(S'Latvia'
tp63
a(S'Former'
S'USSR'
tp64
a(S'Maldives'
tp65
a(S'American'
S'Samoa'
tp66
a(S'United'
S'Arab'
S'Emirates'
tp67
a(S'United'
S'Kingdom'
tp68
a(S'Uzbekistan'
tp69
a(S'Bhutan'
tp70
a(S'Ethiopia'
tp71
a(S'Montenegro'
tp72
a(S'Azerbaijan'
tp73
a(S'Slovakia'
tp74
a(S'Bermuda'
tp75
a(S'Malaysia'
tp76
a(S'Dhekelia'
tp77
a(S'Gabon'
tp78
a(S'Algeria'
tp79
a(S'Taiwan'
tp80
a(S'Gibraltar'
tp81
a(S'Netherlands'
tp82
a(S'Trinidad'
S'and'
S'Tobago'
tp83
a(S'Denmark'
tp84
a(S'Hong'
S'Kong'
tp85
a(S'Burma'
tp86
a(S'Svalbard'
tp87
a(S'Equatorial'
S'Guinea'
tp88
a(S'Senegal'
tp89
a(S'Macao'
tp90
a(S'Djibouti'
tp91
a(S'Central'
S'African'
S'Republic'
tp92
a(S'Egypt'
tp93
a(S'Grenada'
tp94
a(S'Argentina'
tp95
a(S'Norway'
tp96
a(S'Kyrgyzstan'
tp97
a(S'Saint'
S'Helena'
tp98
a(S'Tokelau'
tp99
a(S'Ecuador'
tp100
a(S'Iceland'
tp101
a(S'Madagascar'
tp102
a(S'Bulgaria'
tp103
a(S'Sao'
S'Tome'
S'and'
S'Principe'
tp104
a(S'Libya'
tp105
a(S'Morocco'
tp106
a(S'Serbia'
tp107
a(S'San'
S'Marino'
tp108
a(S'Vietnam'
tp109
a(S'Belgium'
tp110
a(S'Akrotiri'
tp111
a(S'Botswana'
tp112
a(S'Hungary'
tp113
a(S'USA'
tp114
a(S'Ascension'
S'Island'
tp115
a(S'Iran'
tp116
a(S'Niue'
tp117
a(S'Kiribati'
tp118
a(S'Ireland'
tp119
a(S'UAE'
tp120
a(S'Mali'
tp121
a(S'Christmas'
S'Island'
tp122
a(S'Comoros'
tp123
a(S'Sudan'
tp124
a(S'Gambia'
tp125
a(S'Honduras'
tp126
a(S'Cook'
S'Islands'
tp127
a(S'Wallis'
S'Islands'
tp128
a(S'Macau'
tp129
a(S'Kosovo'
tp130
a(S'Liechtenstein'
tp131
a(S'South'
S'Ossetia'
tp132
a(S'Keeling'
S'Islands'
tp133
a(S'Angola'
tp134
a(S'Luxembourg'
tp135
a(S'Sierra'
S'Leone'
tp136
a(S'Uganda'
tp137
a(S'Barbuda'
tp138
a(S'Burkina'
S'Faso'
tp139
a(S'Bolivia'
tp140
a(S'Armenia'
tp141
a(S'Solomon'
S'Islands'
tp142
a(S'Rwanda'
tp143
a(S'Malawi'
tp144
a(S'Hoorn'
S'Islands'
tp145
a(S'Jersey'
tp146
a(S'Zambia'
tp147
a(S'Turks'
S'Islands'
tp148
a(S'Mauritius'
tp149
a(S'Netherlands'
S'Antilles'
tp150
a(S'Principe'
tp151
a(S'Namibia'
tp152
a(S'Cayman'
S'Islands'
tp153
a(S'Saint'
S'Barthelemy'
tp154
a(S'Virgin'
S'Islands'
tp155
a(S'Pitcairn'
S'Islands'
tp156
a(S'Benin'
tp157
a(S'Somalia'
tp158
a(S'Antigua'
tp159
a(S'Nicaragua'
tp160
a(S'Israel'
tp161
a(S'Seychelles'
tp162
a(S'Nevis'
tp163
a(S'Cyprus'
tp164
a(S'Poland'
tp165
a(S'Wallis'
S'and'
S'Futuna'
tp166
a(S'Vatican'
S'City'
tp167
a(S'Isle'
S'of'
S'Man'
tp168
a(S'Austria'
tp169
a(S'US'
S'Virgin'
S'Islands'
tp170
a(S'Zimbabwe'
tp171
a(S'Ukraine'
tp172
a(S'Norfolk'
S'Island'
tp173
a(S'Pakistan'
tp174
a(S'Guinea'
tp175
a(S'Cameroon'
tp176
a(S'South'
S'Korea'
tp177
a(S'United'
S'States'
S'Virgin'
S'Islands'
tp178
a(S'Bangladesh'
tp179
a(S'Tuvalu'
tp180
a(S'Turks'
S'and'
S'Caicos'
S'Islands'
tp181
a(S'Laos'
tp182
a(S'Dominican'
S'Republic'
tp183
a(S'Andorra'
tp184
a(S'Lebanon'
tp185
a(S'Miquelon'
tp186
a(S'United'
S'States'
tp187
a(S'Saint'
S'Barts'
tp188
a(S'Aruba'
tp189
a(S'Bahrain'
tp190
a(S'Haiti'
tp191
a(S'Cote'
S"d'Ivoire"
tp192
a(S'Peru'
tp193
a(S'Brunei'
tp194
a(S'Kazakhstan'
tp195
a(S'Monaco'
tp196
a(S'Cocos'
tp197
a(S'India'
tp198
a(S'Spain'
tp199
a(S'Soviet'
S'Union'
tp200
a(S'Belize'
tp201
a(S'Transnistria'
tp202
a(S'Myanmar'
tp203
a(S'Lesotho'
tp204
a(S'Lithuania'
tp205
a(S'Cuba'
tp206
a(S'Belarus'
tp207
a(S'Mongolia'
tp208
a(S'Romania'
tp209
a(S'Jordan'
tp210
a(S'Western'
S'Sahara'
tp211
a(S'Brazil'
tp212
a(S'Anguilla'
tp213
a(S'Saint'
S'Pierre'
tp214
a(S'Chile'
tp215
a(S'Greece'
tp216
a(S'Qatar'
tp217
a(S'Falkland'
S'Islands'
tp218
a(S'Georgia'
tp219
a(S'Abkhazia'
tp220
a(S'New'
S'Zealand'
tp221
a(S'Kenya'
tp222
a(S'Tristan'
S'da'
S'Cunha'
tp223
a(S'Sweden'
tp224
a(S'Paraguay'
tp225
a(S'Cape'
S'Verde'
tp226
a(S'Croatia'
tp227
a(S'Sao'
S'Tome'
tp228
a(S'Papua'
S'New'
S'Guinea'
tp229
a(S'Futuna'
S'Islands'
tp230
a(S'Iraq'
tp231
a(S'Togo'
tp232
a(S'Jamaica'
tp233
a(S'Antigua'
S'and'
S'Barbuda'
tp234
a(S'Vanuatu'
tp235
a(S'Saint'
S'Lucia'
tp236
a(S'Indonesia'
tp237
a(S'Barbados'
tp238
a(S'Kuwait'
tp239
a(S'Nepal'
tp240
a(S'Cocos'
S'Islands'
tp241
a(S'Mexico'
tp242
a(S'Palau'
tp243
a(S'Macedonia'
tp244
a(S'Saudi'
S'Arabia'
tp245
a(S'Mozambique'
tp246
a(S'France'
tp247
a(S'People'
S"'s"
S'Republic'
S'of'
S'China'
tp248
a(S'Colombia'
tp249
a(S'Venezuela'
tp250
a(S'Tonga'
tp251
a(S'Tunisia'
tp252
a(S'Portugal'
tp253
a(S'Guam'
tp254
a(S'Turkmenistan'
tp255
a(S'French'
S'Polynesia'
tp256
a(S'Bosnia'
tp257
a(S'Dominica'
tp258
a(S'Palestinian'
S'Territory'
tp259
a(S'Costa'
S'Rica'
tp260
a(S'USSR'
tp261
a(S'Saint'
S'Vincent'
tp262
a(S'Saint'
S'Martin'
tp263
a(S'Swaziland'
tp264
a(S'Nigeria'
tp265
a(S'Guyana'
tp266
a(S'Australia'
tp267
a(S'Oman'
tp268
a(S'British'
S'Virgin'
S'Islands'
tp269
a(S'Trinidad'
tp270
a(S'Panama'
tp271
a(S'Montserrat'
tp272
a(S'Finland'
tp273
a(S'Estonia'
tp274
a(S'Former'
S'Soviet'
S'Union'
tp275
a(S'Samoa'
tp276
a(S'Cambodia'
tp277
a(S'Grenadines'
tp278
a(S'Turkey'
tp279
a(S'Puerto'
S'Rico'
tp280
a(S'Liberia'
tp281
a(S'Scotland'
tp282
a(S'Sri'
S'Lanka'
tp283
a(S'Italy'
tp284
a(S'Aland'
tp285
a(S'New'
S'Caledonia'
tp286
a(S'Herzegovina'
tp287
a(S'Thailand'
tp288
a(S'Aland'
S'Islands'
tp289
a(S'Burundi'
tp290
a(S'Chad'
tp291
atRp292
.