c__builtin__
set
p1
((lp2
(VBosnia
Vand
VHerzegovina
tp3
a(VDemocratic
VRepublic
Vof
VCongo
tp4
a(VSomaliland
tp5
a(VAmerica
tp6
a(VGuinea-Bissau
tp7
a(VTajikistan
tp8
a(VMayotte
tp9
a(VAlbania
tp10
a(VMarshall
VIslands
tp11
a(VCzech
VRepublic
tp12
a(VNorthern
VMariana
VIslands
tp13
a(VTanzania
tp14
a(VGhana
tp15
a(VSlovenia
tp16
a(VUruguay
tp17
a(VNagorno-Karabakh
VRepublic
tp18
a(VPalestine
tp19
a(VEast
VTimor
tp20
a(VSyria
tp21
a(VGuernsey
tp22
a(VNauru
tp23
a(VHaiti
tp24
a(VYemen
tp25
a(VUK
tp26
a(VAfghanistan
tp27
a(VSao
VTome
Vand
VPrincipe
tp28
a(VDominican
VRepublic
tp29
a(VRussia
tp30
a(VMacao
tp31
a(VMalta
tp32
a(VSaint
VPierre
Vand
VMiquelon
tp33
a(VNorth
VKorea
tp34
a(VSaint
VKitts
Vand
VNevis
tp35
a(VEl
VSalvador
tp36
a(VGermany
tp37
a(VUS
tp38
a(VMoldova
tp39
a(VSuriname
tp40
a(VGreenland
tp41
a(VSaint
VKitts
tp42
a(VKorea
tp43
a(VEngland
tp44
a(VFaroe
VIslands
tp45
a(VTobago
tp46
a(VTibet
tp47
a(VGuatemala
tp48
a(VSwitzerland
tp49
a(VCongo
tp50
a(VMicronesia
tp51
a(VChina
tp52
a(VCaicos
VIslands
tp53
a(VSouth
VAfrica
tp54
a(VCanada
tp55
a(VMauritania
tp56
a(VEritrea
tp57
a(VFormer
VUSSR
tp58
a(VLatvia
tp59
a(VMaldives
tp60
a(VAmerican
VSamoa
tp61
a(VUnited
VArab
VEmirates
tp62
a(VUnited
VKingdom
tp63
a(VUzbekistan
tp64
a(VBhutan
tp65
a(VEthiopia
tp66
a(VMontenegro
tp67
a(VAzerbaijan
tp68
a(VBermuda
tp69
a(VDhekelia
tp70
a(VGabon
tp71
a(VTaiwan
tp72
a(VGibraltar
tp73
a(VNetherlands
tp74
a(VTrinidad
Vand
VTobago
tp75
a(VHong
VKong
tp76
a(VBurma
tp77
a(VWallis
Vand
VFutuna
tp78
a(VAlgeria
tp79
a(VSenegal
tp80
a(VDjibouti
tp81
a(VCentral
VAfrican
VRepublic
tp82
a(VEgypt
tp83
a(VGrenada
tp84
a(VArgentina
tp85
a(VNorway
tp86
a(VKyrgyzstan
tp87
a(VSaint
VHelena
tp88
a(VTokelau
tp89
a(VEcuador
tp90
a(VIceland
tp91
a(VMadagascar
tp92
a(VBulgaria
tp93
a(VUSA
tp94
a(VLibya
tp95
a(VMorocco
tp96
a(VSerbia
tp97
a(VSan
VMarino
tp98
a(VBelgium
tp99
a(VAkrotiri
tp100
a(VBotswana
tp101
a(VJapan
tp102
a(VSlovakia
tp103
a(VAscension
VIsland
tp104
a(VIran
tp105
a(VNiue
tp106
a(VIreland
tp107
a(VUAE
tp108
a(VMali
tp109
a(VChristmas
VIsland
tp110
a(VComoros
tp111
a(VSudan
tp112
a(VDenmark
tp113
a(VHonduras
tp114
a(VCook
VIslands
tp115
a(VMontserrat
tp116
a(VVirgin
VIslands
tp117
a(VMalaysia
tp118
a(VLiechtenstein
tp119
a(VSouth
VOssetia
tp120
a(VKeeling
VIslands
tp121
a(VAngola
tp122
a(VLuxembourg
tp123
a(VPortugal
tp124
a(VUganda
tp125
a(VBarbuda
tp126
a(VBurkina
VFaso
tp127
a(VBolivia
tp128
a(VArmenia
tp129
a(VSolomon
VIslands
tp130
a(VRwanda
tp131
a(VMalawi
tp132
a(VHoorn
VIslands
tp133
a(VJersey
tp134
a(VHungary
tp135
a(VAkrotiri
Vand
VDhekelia
tp136
a(VZambia
tp137
a(VTurks
VIslands
tp138
a(VMauritius
tp139
a(VNetherlands
VAntilles
tp140
a(VPrincipe
tp141
a(VNamibia
tp142
a(VCayman
VIslands
tp143
a(VKiribati
tp144
a(VMacau
tp145
a(VPitcairn
VIslands
tp146
a(VNiger
tp147
a(VSomalia
tp148
a(VAntigua
tp149
a(VFiji
tp150
a(VIsrael
tp151
a(VSeychelles
tp152
a(VCyprus
tp153
a(VPhilippines
tp154
a(VVatican
VCity
tp155
a(VIsle
Vof
VMan
tp156
a(VAustria
tp157
a(VUS
VVirgin
VIslands
tp158
a(VZimbabwe
tp159
a(VNicaragua
tp160
a(VUkraine
tp161
a(VNorfolk
VIsland
tp162
a(VPakistan
tp163
a(VGuinea
tp164
a(VCameroon
tp165
a(VSouth
VKorea
tp166
a(VUnited
VStates
VVirgin
VIslands
tp167
a(VAbkhazia
tp168
a(VNevis
tp169
a(VTuvalu
tp170
a(VGambia
tp171
a(VTurks
Vand
VCaicos
VIslands
tp172
a(VLaos
tp173
a(VBangladesh
tp174
a(VBahamas
tp175
a(VPalestinian
VTerritory
tp176
a(VLebanon
tp177
a(VMiquelon
tp178
a(VPoland
tp179
a(VSaint
VBarts
tp180
a(VAruba
tp181
a(VBahrain
tp182
a(VSierra
VLeone
tp183
a(VPeru
tp184
a(VWallis
VIslands
tp185
a(VKazakhstan
tp186
a(VVatican
tp187
a(VAndorra
tp188
a(VIndia
tp189
a(VSpain
tp190
a(VSoviet
VUnion
tp191
a(VEquatorial
VGuinea
tp192
a(VBelize
tp193
a(VTransnistria
tp194
a(VMyanmar
tp195
a(VLesotho
tp196
a(VCote
Vd'Ivoire
tp197
a(VCuba
tp198
a(VBelarus
tp199
a(VMongolia
tp200
a(VCocos
tp201
a(VJordan
tp202
a(VWestern
VSahara
tp203
a(VBrazil
tp204
a(VAnguilla
tp205
a(VSaint
VPierre
tp206
a(VChile
tp207
a(VGreece
tp208
a(VQatar
tp209
a(VFalkland
VIslands
tp210
a(VGeorgia
tp211
a(VBenin
tp212
a(VNew
VZealand
tp213
a(VKenya
tp214
a(VTristan
Vda
VCunha
tp215
a(VSweden
tp216
a(VParaguay
tp217
a(VCape
VVerde
tp218
a(VCroatia
tp219
a(VSao
VTome
tp220
a(VPapua
VNew
VGuinea
tp221
a(VFutuna
VIslands
tp222
a(VIraq
tp223
a(VTogo
tp224
a(VJamaica
tp225
a(VAntigua
Vand
VBarbuda
tp226
a(VVanuatu
tp227
a(VSaint
VLucia
tp228
a(VBarbados
tp229
a(VKuwait
tp230
a(VKosovo
tp231
a(VMexico
tp232
a(VNepal
tp233
a(VCocos
VIslands
tp234
a(VSvalbard
tp235
a(VItaly
tp236
a(VMacedonia
tp237
a(VSaudi
VArabia
tp238
a(VMozambique
tp239
a(VFrance
tp240
a(VPeople
V's
VRepublic
Vof
VChina
tp241
a(VBrunei
tp242
a(VVenezuela
tp243
a(VTonga
tp244
a(VTunisia
tp245
a(VSaint
VBarthelemy
tp246
a(VSaint
VVincent
Vand
Vthe
VGrenadines
tp247
a(VGuam
tp248
a(VTurkmenistan
tp249
a(VFrench
VPolynesia
tp250
a(VBosnia
tp251
a(VDominica
tp252
a(VRomania
tp253
a(VCosta
VRica
tp254
a(VVietnam
tp255
a(VSingapore
tp256
a(VSaint
VVincent
tp257
a(VSaint
VMartin
tp258
a(VSwaziland
tp259
a(VNigeria
tp260
a(VGuyana
tp261
a(VAustralia
tp262
a(VOman
tp263
a(VBritish
VVirgin
VIslands
tp264
a(VTrinidad
tp265
a(VPanama
tp266
a(VLithuania
tp267
a(VIndonesia
tp268
a(VEstonia
tp269
a(VUnited
VStates
tp270
a(VFormer
VSoviet
VUnion
tp271
a(VSamoa
tp272
a(VCambodia
tp273
a(VColombia
tp274
a(VMonaco
tp275
a(VGrenadines
tp276
a(VTurkey
tp277
a(VPuerto
VRico
tp278
a(VLiberia
tp279
a(VScotland
tp280
a(VUSSR
tp281
a(VSri
VLanka
tp282
a(VPalau
tp283
a(VAland
tp284
a(VNew
VCaledonia
tp285
a(VHerzegovina
tp286
a(VThailand
tp287
a(VAland
VIslands
tp288
a(VBurundi
tp289
a(VFinland
tp290
a(VChad
tp291
atRp292
.