c__builtin__
set
p1
((lp2
V['Guam']
p3
aV['Libya']
p4
aV['Myanmar']
p5
aV['Caicos', 'Islands']
p6
aV['Cameroon']
p7
aV['Hungary']
p8
aV['Bhutan']
p9
aV['Saint', 'Martin']
p10
aV['Tobago']
p11
aV['Wallis', 'Islands']
p12
aV['Mayotte']
p13
aV['Comoros']
p14
aV['Principe']
p15
aV['Iraq']
p16
aV['Brunei']
p17
aV['Ascension', 'Island']
p18
aV['Italy']
p19
aV['Christmas', 'Island']
p20
aV['Netherlands']
p21
aV['Somaliland']
p22
aV['Niue']
p23
aV['Israel']
p24
aV['Mozambique']
p25
aV['Greece']
p26
aV['Iran']
p27
aV['Australia']
p28
aV['England']
p29
aV['Jamaica']
p30
aV['Vatican', 'City']
p31
aV['Lesotho']
p32
aV['Venezuela']
p33
aV['Zambia']
p34
aV['Transnistria']
p35
aV['Guinea-Bissau']
p36
aV['Djibouti']
p37
aV['Cocos', 'Islands']
p38
aV['Singapore']
p39
aV['Dominican', 'Republic']
p40
aV['Burkina', 'Faso']
p41
aV['Maldives']
p42
aV['Canada']
p43
aV['Slovenia']
p44
aV['Puerto', 'Rico']
p45
aV['East', 'Timor']
p46
aV['Moldova']
p47
aV['Bahrain']
p48
aV['Lebanon']
p49
aV['Macedonia']
p50
aV['Papua', 'New', 'Guinea']
p51
aV['Iceland']
p52
aV['Finland']
p53
aV['Saint', 'Kitts', 'and', 'Nevis']
p54
aV['Sao', 'Tome']
p55
aV['Ecuador']
p56
aV['Kyrgyzstan']
p57
aV['Congo']
p58
aV['Falkland', 'Islands']
p59
aV['Ethiopia']
p60
aV['Equatorial', 'Guinea']
p61
aV['North', 'Korea']
p62
aV['Macau']
p63
aV['Mexico']
p64
aV['Saint', 'Barts']
p65
aV['Suriname']
p66
aV['Nicaragua']
p67
aV['Monaco']
p68
aV['New', 'Caledonia']
p69
aV['Mali']
p70
aV['Palestine']
p71
aV['Yemen']
p72
aV['French', 'Polynesia']
p73
aV['Tunisia']
p74
aV['Ireland']
p75
aV['Saint', 'Vincent']
p76
aV['Argentina']
p77
aV['Albania']
p78
aV['Taiwan']
p79
aV['Barbuda']
p80
aV['Tuvalu']
p81
aV['Russia']
p82
aV['Guyana']
p83
aV['Hoorn', 'Islands']
p84
aV['Samoa']
p85
aV['Trinidad', 'and', 'Tobago']
p86
aV['Bosnia', 'and', 'Herzegovina']
p87
aV['Guatemala']
p88
aV['Central', 'African', 'Republic']
p89
aV['Senegal']
p90
aV['New', 'Zealand']
p91
aV['Hong', 'Kong']
p92
aV['Croatia']
p93
aV['Dhekelia']
p94
aV['Anguilla']
p95
aV['El', 'Salvador']
p96
aV['Cook', 'Islands']
p97
aV['Marshall', 'Islands']
p98
aV['Azerbaijan']
p99
aV['Haiti']
p100
aV['UK']
p101
aV['Sri', 'Lanka']
p102
aV['Saudi', 'Arabia']
p103
aV['Serbia']
p104
aV['Gambia']
p105
aV['Benin']
p106
aV['Armenia']
p107
aV['Laos']
p108
aV['Saint', 'Vincent', 'and', 'the', 'Grenadines']
p109
aV['San', 'Marino']
p110
aV['Grenadines']
p111
aV['Uzbekistan']
p112
aV['Eritrea']
p113
aV['Akrotiri']
p114
aV['Norfolk', 'Island']
p115
aV['Sudan']
p116
aV['Aruba']
p117
aV['USA']
p118
aV['Austria']
p119
aV['Fiji']
p120
aV['Morocco']
p121
aV['Akrotiri', 'and', 'Dhekelia']
p122
aV['Mauritania']
p123
aV['Saint', 'Kitts']
p124
aV['Western', 'Sahara']
p125
aV['Northern', 'Mariana', 'Islands']
p126
aV['Kazakhstan']
p127
aV['Liberia']
p128
aV['Tonga']
p129
aV['China']
p130
aV['Kuwait']
p131
aV['Colombia']
p132
aV['Bermuda']
p133
aV['Saint', 'Barthelemy']
p134
aV['Micronesia']
p135
aV['Former', 'Soviet', 'Union']
p136
aV['Cyprus']
p137
aV['Sweden']
p138
aV['Nagorno-Karabakh', 'Republic']
p139
aV['Jordan']
p140
aV['Guinea']
p141
aV['Vanuatu']
p142
aV['British', 'Virgin', 'Islands']
p143
aV['Botswana']
p144
aV['Soviet', 'Union']
p145
aV['Scotland']
p146
aV['Chad']
p147
aV['Burundi']
p148
aV['France']
p149
aV['South', 'Africa']
p150
aV['Costa', 'Rica']
p151
aV['South', 'Ossetia']
p152
aV['Bosnia']
p153
aV['Uganda']
p154
aV['Slovakia']
p155
aV['Cocos']
p156
aV['Turkey']
p157
aV['Cape', 'Verde']
p158
aV['Montenegro']
p159
aV['Abkhazia']
p160
aV['Sierra', 'Leone']
p161
aV['Saint', 'Pierre']
p162
aV['People', "'s", 'Republic', 'of', 'China']
p163
aV['Seychelles']
p164
aV['Antigua']
p165
aV['Paraguay']
p166
aV['Guernsey']
p167
aV['United', 'Arab', 'Emirates']
p168
aV['Jersey']
p169
aV['Herzegovina']
p170
aV['Spain']
p171
aV['Angola']
p172
aV['Greenland']
p173
aV['Aland']
p174
aV['Virgin', 'Islands']
p175
aV['Malawi']
p176
aV['Nevis']
p177
aV['Somalia']
p178
aV['Tibet']
p179
aV['Cayman', 'Islands']
p180
aV['Kiribati']
p181
aV['Qatar']
p182
aV['Ukraine']
p183
aV['Nauru']
p184
aV['Isle', 'of', 'Man']
p185
aV['Andorra']
p186
aV['Bangladesh']
p187
aV['Zimbabwe']
p188
aV['Egypt']
p189
aV['Vatican']
p190
aV['Faroe', 'Islands']
p191
aV['Dominica']
p192
aV['Bolivia']
p193
aV['Gabon']
p194
aV['Liechtenstein']
p195
aV['Madagascar']
p196
aV['Lithuania']
p197
aV['Syria']
p198
aV['Swaziland']
p199
aV['Switzerland']
p200
aV['Grenada']
p201
aV['Germany']
p202
aV['Keeling', 'Islands']
p203
aV['Miquelon']
p204
aV['USSR']
p205
aV['Cote', "d'Ivoire"]
p206
aV['Kosovo']
p207
aV['Turks', 'Islands']
p208
aV['Mauritius']
p209
aV['Saint', 'Pierre', 'and', 'Miquelon']
p210
aV['Nigeria']
p211
aV['Pakistan']
p212
aV['Niger']
p213
aV['American', 'Samoa']
p214
aV['Netherlands', 'Antilles']
p215
aV['Brazil']
p216
aV['Afghanistan']
p217
aV['Chile']
p218
aV['Georgia']
p219
aV['Tanzania']
p220
aV['Kenya']
p221
aV['United', 'Kingdom']
p222
aV['Nepal']
p223
aV['Palau']
p224
aV['Turkmenistan']
p225
aV['Tokelau']
p226
aV['Futuna', 'Islands']
p227
aV['Bulgaria']
p228
aV['Turks', 'and', 'Caicos', 'Islands']
p229
aV['South', 'Korea']
p230
aV['Mongolia']
p231
aV['Thailand']
p232
aV['America']
p233
aV['Palestinian', 'Territory']
p234
aV['Saint', 'Helena']
p235
aV['Vietnam']
p236
aV['Macao']
p237
aV['Sao', 'Tome', 'and', 'Principe']
p238
aV['Indonesia']
p239
aV['Belgium']
p240
aV['US']
p241
aV['Wallis', 'and', 'Futuna']
p242
aV['Bahamas']
p243
aV['Czech', 'Republic']
p244
aV['Burma']
p245
aV['Luxembourg']
p246
aV['Belize']
p247
aV['Cambodia']
p248
aV['Belarus']
p249
aV['Trinidad']
p250
aV['UAE']
p251
aV['Togo']
p252
aV['Algeria']
p253
aV['Uruguay']
p254
aV['Denmark']
p255
aV['India']
p256
aV['Antigua', 'and', 'Barbuda']
p257
aV['Cuba']
p258
aV['Norway']
p259
aV['Rwanda']
p260
aV['Tristan', 'da', 'Cunha']
p261
aV['Poland']
p262
aV['Saint', 'Lucia']
p263
aV['Former', 'USSR']
p264
aV['Svalbard']
p265
aV['Montserrat']
p266
aV['Honduras']
p267
aV['United', 'States']
p268
aV['Gibraltar']
p269
aV['Philippines']
p270
aV['United', 'States', 'Virgin', 'Islands']
p271
aV['Namibia']
p272
aV['Solomon', 'Islands']
p273
aV['Barbados']
p274
aV['Korea']
p275
aV['Estonia']
p276
aV['Democratic', 'Republic', 'of', 'Congo']
p277
aV['Tajikistan']
p278
aV['Japan']
p279
aV['Peru']
p280
aV['Panama']
p281
aV['Malaysia']
p282
aV['Malta']
p283
aV['Ghana']
p284
aV['Oman']
p285
aV['Aland', 'Islands']
p286
aV['Latvia']
p287
aV['Romania']
p288
aV['US', 'Virgin', 'Islands']
p289
aV['Portugal']
p290
aV['Pitcairn', 'Islands']
p291
atRp292
.