c__builtin__
set
p1
((lp2
V['Fanya']
p3
aV['Mead']
p4
aV['Florry']
p5
aV['Selia']
p6
aV['Nena']
p7
aV['Ekaterina']
p8
aV['Cary']
p9
aV['Letta']
p10
aV['Janela']
p11
aV['Pauletta']
p12
aV['Blondy']
p13
aV['Reggi']
p14
aV['Kathi']
p15
aV['Burta']
p16
aV['Annalee']
p17
aV['Marline']
p18
aV['Kimberly']
p19
aV['Nela']
p20
aV['Sallee']
p21
aV['Donetta']
p22
aV['Brunella']
p23
aV['Micky']
p24
aV['Lizzy']
p25
aV['Gabriela']
p26
aV['Riannon']
p27
aV['Rivalee']
p28
aV['Caren']
p29
aV['Margareta']
p30
aV['Conni']
p31
aV['Darby']
p32
aV['Scarlett']
p33
aV['Arielle']
p34
aV['Prisca']
p35
aV['Isobel']
p36
aV['Cassandry']
p37
aV['Chere']
p38
aV['Gussy']
p39
aV['Marlee']
p40
aV['Maggie']
p41
aV['Crissy']
p42
aV['Wilow']
p43
aV['Endora']
p44
aV['Adaline']
p45
aV['Nerissa']
p46
aV['Rena']
p47
aV['Aline']
p48
aV['Venita']
p49
aV['Eileen']
p50
aV['Danita']
p51
aV['Karlotta']
p52
aV['Cicely']
p53
aV['Deanna']
p54
aV['Rae']
p55
aV['Billy']
p56
aV['Karole']
p57
aV['Noemi']
p58
aV['Fianna']
p59
aV['Neysa']
p60
aV['Becky']
p61
aV['Collette']
p62
aV['Samuella']
p63
aV['Cherilynn']
p64
aV['Rosy']
p65
aV['Morganica']
p66
aV['Jemmie']
p67
aV['Libbie']
p68
aV['Christine']
p69
aV['Madel']
p70
aV['Tabitha']
p71
aV['Germana']
p72
aV['Helaina']
p73
aV['Riane']
p74
aV['Ida']
p75
aV['Florence']
p76
aV['Melesa']
p77
aV['Anna-Diane']
p78
aV['Juline']
p79
aV['Jan']
p80
aV['Adelina']
p81
aV['Rachael']
p82
aV['Darlene']
p83
aV['Dori']
p84
aV['Sophia']
p85
aV['Velvet']
p86
aV['Jerrilee']
p87
aV['Feliza']
p88
aV['Candis']
p89
aV['Leelah']
p90
aV['Tiphani']
p91
aV['Cati']
p92
aV['Joby']
p93
aV['Wynn']
p94
aV['Kari']
p95
aV['Freddy']
p96
aV['Merci']
p97
aV['Cleopatra']
p98
aV['Justine']
p99
aV['Jenifer']
p100
aV['Adriana']
p101
aV['Arabelle']
p102
aV['Elfie']
p103
aV['Aretha']
p104
aV['Erin']
p105
aV['Horatia']
p106
aV['Crista']
p107
aV['Hinda']
p108
aV['Winifred']
p109
aV['Elaine']
p110
aV['Pansy']
p111
aV['Faina']
p112
aV['Katharina']
p113
aV['Marge']
p114
aV['Patty']
p115
aV['Maurine']
p116
aV['Elonore']
p117
aV['Mozelle']
p118
aV['Peggie']
p119
aV['Ellie']
p120
aV['Esmerelda']
p121
aV['Gavra']
p122
aV['Carie']
p123
aV['Andree']
p124
aV['Rubetta']
p125
aV['Dorine']
p126
aV['Koralle']
p127
aV['Blinni']
p128
aV['Leanor']
p129
aV['Quinn']
p130
aV['Tootsie']
p131
aV['Harley']
p132
aV['Natka']
p133
aV['Thea']
p134
aV['Chandra']
p135
aV['Sigrid']
p136
aV['Joline']
p137
aV['Emilee']
p138
aV['Carley']
p139
aV['Molly']
p140
aV['Noni']
p141
aV['Kevina']
p142
aV['Selie']
p143
aV['Juli']
p144
aV['Tuesday']
p145
aV['Shannah']
p146
aV['Caryn']
p147
aV['Meara']
p148
aV['Dona']
p149
aV['Tiffanie']
p150
aV['Amaleta']
p151
aV['Kati']
p152
aV['Jacquelyn']
p153
aV['Marglerite']
p154
aV['Gui']
p155
aV['Amelita']
p156
aV['Yetta']
p157
aV['Ashlen']
p158
aV['Ronny']
p159
aV['Mala']
p160
aV['Desaree']
p161
aV['Shirley']
p162
aV['Kary']
p163
aV['Rheta']
p164
aV['Ibby']
p165
aV['Hyacinthie']
p166
aV['Jorrie']
p167
aV['Ciara']
p168
aV['Adel']
p169
aV['Binny']
p170
aV['Aprilette']
p171
aV['Charlotta']
p172
aV['Jessi']
p173
aV['Danit']
p174
aV['Orsola']
p175
aV['Harmonie']
p176
aV['Rosamund']
p177
aV['Tove']
p178
aV['Kelila']
p179
aV['Perl']
p180
aV['Essa']
p181
aV['Velma']
p182
aV['Doreen']
p183
aV['Nadeen']
p184
aV['Luana']
p185
aV['Alida']
p186
aV['Stacy']
p187
aV['Roselle']
p188
aV['Sadella']
p189
aV['Cristionna']
p190
aV['Laila']
p191
aV['Ceil']
p192
aV['Tabbitha']
p193
aV['Raine']
p194
aV['Breanne']
p195
aV['Simone']
p196
aV['Gunilla']
p197
aV['Brear']
p198
aV['Darcey']
p199
aV['Dacey']
p200
aV['Nyssa']
p201
aV['Lissie']
p202
aV['Lucretia']
p203
aV['Lanita']
p204
aV['Maryjane']
p205
aV['Sapphire']
p206
aV['Millicent']
p207
aV['Maryl']
p208
aV['Cris']
p209
aV['Minni']
p210
aV['Regan']
p211
aV['Britte']
p212
aV['Ninon']
p213
aV['Matti']
p214
aV['Martguerita']
p215
aV['Aurlie']
p216
aV['Cate']
p217
aV['Karoly']
p218
aV['Bambi']
p219
aV['Celeste']
p220
aV['Stace']
p221
aV['Rania']
p222
aV['Kissiah']
p223
aV['Kerstin']
p224
aV['Rafa']
p225
aV['Bunni']
p226
aV['Gae']
p227
aV['Lysandra']
p228
aV['Kat']
p229
aV['Mellicent']
p230
aV['Alanah']
p231
aV['Bettine']
p232
aV['Perle']
p233
aV['Dorita']
p234
aV['Alta']
p235
aV['Hedda']
p236
aV['Lila']
p237
aV['Kesley']
p238
aV['Sherry']
p239
aV['Aloysia']
p240
aV['Sibyl']
p241
aV['Alisa']
p242
aV['Isador']
p243
aV['Clemmie']
p244
aV['Maryangelyn']
p245
aV['Sussi']
p246
aV['Fawn']
p247
aV['Dorris']
p248
aV['Sunshine']
p249
aV['Vivien']
p250
aV['Wynny']
p251
aV['Andromache']
p252
aV['Chrissa']
p253
aV['Tori']
p254
aV['Della']
p255
aV['Marietta']
p256
aV['Donnamarie']
p257
aV['Kizzie']
p258
aV['Lurette']
p259
aV['Nelie']
p260
aV['Ricky']
p261
aV['Tobey']
p262
aV['Veronike']
p263
aV['Robbi']
p264
aV['Randy']
p265
aV['Aindrea']
p266
aV['Lilith']
p267
aV['Hyacintha']
p268
aV['Lilia']
p269
aV['Maryrose']
p270
aV['Tatiania']
p271
aV['Bevvy']
p272
aV['Karlee']
p273
aV['Bebe']
p274
aV['Allsun']
p275
aV['Yelena']
p276
aV['Casandra']
p277
aV['Tina']
p278
aV['Wanda']
p279
aV['Zahara']
p280
aV['Nixie']
p281
aV['Leonelle']
p282
aV['Hynda']
p283
aV['Sibby']
p284
aV['Nikoletta']
p285
aV['Lois']
p286
aV['Kaylyn']
p287
aV['Sabrina']
p288
aV['Dinah']
p289
aV['Odelle']
p290
aV['Sheena']
p291
aV['Cherilyn']
p292
aV['Delphinia']
p293
aV['Misty']
p294
aV['Jenelle']
p295
aV['Elka']
p296
aV['Alexine']
p297
aV['Joselyn']
p298
aV['Tedda']
p299
aV['Gusella']
p300
aV['Annabal']
p301
aV['Windy']
p302
aV['Tildi']
p303
aV['Gerta']
p304
aV['Thelma']
p305
aV['Retha']
p306
aV['Sondra']
p307
aV['Emmalynne']
p308
aV['Antonia']
p309
aV['Faun']
p310
aV['Arlen']
p311
aV['Engracia']
p312
aV['Cristen']
p313
aV['Theresina']
p314
aV['Rosaline']
p315
aV['Oneida']
p316
aV['Muire']
p317
aV['Althea']
p318
aV['Brittany']
p319
aV['Laurene']
p320
aV['Whitney']
p321
aV['Bathsheba']
p322
aV['Claribel']
p323
aV['Meggy']
p324
aV['Davine']
p325
aV['Patsy']
p326
aV['Faunie']
p327
aV['Leshia']
p328
aV['Dana']
p329
aV['Devina']
p330
aV['Natalina']
p331
aV['Annie']
p332
aV['Mahalia']
p333
aV['Bird']
p334
aV['Angel']
p335
aV['Roana']
p336
aV['Cloris']
p337
aV['Gredel']
p338
aV['Adrianne']
p339
aV['Estele']
p340
aV['Cassondra']
p341
aV['Kimmi']
p342
aV['Sally']
p343
aV['Anabella']
p344
aV['Jo-Anne']
p345
aV['Cally']
p346
aV['Indira']
p347
aV['Kassi']
p348
aV['Queenie']
p349
aV['Enya']
p350
aV['Marcie']
p351
aV['Belicia']
p352
aV['Beilul']
p353
aV['Helise']
p354
aV['Shel']
p355
aV['Agata']
p356
aV['Zorine']
p357
aV['Augustine']
p358
aV['Timmy']
p359
aV['Corrie']
p360
aV['Malia']
p361
aV['Linette']
p362
aV['Ardelle']
p363
aV['Allianora']
p364
aV['Cherey']
p365
aV['Fedora']
p366
aV['Blithe']
p367
aV['Karoline']
p368
aV['Romona']
p369
aV['Sibel']
p370
aV['Sonnnie']
p371
aV['Priscilla']
p372
aV['Kristan']
p373
aV['Felicdad']
p374
aV['Saree']
p375
aV['Andie']
p376
aV['Fredia']
p377
aV['Wallis']
p378
aV['Krystyna']
p379
aV['Jesselyn']
p380
aV['Katharyn']
p381
aV['Kerrill']
p382
aV['Melloney']
p383
aV['Hallie']
p384
aV['Taffy']
p385
aV['Alana']
p386
aV['Idette']
p387
aV['Ursala']
p388
aV['Sibylla']
p389
aV['Matilde']
p390
aV['Sybille']
p391
aV['Sharlene']
p392
aV['Datha']
p393
aV['Chelsie']
p394
aV['Karlene']
p395
aV['Terrye']
p396
aV['Gertrud']
p397
aV['Greer']
p398
aV['Almeda']
p399
aV['Carolina']
p400
aV['Sheree']
p401
aV['Sharia']
p402
aV['Deb']
p403
aV['Joni']
p404
aV['Dita']
p405
aV['Rosemonde']
p406
aV['Genny']
p407
aV['Oralie']
p408
aV['Myrlene']
p409
aV['Dawna']
p410
aV['Nitin']
p411
aV['Kandy']
p412
aV['Ofella']
p413
aV['Orelle']
p414
aV['Judi']
p415
aV['Brenna']
p416
aV['Carina']
p417
aV['Kordula']
p418
aV['Aubrey']
p419
aV['Peria']
p420
aV['Loralyn']
p421
aV['Mandy']
p422
aV['Dianne']
p423
aV['Vannie']
p424
aV['Lynne']
p425
aV['Shayla']
p426
aV['Regine']
p427
aV['Norma']
p428
aV['Shandie']
p429
aV['Bernie']
p430
aV['Danyelle']
p431
aV['Janina']
p432
aV['Nada']
p433
aV['Anastasia']
p434
aV['Lurleen']
p435
aV['Meghann']
p436
aV['Dyana']
p437
aV['Kakalina']
p438
aV['Ryann']
p439
aV['Shari']
p440
aV['Ardra']
p441
aV['Vinny']
p442
aV['Nicki']
p443
aV['Mirella']
p444
aV['Rici']
p445
aV['Dotty']
p446
aV['Orelia']
p447
aV['Sabine']
p448
aV['Dulcea']
p449
aV['Christabel']
p450
aV['Jacqueline']
p451
aV['Irena']
p452
aV['Stefa']
p453
aV['Genia']
p454
aV['Cherrita']
p455
aV['Caritta']
p456
aV['Nari']
p457
aV['Sheilah']
p458
aV['Harri']
p459
aV['Lizabeth']
p460
aV['Dede']
p461
aV['Devan']
p462
aV['Diannne']
p463
aV['Sheilakathryn']
p464
aV['Shawna']
p465
aV['Tara']
p466
aV['Daniella']
p467
aV['Camile']
p468
aV['Cassie']
p469
aV['Viva']
p470
aV['Fredi']
p471
aV['Lynnett']
p472
aV['Shawn']
p473
aV['Berry']
p474
aV['Antoinette']
p475
aV['Carlyn']
p476
aV['Annadiana']
p477
aV['Darsey']
p478
aV['Fayette']
p479
aV['Janessa']
p480
aV['Isabelle']
p481
aV['Bernardine']
p482
aV['Quintina']
p483
aV['Fidelia']
p484
aV['Maritsa']
p485
aV['Eugenie']
p486
aV['Lusa']
p487
aV['Berty']
p488
aV['Arly']
p489
aV['Demetra']
p490
aV['Cicily']
p491
aV['Yvette']
p492
aV['Kassey']
p493
aV['Yolanda']
p494
aV['Lana']
p495
aV['Ioana']
p496
aV['Darryl']
p497
aV['Suzette']
p498
aV['Halette']
p499
aV['Amargo']
p500
aV['Merissa']
p501
aV['Minerva']
p502
aV['Neilla']
p503
aV['Maribel']
p504
aV['Shara']
p505
aV['Lani']
p506
aV['Valli']
p507
aV['Elianora']
p508
aV['Meridel']
p509
aV['Doretta']
p510
aV['Gabie']
p511
aV['Malinda']
p512
aV['Calli']
p513
aV['Casia']
p514
aV['Claudelle']
p515
aV['Norah']
p516
aV['Albertine']
p517
aV['Allina']
p518
aV['Clari']
p519
aV['Francene']
p520
aV['Maddy']
p521
aV['Arlette']
p522
aV['Maxine']
p523
aV['Nat']
p524
aV['Vivia']
p525
aV['Grata']
p526
aV['Ophelia']
p527
aV['Vivianna']
p528
aV['Gill']
p529
aV['Hope']
p530
aV['Basia']
p531
aV['Ariana']
p532
aV['Sindee']
p533
aV['Liliane']
p534
aV['Francine']
p535
aV['Christal']
p536
aV['Eran']
p537
aV['Malvina']
p538
aV['Jobie']
p539
aV['Mommy']
p540
aV['Kyrstin']
p541
aV['Eyde']
p542
aV['Allyce']
p543
aV['Erika']
p544
aV['Joellen']
p545
aV['Marcy']
p546
aV['Aida']
p547
aV['Hyacinth']
p548
aV['Celia']
p549
aV['Clovis']
p550
aV['Luce']
p551
aV['Shaylynn']
p552
aV['Pru']
p553
aV['Valentine']
p554
aV['Julia']
p555
aV['Ventura']
p556
aV['Jaimie']
p557
aV['Fancie']
p558
aV['Kacy']
p559
aV['Charlene']
p560
aV['Wally']
p561
aV['Persis']
p562
aV['Barbey']
p563
aV['Jami']
p564
aV['Dael']
p565
aV['Brina']
p566
aV['Callie']
p567
aV['Adria']
p568
aV['Marthe']
p569
aV['Lina']
p570
aV['Katie']
p571
aV['Sianna']
p572
aV['Kellina']
p573
aV['Pauly']
p574
aV['Timothea']
p575
aV['Cyndi']
p576
aV['Ardene']
p577
aV['Vin']
p578
aV['Siobhan']
p579
aV['Devinne']
p580
aV['Averil']
p581
aV['Garnette']
p582
aV['Leia']
p583
aV['Kristi']
p584
aV['Esme']
p585
aV['Tarah']
p586
aV['Aleta']
p587
aV['Angelia']
p588
aV['Salome']
p589
aV['Jamie']
p590
aV['Marian']
p591
aV['Olympia']
p592
aV['Dennie']
p593
aV['Lonni']
p594
aV['Ricca']
p595
aV['Tony']
p596
aV['Aurora']
p597
aV['Donnie']
p598
aV['Alaine']
p599
aV['Jessie']
p600
aV['Nonna']
p601
aV['Bambie']
p602
aV['Bunnie']
p603
aV['Kathryne']
p604
aV['Jude']
p605
aV['Katleen']
p606
aV['Corina']
p607
aV['Rickie']
p608
aV['Hadria']
p609
aV['Sharleen']
p610
aV['Gwenora']
p611
aV['Carlena']
p612
aV['Beverlee']
p613
aV['Dorise']
p614
aV['Charla']
p615
aV['Mireille']
p616
aV['Bari']
p617
aV['Michaelina']
p618
aV['Jeannine']
p619
aV['Delphine']
p620
aV['Robbyn']
p621
aV['Vitoria']
p622
aV['Gilda']
p623
aV['Waly']
p624
aV['Fatima']
p625
aV['Mirabelle']
p626
aV['Darcy']
p627
aV['Leontine']
p628
aV['Jewelle']
p629
aV['Jillie']
p630
aV['Karrah']
p631
aV['Candie']
p632
aV['Jacquenette']
p633
aV['Kimberley']
p634
aV['Joell']
p635
aV['Camilla']
p636
aV['Esther']
p637
aV['Rozanna']
p638
aV['Meggie']
p639
aV['Sada']
p640
aV['Peggi']
p641
aV['Laural']
p642
aV['Gwenni']
p643
aV['Beatrice']
p644
aV['Angelita']
p645
aV['Janene']
p646
aV['Margo']
p647
aV['Jeni']
p648
aV['Catlaina']
p649
aV['Jolyn']
p650
aV['Mahala']
p651
aV['Eadie']
p652
aV['Lisha']
p653
aV['Benoite']
p654
aV['Rahel']
p655
aV['Caron']
p656
aV['Marcela']
p657
aV['Sara']
p658
aV['Caralie']
p659
aV['Joyous']
p660
aV['Trenna']
p661
aV['Evelina']
p662
aV['Hedi']
p663
aV['Jordanna']
p664
aV['Elna']
p665
aV['Mabelle']
p666
aV['Christina']
p667
aV['Edythe']
p668
aV['Talyah']
p669
aV['Theadora']
p670
aV['Twila']
p671
aV['Denyse']
p672
aV['Brooks']
p673
aV['Malena']
p674
aV['Grier']
p675
aV['Myra']
p676
aV['Dode']
p677
aV['Wendi']
p678
aV['Deirdre']
p679
aV['Luci']
p680
aV['Madelena']
p681
aV['Bernadina']
p682
aV['Magdalene']
p683
aV['Jorie']
p684
aV['Orella']
p685
aV['Lyda']
p686
aV['Teddie']
p687
aV['Alina']
p688
aV['Rosie']
p689
aV['Benedikta']
p690
aV['Nelli']
p691
aV['Claude']
p692
aV['Pammy']
p693
aV['Phelia']
p694
aV['Magda']
p695
aV['Happy']
p696
aV['Charlot']
p697
aV['Jacki']
p698
aV['Angelica']
p699
aV['Allegra']
p700
aV['Cammie']
p701
aV['Fayth']
p702
aV['Ann']
p703
aV['Amber']
p704
aV['Alyssa']
p705
aV['Valma']
p706
aV['Zita']
p707
aV['Caryl']
p708
aV['Katharine']
p709
aV['Maris']
p710
aV['Michal']
p711
aV['Gilly']
p712
aV['Nickie']
p713
aV['Carmon']
p714
aV['Onida']
p715
aV['Margaux']
p716
aV['Zaneta']
p717
aV['Tia']
p718
aV['Glennie']
p719
aV['Carmen']
p720
aV['Adeline']
p721
aV['Ardyce']
p722
aV['Kacey']
p723
aV['Frederica']
p724
aV['Denna']
p725
aV['Dore']
p726
aV['Marysa']
p727
aV['Cher']
p728
aV['Kimmie']
p729
aV['Ivette']
p730
aV['Evangelia']
p731
aV['Olive']
p732
aV['Candra']
p733
aV['Camella']
p734
aV['Jilli']
p735
aV['Geraldina']
p736
aV['Kim']
p737
aV['Jasmin']
p738
aV['Laurie']
p739
aV['Jo', 'Ann']
p740
aV['Wilhelmine']
p741
aV['Nissy']
p742
aV['Goldi']
p743
aV['Imojean']
p744
aV['Lula']
p745
aV['Dorian']
p746
aV['Ardenia']
p747
aV['Katha']
p748
aV['Dodi']
p749
aV['Trudey']
p750
aV['Marsha']
p751
aV['Joanna']
p752
aV['Meg']
p753
aV['Kelcie']
p754
aV['Teryl']
p755
aV['Yvonne']
p756
aV['Hetti']
p757
aV['Marcelle']
p758
aV['Eba']
p759
aV['Joyann']
p760
aV['Martina']
p761
aV['Gerty']
p762
aV['Renata']
p763
aV['Margery']
p764
aV['Teressa']
p765
aV['Kylila']
p766
aV['Modesty']
p767
aV['Gabbi']
p768
aV['Lindi']
p769
aV['Ailyn']
p770
aV['Meredithe']
p771
aV['Moselle']
p772
aV['Patrica']
p773
aV['Georgetta']
p774
aV['Phedra']
p775
aV['Glen']
p776
aV['Neda']
p777
aV['Pearle']
p778
aV['Pauli']
p779
aV['Linzy']
p780
aV['Vonnie']
p781
aV['Lucita']
p782
aV['Dolley']
p783
aV['Emlynn']
p784
aV['Debor']
p785
aV['Mollee']
p786
aV['Gayle']
p787
aV['Brooke']
p788
aV['Consuelo']
p789
aV['Kym']
p790
aV['Ora']
p791
aV['Charmain']
p792
aV['Christa']
p793
aV['Caterina']
p794
aV['Debbi']
p795
aV['Saundra']
p796
aV['Fidelity']
p797
aV['Alissa']
p798
aV['Rosalia']
p799
aV['Veriee']
p800
aV['Raquela']
p801
aV['Mehetabel']
p802
aV['Phyllis']
p803
aV['Carolynn']
p804
aV['Beryl']
p805
aV['Malissia']
p806
aV['Sal']
p807
aV['Clarisa']
p808
aV['Honor']
p809
aV['Wendeline']
p810
aV['Elsinore']
p811
aV['Rori']
p812
aV['Antonetta']
p813
aV['Lona']
p814
aV['Jaquelyn']
p815
aV['Kipp']
p816
aV['Yonina']
p817
aV['Almire']
p818
aV['Selinda']
p819
aV['Vita']
p820
aV['Karol']
p821
aV['Cara']
p822
aV['Belita']
p823
aV['Leanna']
p824
aV['Novelia']
p825
aV['Meade']
p826
aV['Marice']
p827
aV['Martynne']
p828
aV['Jammie']
p829
aV['Claudetta']
p830
aV['Nita']
p831
aV['Di']
p832
aV['Raquel']
p833
aV['Prissie']
p834
aV['Sherie']
p835
aV['Katee']
p836
aV['Agathe']
p837
aV['Flossi']
p838
aV['Vivian']
p839
aV['Therese']
p840
aV['Hesther']
p841
aV['Rikki']
p842
aV['Bliss']
p843
aV['Wren']
p844
aV['Lorette']
p845
aV['Val']
p846
aV['Melody']
p847
aV['Sam']
p848
aV['Kristin']
p849
aV['Georgianne']
p850
aV['Mireielle']
p851
aV['Doris']
p852
aV['Flore']
p853
aV['Dory']
p854
aV['Marlene']
p855
aV['Heloise']
p856
aV['Debora']
p857
aV['Karyn']
p858
aV['Arden']
p859
aV['Arlinda']
p860
aV['Junina']
p861
aV['Gertrudis']
p862
aV['Alvinia']
p863
aV['Lisandra']
p864
aV['Shelley']
p865
aV['Missie']
p866
aV['Kailey']
p867
aV['Zara']
p868
aV['Jacklyn']
p869
aV['Bernita']
p870
aV['Jemmy']
p871
aV['Elizabet']
p872
aV['Sammy']
p873
aV['Katya']
p874
aV['Cecil']
p875
aV['Allissa']
p876
aV['Diamond']
p877
aV['Jillene']
p878
aV['Anne-Mar']
p879
aV['Nadine']
p880
aV['Bettina']
p881
aV['Geralda']
p882
aV['Karolina']
p883
aV['Berthe']
p884
aV['Enrichetta']
p885
aV['Robyn']
p886
aV['Mellisa']
p887
aV['Kamila']
p888
aV['Mellie']
p889
aV['Dasi']
p890
aV['Isidora']
p891
aV['Eleanore']
p892
aV['Essie']
p893
aV['Sybilla']
p894
aV['Donny']
p895
aV['Charmane']
p896
aV['Chelsy']
p897
aV['Muffin']
p898
aV['Tansy']
p899
aV['Cybil']
p900
aV['Marylin']
p901
aV['Doralyn']
p902
aV['Janeczka']
p903
aV['Austina']
p904
aV['Devora']
p905
aV['Elke']
p906
aV['Ginnifer']
p907
aV['Alexina']
p908
aV['Clotilda']
p909
aV['Sharna']
p910
aV['Shirlene']
p911
aV['Nomi']
p912
aV['Adore']
p913
aV['Kyle']
p914
aV['Lidia']
p915
aV['Norry']
p916
aV['Annemarie']
p917
aV['Mady']
p918
aV['Maible']
p919
aV['Maddi']
p920
aV['Emera']
p921
aV['Bo']
p922
aV['Caprice']
p923
aV['Chrysler']
p924
aV['Berta']
p925
aV['Lida']
p926
aV['Elisabet']
p927
aV['Jelene']
p928
aV['Guinna']
p929
aV['Aura']
p930
aV['Henrieta']
p931
aV['Sarita']
p932
aV['Nert']
p933
aV['Wylma']
p934
aV['Eddie']
p935
aV['Starr']
p936
aV['Mia']
p937
aV['Kelsi']
p938
aV['Elane']
p939
aV['Madelle']
p940
aV['Adiana']
p941
aV['Emeline']
p942
aV['Melitta']
p943
aV['Winnie']
p944
aV['Jaine']
p945
aV['Nanette']
p946
aV['Madelin']
p947
aV['Sonja']
p948
aV['La']
p949
aV['Aleda']
p950
aV['Friederike']
p951
aV['Lotti']
p952
aV['Florencia']
p953
aV['Ninnetta']
p954
aV['Hermia']
p955
aV['Jazmin']
p956
aV['Genvieve']
p957
aV['Korney']
p958
aV['Gaynor']
p959
aV['Kathye']
p960
aV['Ulrike']
p961
aV['Heide']
p962
aV['Susie']
p963
aV['Cele']
p964
aV['Alicea']
p965
aV['Carol-Jean']
p966
aV['Ulrica']
p967
aV['Corilla']
p968
aV['Rachel']
p969
aV['Emmeline']
p970
aV['Ardeen']
p971
aV['Diahann']
p972
aV['Helaine']
p973
aV['Hanny']
p974
aV['Lauryn']
p975
aV['Selle']
p976
aV['Maybelle']
p977
aV['Heidi']
p978
aV['Maggy']
p979
aV['Colleen']
p980
aV['Elfreda']
p981
aV['Yetty']
p982
aV['Tawsha']
p983
aV['Evangelina']
p984
aV['Ericka']
p985
aV['Gladis']
p986
aV['Dorolisa']
p987
aV['Mirna']
p988
aV['Colette']
p989
aV['Rubina']
p990
aV['Shea']
p991
aV['Benetta']
p992
aV['Essy']
p993
aV['Ina']
p994
aV['Rochella']
p995
aV['Laina']
p996
aV['Leslie']
p997
aV['Elsy']
p998
aV['Brandy']
p999
aV['Hannibal']
p1000
aV['Grethel']
p1001
aV['Alice']
p1002
aV['Fanchon']
p1003
aV['Clara']
p1004
aV['Marie']
p1005
aV['Barbette']
p1006
aV['Umeko']
p1007
aV['Othella']
p1008
aV['Issi']
p1009
aV['Cissy']
p1010
aV['Sari']
p1011
aV['Ame']
p1012
aV['Georgina']
p1013
aV['Dehlia']
p1014
aV['Annamari']
p1015
aV['Marika']
p1016
aV['Ulrika']
p1017
aV['Edna']
p1018
aV['Charyl']
p1019
aV['Mattie']
p1020
aV['Leilah']
p1021
aV['Havivah']
p1022
aV['Tildie']
p1023
aV['Silva']
p1024
aV['Debra']
p1025
aV['Cassaundra']
p1026
aV['Manda']
p1027
aV['Claire']
p1028
aV['Koressa']
p1029
aV['Carry']
p1030
aV['Renate']
p1031
aV['Carli']
p1032
aV['Verna']
p1033
aV['Olia']
p1034
aV['Emanuela']
p1035
aV['Brunhilde']
p1036
aV['Janeen']
p1037
aV['Marieann']
p1038
aV['Eloisa']
p1039
aV['Margarethe']
p1040
aV['Gelya']
p1041
aV['Gen']
p1042
aV['Codi']
p1043
aV['Devin']
p1044
aV['Robinet']
p1045
aV['Carolan']
p1046
aV['Lotty']
p1047
aV['Mariann']
p1048
aV['Evvie']
p1049
aV['Cecilla']
p1050
aV['Dorie']
p1051
aV['Elsey']
p1052
aV['Tammi']
p1053
aV['Allene']
p1054
aV['Giacinta']
p1055
aV['Gianina']
p1056
aV['Kitti']
p1057
aV['Bonny']
p1058
aV['Lethia']
p1059
aV['April']
p1060
aV['Jannel']
p1061
aV['Delores']
p1062
aV['Jeannie']
p1063
aV['Antonina']
p1064
aV['Willy']
p1065
aV['Cordie']
p1066
aV['Ray']
p1067
aV['Lorelle']
p1068
aV['Dyane']
p1069
aV['Marilyn']
p1070
aV['Tracey']
p1071
aV['Delly']
p1072
aV['Anastasie']
p1073
aV['Felicle']
p1074
aV['Delia']
p1075
aV['Nelle']
p1076
aV['Daryl']
p1077
aV['Cybill']
p1078
aV['Nova']
p1079
aV['Judye']
p1080
aV['Jacquette']
p1081
aV['Terra']
p1082
aV['Ruthanne']
p1083
aV['Karla']
p1084
aV['Danna']
p1085
aV['Kissie']
p1086
aV['Camila']
p1087
aV['Roslyn']
p1088
aV['Valenka']
p1089
aV['Shir']
p1090
aV['Fleurette']
p1091
aV['Neila']
p1092
aV['Dacy']
p1093
aV['Martelle']
p1094
aV['Dedie']
p1095
aV['Bryana']
p1096
aV['Sheri']
p1097
aV['Hollie']
p1098
aV['Mitra']
p1099
aV['Erma']
p1100
aV['Krysta']
p1101
aV['Corette']
p1102
aV['Ivory']
p1103
aV['Giorgia']
p1104
aV['Irene']
p1105
aV['Lena']
p1106
aV['Sean']
p1107
aV['Feodora']
p1108
aV['Nevsa']
p1109
aV['Belva']
p1110
aV['Isabel']
p1111
aV['Marjory']
p1112
aV['Marijo']
p1113
aV['Theressa']
p1114
aV['Ruthy']
p1115
aV['Rosario']
p1116
aV['Auguste']
p1117
aV['Tessi']
p1118
aV['Elianore']
p1119
aV['Casie']
p1120
aV['Wilie']
p1121
aV['Sheryl']
p1122
aV['Maddie']
p1123
aV['Dulci']
p1124
aV['Sallie']
p1125
aV['Donia']
p1126
aV['Del']
p1127
aV['Janean']
p1128
aV['Mela']
p1129
aV['Gale']
p1130
aV['Aurilia']
p1131
aV['Lesly']
p1132
aV['Hilary']
p1133
aV['Dominica']
p1134
aV['Doralynne']
p1135
aV['Coleen']
p1136
aV['Juana']
p1137
aV['Meredith']
p1138
aV['Marillin']
p1139
aV['Fernanda']
p1140
aV['Tish']
p1141
aV['Marabel']
p1142
aV['Suzy']
p1143
aV['Tova']
p1144
aV['Juliet']
p1145
aV['Belvia']
p1146
aV['Lacie']
p1147
aV['Tessy']
p1148
aV['Sela']
p1149
aV['Gizela']
p1150
aV['Corly']
p1151
aV['Nerty']
p1152
aV['Corri']
p1153
aV['Roby']
p1154
aV['Suzanna']
p1155
aV['Linnie']
p1156
aV['Roselia']
p1157
aV['Kaylee']
p1158
aV['Torie']
p1159
aV['Trixie']
p1160
aV['Magdalena']
p1161
aV['Talya']
p1162
aV['Conny']
p1163
aV['Gerianne']
p1164
aV['Melba']
p1165
aV['Harriette']
p1166
aV['Philis']
p1167
aV['Celie']
p1168
aV['Giralda']
p1169
aV['Starlene']
p1170
aV['Ceciley']
p1171
aV['Charity']
p1172
aV['Harriot']
p1173
aV['Cabrina']
p1174
aV['Toni']
p1175
aV['Morgen']
p1176
aV['Olympe']
p1177
aV['Goldarina']
p1178
aV['Cynthea']
p1179
aV['Cathy']
p1180
aV['Federica']
p1181
aV['Mab']
p1182
aV['Trixi']
p1183
aV['Blinny']
p1184
aV['Alys']
p1185
aV['Ainslie']
p1186
aV['Ailina']
p1187
aV['Teodora']
p1188
aV['Ermentrude']
p1189
aV['Aurelia']
p1190
aV['Audi']
p1191
aV['Amy']
p1192
aV['Stacie']
p1193
aV['Denni']
p1194
aV['Emilia']
p1195
aV['Zandra']
p1196
aV['Ara']
p1197
aV['Sheeree']
p1198
aV['Dion']
p1199
aV['Nettie']
p1200
aV['Berny']
p1201
aV['Modesta']
p1202
aV['Alex']
p1203
aV['Gilligan']
p1204
aV['Esma']
p1205
aV['Seka']
p1206
aV['Idell']
p1207
aV['Kathryn']
p1208
aV['Moyna']
p1209
aV['Nady']
p1210
aV['Jandy']
p1211
aV['Leola']
p1212
aV['Ernesta']
p1213
aV['Lavena']
p1214
aV['Nana']
p1215
aV['Deeanne']
p1216
aV['Gianna']
p1217
aV['Madelaine']
p1218
aV['Harriett']
p1219
aV['Daryn']
p1220
aV['Ronnie']
p1221
aV['Vinita']
p1222
aV['Francesca']
p1223
aV['Ellissa']
p1224
aV['Billie']
p1225
aV['Neille']
p1226
aV['Gillian']
p1227
aV['Shandra']
p1228
aV['Josefina']
p1229
aV['Brena']
p1230
aV['Inez']
p1231
aV['Dolores']
p1232
aV['Lucia']
p1233
aV['Meaghan']
p1234
aV['Vivienne']
p1235
aV['Ruthie']
p1236
aV['Lucila']
p1237
aV['Florrie']
p1238
aV['Anna-Maria']
p1239
aV['Lillian']
p1240
aV['Corella']
p1241
aV['Gwenore']
p1242
aV['Lulita']
p1243
aV['Kristy']
p1244
aV['Briney']
p1245
aV['Michele']
p1246
aV['Kelcy']
p1247
aV['Ann-Mari']
p1248
aV['Murial']
p1249
aV['Milissent']
p1250
aV['Missy']
p1251
aV['Micki']
p1252
aV['Marys']
p1253
aV['Shane']
p1254
aV['Kellsie']
p1255
aV['Coralyn']
p1256
aV['Jocelin']
p1257
aV['Liorah']
p1258
aV['Lynn']
p1259
aV['Aveline']
p1260
aV['Aimil']
p1261
aV['Addie']
p1262
aV['Evie']
p1263
aV['Paulette']
p1264
aV['Elissa']
p1265
aV['Mandie']
p1266
aV['Berrie']
p1267
aV['Louisette']
p1268
aV['Anthea']
p1269
aV['Anjanette']
p1270
aV['Demeter']
p1271
aV['Stephenie']
p1272
aV['Michaeline']
p1273
aV['Aeriell']
p1274
aV['Minda']
p1275
aV['Elinore']
p1276
aV['Georgianna']
p1277
aV['Daniel']
p1278
aV['Claresta']
p1279
aV['Rosabel']
p1280
aV['Briteny']
p1281
aV['Netti']
p1282
aV['Concordia']
p1283
aV['Lory']
p1284
aV['Cherise']
p1285
aV['Myrtie']
p1286
aV['Rachele']
p1287
aV['Dorice']
p1288
aV['Marylynne']
p1289
aV['Olivette']
p1290
aV['Hanni']
p1291
aV['Dareen']
p1292
aV['Bernadine']
p1293
aV['Christean']
p1294
aV['Alyse']
p1295
aV['Oralla']
p1296
aV['Klara']
p1297
aV['Roxanne']
p1298
aV['Erina']
p1299
aV['Moira']
p1300
aV['Gloriana']
p1301
aV['Joslyn']
p1302
aV['Valentia']
p1303
aV['Prunella']
p1304
aV['Cathee']
p1305
aV['Codee']
p1306
aV['Anais']
p1307
aV['Francisca']
p1308
aV['Wrennie']
p1309
aV['Daisi']
p1310
aV['Caria']
p1311
aV['Beulah']
p1312
aV['Floris']
p1313
aV['Constanta']
p1314
aV['Edith']
p1315
aV['Marcile']
p1316
aV['Eolande']
p1317
aV['Margarita']
p1318
aV['Tarrah']
p1319
aV['Daveen']
p1320
aV['Andrei']
p1321
aV['Ethelda']
p1322
aV['Vittoria']
p1323
aV['Gigi']
p1324
aV['Eleonora']
p1325
aV['Brandice']
p1326
aV['Ernestine']
p1327
aV['Ranice']
p1328
aV['Tildy']
p1329
aV['Zonda']
p1330
aV['Marybelle']
p1331
aV['Nisa']
p1332
aV['Lolly']
p1333
aV['Luise']
p1334
aV['Dianna']
p1335
aV['Hellene']
p1336
aV['Valene']
p1337
aV['Marjorie']
p1338
aV['Jemima']
p1339
aV['Joan']
p1340
aV['Maurita']
p1341
aV['Ivie']
p1342
aV['Shirleen']
p1343
aV['Jewel']
p1344
aV['Jacklin']
p1345
aV['Queada']
p1346
aV['Almeria']
p1347
aV['Randee']
p1348
aV['Evita']
p1349
aV['Stephana']
p1350
aV['Joletta']
p1351
aV['Jannelle']
p1352
aV['Ariella']
p1353
aV['Merrile']
p1354
aV['Tani']
p1355
aV['Lisette']
p1356
aV['Cinderella']
p1357
aV['Edita']
p1358
aV['Amalle']
p1359
aV['Annnora']
p1360
aV['Romonda']
p1361
aV['Livia']
p1362
aV['Molli']
p1363
aV['Joya']
p1364
aV['Cybal']
p1365
aV['Philipa']
p1366
aV['Kaycee']
p1367
aV['Codie']
p1368
aV['Chrystal']
p1369
aV['Alethea']
p1370
aV['Lyndsey']
p1371
aV['Karna']
p1372
aV['Patti']
p1373
aV['Shani']
p1374
aV['Hermione']
p1375
aV['Roze']
p1376
aV['Cristin']
p1377
aV['Kaile']
p1378
aV['Cassandre']
p1379
aV['Ninette']
p1380
aV['Adi']
p1381
aV['Jaquenetta']
p1382
aV['Jerrilyn']
p1383
aV['Nananne']
p1384
aV['Tedra']
p1385
aV['Lynde']
p1386
aV['Agretha']
p1387
aV['Otha']
p1388
aV['Billi']
p1389
aV['Morlee']
p1390
aV['Darla']
p1391
aV['Tim']
p1392
aV['Florida']
p1393
aV['Terri']
p1394
aV['Yoshi']
p1395
aV['Kalli']
p1396
aV['Marga']
p1397
aV['Kee']
p1398
aV['Harlie']
p1399
aV['Vallie']
p1400
aV['Manon']
p1401
aV['Carmina']
p1402
aV['Roanna']
p1403
aV['Gussi']
p1404
aV['Leanne']
p1405
aV['Bethany']
p1406
aV['Kimbra']
p1407
aV['Shelia']
p1408
aV['Kathie']
p1409
aV['Kriste']
p1410
aV['Misti']
p1411
aV['Kare']
p1412
aV['Ollie']
p1413
aV['Dora']
p1414
aV['Blondelle']
p1415
aV['Kiele']
p1416
aV['Merna']
p1417
aV['Ameline']
p1418
aV['Vicky']
p1419
aV['Fina']
p1420
aV['Heddie']
p1421
aV['Lucky']
p1422
aV['Sue']
p1423
aV['Lacee']
p1424
aV['Tessie']
p1425
aV['Estel']
p1426
aV['June']
p1427
aV['Philippa']
p1428
aV['Nanice']
p1429
aV['Gillie']
p1430
aV['Consuela']
p1431
aV['Rosalie']
p1432
aV['Margarete']
p1433
aV['Leonora']
p1434
aV['Gail']
p1435
aV['Ranee']
p1436
aV['Marena']
p1437
aV['Oreste']
p1438
aV['Marion']
p1439
aV['Parwane']
p1440
aV['Dulce']
p1441
aV['Candida']
p1442
aV['Matty']
p1443
aV['Bryn']
p1444
aV['Claudette']
p1445
aV['Vida']
p1446
aV['Mame']
p1447
aV['Lissi']
p1448
aV['Atlanta']
p1449
aV['Konstanze']
p1450
aV['Felisha']
p1451
aV['Lamb']
p1452
aV['Melodee']
p1453
aV['Merla']
p1454
aV['Doloritas']
p1455
aV['Roobbie']
p1456
aV['Georgia']
p1457
aV['Tobie']
p1458
aV['Mei']
p1459
aV['Sarina']
p1460
aV['Chelsey']
p1461
aV['Inge']
p1462
aV['Pamella']
p1463
aV['Farand']
p1464
aV['Trista']
p1465
aV['Gabriellia']
p1466
aV['Mariya']
p1467
aV['Malissa']
p1468
aV['Mickie']
p1469
aV['Linda']
p1470
aV['Flora']
p1471
aV['Carroll']
p1472
aV['Nidia']
p1473
aV['Aphrodite']
p1474
aV['Josie']
p1475
aV['Appolonia']
p1476
aV['Orly']
p1477
aV['Betty']
p1478
aV['Austine']
p1479
aV['Ranna']
p1480
aV['Madelyn']
p1481
aV['Mandi']
p1482
aV['Ronda']
p1483
aV['Melany']
p1484
aV['Marianne']
p1485
aV['Marisa']
p1486
aV['Delila']
p1487
aV['Marna']
p1488
aV['Hyacinthe']
p1489
aV['Elise']
p1490
aV['Blanch']
p1491
aV['Ragnhild']
p1492
aV['Odette']
p1493
aV['Agatha']
p1494
aV['Kerianne']
p1495
aV['Madalyn']
p1496
aV['Crysta']
p1497
aV['Nanine']
p1498
aV['Paula']
p1499
aV['Michelina']
p1500
aV['Terese']
p1501
aV['Eimile']
p1502
aV['Iolanthe']
p1503
aV['Eleanora']
p1504
aV['Julieta']
p1505
aV['Tamarah']
p1506
aV['Rubia']
p1507
aV['Lee']
p1508
aV['Petronella']
p1509
aV['Bonnie']
p1510
aV['Coraline']
p1511
aV['Inesita']
p1512
aV['Gwyneth']
p1513
aV['Dyan']
p1514
aV['Peggy']
p1515
aV['Dawn']
p1516
aV['Ashley']
p1517
aV['Min']
p1518
aV['Leila']
p1519
aV['Jolee']
p1520
aV['Tamiko']
p1521
aV['Maggi']
p1522
aV['Rey']
p1523
aV['Tallia']
p1524
aV['Karry']
p1525
aV['Mildrid']
p1526
aV['Salli']
p1527
aV['Keri']
p1528
aV['Ebonee']
p1529
aV['Kara-Lynn']
p1530
aV['Caro']
p1531
aV['Adelice']
p1532
aV['Melisent']
p1533
aV['Gretal']
p1534
aV['Marie-Jeanne']
p1535
aV['Ede']
p1536
aV['Joly']
p1537
aV['Charmine']
p1538
aV['Samara']
p1539
aV['Adora']
p1540
aV['Fanchette']
p1541
aV['Theo']
p1542
aV['Cari']
p1543
aV['Christiane']
p1544
aV['Sonya']
p1545
aV['Diann']
p1546
aV['Kelley']
p1547
aV['Honoria']
p1548
aV['Valery']
p1549
aV['Shoshana']
p1550
aV['Eula']
p1551
aV['Yovonnda']
p1552
aV['Alia']
p1553
aV['Davida']
p1554
aV['Aurelea']
p1555
aV['Dela']
p1556
aV['Jojo']
p1557
aV['Luna']
p1558
aV['Ashlee']
p1559
aV['Janeva']
p1560
aV['Neely']
p1561
aV['Gertie']
p1562
aV['Allyn']
p1563
aV['Shannen']
p1564
aV['Denice']
p1565
aV['Rosemary']
p1566
aV['Emiline']
p1567
aV['Heida']
p1568
aV['Carmel']
p1569
aV['Ronna']
p1570
aV['Demetris']
p1571
aV['Lesya']
p1572
aV['Sande']
p1573
aV['Jilly']
p1574
aV['Cherye']
p1575
aV['Norene']
p1576
aV['Gay']
p1577
aV['Carmelina']
p1578
aV['Vera']
p1579
aV['Janelle']
p1580
aV['Liuka']
p1581
aV['Linea']
p1582
aV['Bryna']
p1583
aV['Britt']
p1584
aV['Henryetta']
p1585
aV['Jobi']
p1586
aV['Hali']
p1587
aV['Holli']
p1588
aV['Donna']
p1589
aV['Sandi']
p1590
aV['Hermina']
p1591
aV['Bab']
p1592
aV['Karisa']
p1593
aV['Wileen']
p1594
aV['Atalanta']
p1595
aV['Manya']
p1596
aV['Johnna']
p1597
aV['Lanni']
p1598
aV['Clare']
p1599
aV['Pepita']
p1600
aV['Dulciana']
p1601
aV['Philippe']
p1602
aV['Hedvig']
p1603
aV['Ayn']
p1604
aV['Poppy']
p1605
aV['Lira']
p1606
aV['Caressa']
p1607
aV['Chandal']
p1608
aV['Elyn']
p1609
aV['Reba']
p1610
aV['Carrissa']
p1611
aV['Reeva']
p1612
aV['Adrian']
p1613
aV['Sue-elle']
p1614
aV['Caitrin']
p1615
aV['Dorthea']
p1616
aV['Lydia']
p1617
aV['Deena']
p1618
aV['Rycca']
p1619
aV['Kynthia']
p1620
aV['Brandais']
p1621
aV['Faustina']
p1622
aV['Imelda']
p1623
aV['Adah']
p1624
aV['Dee']
p1625
aV['Shannon']
p1626
aV['Dianemarie']
p1627
aV['Jacintha']
p1628
aV['Chickie']
p1629
aV['Anthe']
p1630
aV['Marleen']
p1631
aV['Brea']
p1632
aV['Jaleh']
p1633
aV['Caroljean']
p1634
aV['Trisha']
p1635
aV['Quinta']
p1636
aV['Ursulina']
p1637
aV['Christin']
p1638
aV['Myrtle']
p1639
aV['Marcille']
p1640
aV['Cherice']
p1641
aV['Merrilee']
p1642
aV['Noelani']
p1643
aV['Sapphira']
p1644
aV['Gloriane']
p1645
aV['Norean']
p1646
aV['Lezlie']
p1647
aV['Veronique']
p1648
aV['Annalisa']
p1649
aV['Rodina']
p1650
aV['Janenna']
p1651
aV['Kira']
p1652
aV['Analise']
p1653
aV['Zarah']
p1654
aV['Dorisa']
p1655
aV['Edyth']
p1656
aV['Ashly']
p1657
aV['Melisande']
p1658
aV['Fionnula']
p1659
aV['Hannah']
p1660
aV['Xaviera']
p1661
aV['Sukey']
p1662
aV['Hailee']
p1663
aV['Lucine']
p1664
aV['Storm']
p1665
aV['Juliana']
p1666
aV['Benny']
p1667
aV['Theodora']
p1668
aV['Stefania']
p1669
aV['Secunda']
p1670
aV['Frank']
p1671
aV['Sherilyn']
p1672
aV['Berna']
p1673
aV['Rhonda']
p1674
aV['Tabbi']
p1675
aV['Vanny']
p1676
aV['Peta']
p1677
aV['Adoree']
p1678
aV['Emmalyn']
p1679
aV['Jacquetta']
p1680
aV['Katheryn']
p1681
aV['Berri']
p1682
aV['Aleece']
p1683
aV['Rafaelita']
p1684
aV['Venus']
p1685
aV['Nydia']
p1686
aV['Julianna']
p1687
aV['Jennette']
p1688
aV['Chad']
p1689
aV['Ilona']
p1690
aV['Maura']
p1691
aV['Benita']
p1692
aV['Herminia']
p1693
aV['Laure']
p1694
aV['Fenelia']
p1695
aV['Nessi']
p1696
aV['Tamarra']
p1697
aV['Matilda']
p1698
aV['Renie']
p1699
aV['Caresse']
p1700
aV['Carla']
p1701
aV['Kirbee']
p1702
aV['Elbertina']
p1703
aV['Corrinne']
p1704
aV['Pia']
p1705
aV['Maurise']
p1706
aV['Bellanca']
p1707
aV['Sabina']
p1708
aV['Lydie']
p1709
aV['Cacilia']
p1710
aV['Shelba']
p1711
aV['Odessa']
p1712
aV['Alisun']
p1713
aV['Janey']
p1714
aV['Suzie']
p1715
aV['Erminia']
p1716
aV['Ali']
p1717
aV['Tamar']
p1718
aV['Karlyn']
p1719
aV['Kalinda']
p1720
aV['Hedy']
p1721
aV['Myrilla']
p1722
aV['Fernandina']
p1723
aV['Danielle']
p1724
aV['Pierrette']
p1725
aV['Auria']
p1726
aV['Ronalda']
p1727
aV['Adina']
p1728
aV['Freddi']
p1729
aV['Rebekkah']
p1730
aV['Acacia']
p1731
aV['Kori']
p1732
aV['Lilias']
p1733
aV['Francis']
p1734
aV['Chiquita']
p1735
aV['Aigneis']
p1736
aV['Batsheva']
p1737
aV['Samaria']
p1738
aV['Arda']
p1739
aV['Kata']
p1740
aV['Bertina']
p1741
aV['Berget']
p1742
aV['Ertha']
p1743
aV['Maren']
p1744
aV['Wilona']
p1745
aV['Dania']
p1746
aV['Pier']
p1747
aV['Orsa']
p1748
aV['Elnora']
p1749
aV['Yolane']
p1750
aV['Madelina']
p1751
aV['Barrie']
p1752
aV['Clary']
p1753
aV['Margurite']
p1754
aV['Dayle']
p1755
aV['Arianne']
p1756
aV['Didi']
p1757
aV['Jenny']
p1758
aV['Grete']
p1759
aV['Willetta']
p1760
aV['Scarlet']
p1761
aV['Ilene']
p1762
aV['Jilleen']
p1763
aV['Keriann']
p1764
aV['Kirstyn']
p1765
aV['Tracee']
p1766
aV['Editha']
p1767
aV['Ferne']
p1768
aV['Mirabella']
p1769
aV['Florance']
p1770
aV['Robbie']
p1771
aV['Estrella']
p1772
aV['Shelly']
p1773
aV['Dolly']
p1774
aV['Sylvia']
p1775
aV['Jemimah']
p1776
aV['Bellina']
p1777
aV['Franny']
p1778
aV['Aloise']
p1779
aV['Gwenny']
p1780
aV['Lorain']
p1781
aV['Annabell']
p1782
aV['Deloris']
p1783
aV['Nerti']
p1784
aV['Gerianna']
p1785
aV['Elle']
p1786
aV['Joice']
p1787
aV['Myna']
p1788
aV['Alfreda']
p1789
aV['Helyn']
p1790
aV['Ladonna']
p1791
aV['Dyanna']
p1792
aV['Anita']
p1793
aV['Mable']
p1794
aV['Rafaelia']
p1795
aV['Atlante']
p1796
aV['Clerissa']
p1797
aV['Amalee']
p1798
aV['Maisey']
p1799
aV['Marya']
p1800
aV['Keelia']
p1801
aV['Frieda']
p1802
aV['Storey']
p1803
aV['Martita']
p1804
aV['Karissa']
p1805
aV['Judy']
p1806
aV['Elladine']
p1807
aV['Charmion']
p1808
aV['Sheba']
p1809
aV['Lindy']
p1810
aV['Elwina']
p1811
aV['Christabella']
p1812
aV['Iormina']
p1813
aV['Libbi']
p1814
aV['Tana']
p1815
aV['Barbie']
p1816
aV['Erda']
p1817
aV['Romy']
p1818
aV['Therine']
p1819
aV['Elisabetta']
p1820
aV['Angelika']
p1821
aV['Vikky']
p1822
aV['Daveta']
p1823
aV['Gleda']
p1824
aV['Nicolette']
p1825
aV['Lizbeth']
p1826
aV['Iona']
p1827
aV['Lucina']
p1828
aV['Coretta']
p1829
aV['Lynea']
p1830
aV['Arlie']
p1831
aV['Faye']
p1832
aV['Jori']
p1833
aV['Teddi']
p1834
aV['Kerrie']
p1835
aV['Collete']
p1836
aV['Bernardina']
p1837
aV['Annabela']
p1838
aV['Tate']
p1839
aV['Katrine']
p1840
aV['Regina']
p1841
aV['Jessamyn']
p1842
aV['Trina']
p1843
aV['Corinna']
p1844
aV['Lorettalorna']
p1845
aV['Kimberlee']
p1846
aV['Arleen']
p1847
aV['Nonnah']
p1848
aV['Adriena']
p1849
aV['Marnie']
p1850
aV['Viola']
p1851
aV['Fifine']
p1852
aV['Nora']
p1853
aV['Jayne']
p1854
aV['Sonnie']
p1855
aV['Shandee']
p1856
aV['Leta']
p1857
aV['Jacinthe']
p1858
aV['Krystalle']
p1859
aV['Joyce']
p1860
aV['Alexandra']
p1861
aV['Katusha']
p1862
aV['Sasha']
p1863
aV['Madeleine']
p1864
aV['Sibilla']
p1865
aV['Desiree']
p1866
aV['Malkah']
p1867
aV['Lucilia']
p1868
aV['Jessa']
p1869
aV['Shirline']
p1870
aV['Prue']
p1871
aV['Cleo']
p1872
aV['Rozalin']
p1873
aV['Carmelle']
p1874
aV['Nicolea']
p1875
aV['Fanni']
p1876
aV['Nara']
p1877
aV['Audre']
p1878
aV['Rubie']
p1879
aV['Alanna']
p1880
aV['Moria']
p1881
aV['Kay']
p1882
aV['Nil']
p1883
aV['Nannie']
p1884
aV['Jody']
p1885
aV['Lorianne']
p1886
aV['Heidie']
p1887
aV['Raynell']
p1888
aV['Clarissa']
p1889
aV['Raye']
p1890
aV['Janeta']
p1891
aV['Sherill']
p1892
aV['Eveleen']
p1893
aV['Georgeanne']
p1894
aV['Loralie']
p1895
aV['Julee']
p1896
aV['Eirena']
p1897
aV['Caresa']
p1898
aV['Hetty']
p1899
aV['Kris']
p1900
aV['Maureene']
p1901
aV['Lora']
p1902
aV['Chloris']
p1903
aV['Gabbey']
p1904
aV['Clementine']
p1905
aV['Winnifred']
p1906
aV['Izabel']
p1907
aV['Vikkie']
p1908
aV['Jennica']
p1909
aV['Naomi']
p1910
aV['Libbey']
p1911
aV['Midge']
p1912
aV['Oralle']
p1913
aV['Reeta']
p1914
aV['Babara']
p1915
aV['Joela']
p1916
aV['Jeraldine']
p1917
aV['Gaylene']
p1918
aV['Valida']
p1919
aV['Esmaria']
p1920
aV['Donella']
p1921
aV['Amandy']
p1922
aV['Josy']
p1923
aV['Danny']
p1924
aV['Row']
p1925
aV['Aurore']
p1926
aV['Cecile']
p1927
aV['Amie']
p1928
aV['Oona']
p1929
aV['Dena']
p1930
aV['Madalena']
p1931
aV['Rosella']
p1932
aV['Rory']
p1933
aV['Flori']
p1934
aV['Eleonore']
p1935
aV['Gipsy']
p1936
aV['Elli']
p1937
aV['Jenica']
p1938
aV['Violette']
p1939
aV['Valaree']
p1940
aV['Joey']
p1941
aV['Evanne']
p1942
aV['Melinde']
p1943
aV['Lucinda']
p1944
aV['Jodie']
p1945
aV['Tamma']
p1946
aV['Malka']
p1947
aV['Catina']
p1948
aV['Joelly']
p1949
aV['Adrienne']
p1950
aV['Verla']
p1951
aV['Gabriel']
p1952
aV['Quentin']
p1953
aV['Roch']
p1954
aV['Tomasine']
p1955
aV['Agnes']
p1956
aV['Donni']
p1957
aV['Eleni']
p1958
aV['Bell']
p1959
aV['Vikki']
p1960
aV['Carlie']
p1961
aV['Margie']
p1962
aV['Ethelind']
p1963
aV['Mimi']
p1964
aV['Alleen']
p1965
aV['Shauna']
p1966
aV['Mindy']
p1967
aV['Cyndy']
p1968
aV['Kellie']
p1969
aV['Masha']
p1970
aV['Asia']
p1971
aV['Eveline']
p1972
aV['Katine']
p1973
aV['Jenine']
p1974
aV['Jill']
p1975
aV['Margaret']
p1976
aV['Charita']
p1977
aV['Adena']
p1978
aV['Lottie']
p1979
aV['Ninnette']
p1980
aV['Sophey']
p1981
aV['Hanna']
p1982
aV['Charisse']
p1983
aV['Marcia']
p1984
aV['Abigael']
p1985
aV['Katey']
p1986
aV['Rana']
p1987
aV['Alexandrina']
p1988
aV['Piper']
p1989
aV['Cassandra']
p1990
aV['Emmye']
p1991
aV['Pippa']
p1992
aV['Cathrin']
p1993
aV['Ardis']
p1994
aV['Rozina']
p1995
aV['Jaquenette']
p1996
aV['Legra']
p1997
aV['Fay']
p1998
aV['Aileen']
p1999
aV['Carlita']
p2000
aV['Pavia']
p2001
aV['Risa']
p2002
aV['Verina']
p2003
aV['Ailene']
p2004
aV['Corie']
p2005
aV['Catha']
p2006
aV['Perri']
p2007
aV['Florice']
p2008
aV['Jeanette']
p2009
aV['Mmarianne']
p2010
aV['Aurel']
p2011
aV['Glorianna']
p2012
aV['Xylina']
p2013
aV['Octavia']
p2014
aV['Analiese']
p2015
aV['Judith']
p2016
aV['Berenice']
p2017
aV['Jeri']
p2018
aV['Mira']
p2019
aV['Cindie']
p2020
aV['Carmine']
p2021
aV['Nicoline']
p2022
aV['Tonia']
p2023
aV['Katerina']
p2024
aV['Edwina']
p2025
aV['Giana']
p2026
aV['Sidonia']
p2027
aV['Aile']
p2028
aV['Jane']
p2029
aV['Megan']
p2030
aV['Junia']
p2031
aV['Madeline']
p2032
aV['Licha']
p2033
aV['Aidan']
p2034
aV['Lilli']
p2035
aV['Dorena']
p2036
aV['Betteanne']
p2037
aV['Dusty']
p2038
aV['Ericha']
p2039
aV['Kendra']
p2040
aV['Rosa']
p2041
aV['Jennee']
p2042
aV['Amelina']
p2043
aV['Ajay']
p2044
aV['Neala']
p2045
aV['Kaitlynn']
p2046
aV['Halimeda']
p2047
aV['Agace']
p2048
aV['Alecia']
p2049
aV['Kamilah']
p2050
aV['Angelle']
p2051
aV['Viole']
p2052
aV['Kirsti']
p2053
aV['Ada']
p2054
aV['Kora']
p2055
aV['Norri']
p2056
aV['Danyette']
p2057
aV['Candide']
p2058
aV['Odelia']
p2059
aV['Jeannette']
p2060
aV['Katalin']
p2061
aV['Jeanne']
p2062
aV['Aime']
p2063
aV['Lorene']
p2064
aV['Charmian']
p2065
aV['Gretel']
p2066
aV['Ardith']
p2067
aV['Alli']
p2068
aV['Joy']
p2069
aV['Cheslie']
p2070
aV['Valeda']
p2071
aV['Alica']
p2072
aV['Conney']
p2073
aV['Emelina']
p2074
aV['Enrica']
p2075
aV['Rozele']
p2076
aV['Debby']
p2077
aV['Brier']
p2078
aV['Samuela']
p2079
aV['Janka']
p2080
aV['Ettie']
p2081
aV['Roseanne']
p2082
aV['Inga']
p2083
aV['Jena']
p2084
aV['Bridgette']
p2085
aV['Edin']
p2086
aV['Katuscha']
p2087
aV['Netty']
p2088
aV['Gilberta']
p2089
aV['Cariotta']
p2090
aV['Malva']
p2091
aV['Astrix']
p2092
aV['Allie']
p2093
aV['Kiri']
p2094
aV['Merola']
p2095
aV['Gabrila']
p2096
aV['Agnola']
p2097
aV['Randi']
p2098
aV['Lorine']
p2099
aV['Glynda']
p2100
aV['Karil']
p2101
aV['Mariska']
p2102
aV['Betsy']
p2103
aV['Alison']
p2104
aV['Latia']
p2105
aV['Cinnamon']
p2106
aV['Margaretha']
p2107
aV['Calley']
p2108
aV['Ibbie']
p2109
aV['Sabra']
p2110
aV['Ralina']
p2111
aV['Micheline']
p2112
aV['Alessandra']
p2113
aV['Perla']
p2114
aV['Cassey']
p2115
aV['Raf']
p2116
aV['Hyacinthia']
p2117
aV['Eadith']
p2118
aV['Dell']
p2119
aV['Kiah']
p2120
aV['Beret']
p2121
aV['Rosita']
p2122
aV['Silvana']
p2123
aV['Rosalyn']
p2124
aV['Frannie']
p2125
aV['Franky']
p2126
aV['Illa']
p2127
aV['Dian']
p2128
aV['Bess']
p2129
aV['Leora']
p2130
aV['Irina']
p2131
aV['Brandi']
p2132
aV['Doe']
p2133
aV['Kathrine']
p2134
aV['Lorna']
p2135
aV['Flower']
p2136
aV['Ola']
p2137
aV['Latisha']
p2138
aV['Harrie']
p2139
aV['Janice']
p2140
aV['Stephi']
p2141
aV['Kara']
p2142
aV['Ketty']
p2143
aV['Kaila']
p2144
aV['Kirsteni']
p2145
aV['Edi']
p2146
aV['Gayla']
p2147
aV['Demetria']
p2148
aV['Christiana']
p2149
aV['Stepha']
p2150
aV['Helga']
p2151
aV['Roselin']
p2152
aV['Rosene']
p2153
aV['Ingeborg']
p2154
aV['Kissee']
p2155
aV['Thomasine']
p2156
aV['Julienne']
p2157
aV['Eddi']
p2158
aV['Dalia']
p2159
aV['Carly']
p2160
aV['Gratiana']
p2161
aV['Onlea']
p2162
aV['Jillane']
p2163
aV['Odille']
p2164
aV['Francesmary']
p2165
aV['Nedi']
p2166
aV['Alyson']
p2167
aV['Meggi']
p2168
aV['Alfie']
p2169
aV['Ariadne']
p2170
aV['Gwendolin']
p2171
aV['Betta']
p2172
aV['Micaela']
p2173
aV['Blondell']
p2174
aV['Kristine']
p2175
aV['Lavina']
p2176
aV['Amelie']
p2177
aV['Toby']
p2178
aV['Elie']
p2179
aV['Lyndel']
p2180
aV['Brittney']
p2181
aV['Margalo']
p2182
aV['Merlina']
p2183
aV['Chloe']
p2184
aV['Augusta']
p2185
aV['Gretchen']
p2186
aV['Zorana']
p2187
aV['Kia']
p2188
aV['Pen']
p2189
aV['Danell']
p2190
aV['Margi']
p2191
aV['Rubi']
p2192
aV['Merle']
p2193
aV['Renel']
p2194
aV['Aili']
p2195
aV['Daffie']
p2196
aV['Elsi']
p2197
aV['Glennis']
p2198
aV['Canada']
p2199
aV['Gisela']
p2200
aV['Bettye']
p2201
aV['Monica']
p2202
aV['Marla']
p2203
aV['Floria']
p2204
aV['Janella']
p2205
aV['Anja']
p2206
aV['Melissa']
p2207
aV['Stacia']
p2208
aV['Joleen']
p2209
aV['Brandise']
p2210
aV['Rea']
p2211
aV['Emelyne']
p2212
aV['Malynda']
p2213
aV['Phillida']
p2214
aV['Farrand']
p2215
aV['Milena']
p2216
aV['Else']
p2217
aV['Josselyn']
p2218
aV['Kittie']
p2219
aV['Keslie']
p2220
aV['Love']
p2221
aV['Constantine']
p2222
aV['Avril']
p2223
aV['Freddie']
p2224
aV['Belinda']
p2225
aV['Dulcine']
p2226
aV['Gladys']
p2227
aV['Tine']
p2228
aV['Kalie']
p2229
aV['Kacie']
p2230
aV['Angy']
p2231
aV['Eulalie']
p2232
aV['Kassia']
p2233
aV['Elana']
p2234
aV['Denys']
p2235
aV['Shaylah']
p2236
aV['Carlotta']
p2237
aV['Elyse']
p2238
aV['Gerhardine']
p2239
aV['Crystie']
p2240
aV['Nerta']
p2241
aV['Glenna']
p2242
aV['Randene']
p2243
aV['Clementia']
p2244
aV['Stormie']
p2245
aV['Amity']
p2246
aV['Corine']
p2247
aV['Elizabeth']
p2248
aV['Bree']
p2249
aV['Arabele']
p2250
aV['Mamie']
p2251
aV['Theodosia']
p2252
aV['Aubrie']
p2253
aV['Chicky']
p2254
aV['Kerri']
p2255
aV['Gweneth']
p2256
aV['Leoline']
p2257
aV['Gaby']
p2258
aV['Riva']
p2259
aV['Dyna']
p2260
aV['Klarrisa']
p2261
aV['Joellyn']
p2262
aV['Trescha']
p2263
aV['Maude']
p2264
aV['Nissie']
p2265
aV['Krissy']
p2266
aV['Lauraine']
p2267
aV['Larissa']
p2268
aV['Ammamaria']
p2269
aV['Guendolen']
p2270
aV['Oriana']
p2271
aV['Georgine']
p2272
aV['Jaquith']
p2273
aV['Sherye']
p2274
aV['Pooh']
p2275
aV['Morna']
p2276
aV['Eve']
p2277
aV['Hildy']
p2278
aV['Shelbi']
p2279
aV['Larine']
p2280
aV['Lynnet']
p2281
aV['Dea']
p2282
aV['Vi']
p2283
aV['Prudi']
p2284
aV['Corry']
p2285
aV['Celine']
p2286
aV['Nan']
p2287
aV['Margot']
p2288
aV['Sisile']
p2289
aV['Lane']
p2290
aV['Madlen']
p2291
aV['Enrika']
p2292
aV['Sula']
p2293
aV['Marissa']
p2294
aV['Oralee']
p2295
aV['Evvy']
p2296
aV['Chryste']
p2297
aV['Alexi']
p2298
aV['Kit']
p2299
aV['Marcellina']
p2300
aV['Etti']
p2301
aV['Daniela']
p2302
aV['Lise']
p2303
aV['Ilsa']
p2304
aV['Gayleen']
p2305
aV['Jordan']
p2306
aV['Magdalen']
p2307
aV['Luciana']
p2308
aV['Sena']
p2309
aV['Talia']
p2310
aV['Kariotta']
p2311
aV['Donica']
p2312
aV['Marlyn']
p2313
aV['Pamela']
p2314
aV['Ronni']
p2315
aV['Candy']
p2316
aV['Dorothee']
p2317
aV['Evelyn']
p2318
aV['Cecilia']
p2319
aV['Angeline']
p2320
aV['Marry']
p2321
aV['Audy']
p2322
aV['Idelle']
p2323
aV['Ruthann']
p2324
aV['Suzanne']
p2325
aV['Loise']
p2326
aV['Lindsay']
p2327
aV['Waneta']
p2328
aV['Cacilie']
p2329
aV['Ophelie']
p2330
aV['Lorilee']
p2331
aV['Donielle']
p2332
aV['Mayda']
p2333
aV['Savina']
p2334
aV['Mag']
p2335
aV['Roxy']
p2336
aV['Alane']
p2337
aV['Leesa']
p2338
aV['Melita']
p2339
aV['Renae']
p2340
aV['Aurie']
p2341
aV['Daisey']
p2342
aV['Angil']
p2343
aV['Phillis']
p2344
aV['Franciska']
p2345
aV['Consolata']
p2346
aV['Kirby']
p2347
aV['Merralee']
p2348
aV['Helge']
p2349
aV['Mavis']
p2350
aV['Layla']
p2351
aV['Marrissa']
p2352
aV['Jobye']
p2353
aV['Charmaine']
p2354
aV['Astra']
p2355
aV['Petronille']
p2356
aV['Sharity']
p2357
aV['Greta']
p2358
aV['Dolli']
p2359
aV['Lorita']
p2360
aV['Fiona']
p2361
aV['Felipa']
p2362
aV['Bertine']
p2363
aV['Ruella']
p2364
aV['Ardyth']
p2365
aV['Opaline']
p2366
aV['Britney']
p2367
aV['Andromeda']
p2368
aV['Dorry']
p2369
aV['Vanya']
p2370
aV['Silvia']
p2371
aV['Kristyn']
p2372
aV['Fey']
p2373
aV['Toma']
p2374
aV['Corrine']
p2375
aV['Philippine']
p2376
aV['Constance']
p2377
aV['Eva']
p2378
aV['Philly']
p2379
aV['Annmaria']
p2380
aV['Tella']
p2381
aV['Celestyn']
p2382
aV['Dara']
p2383
aV['Clarinda']
p2384
aV['Sharla']
p2385
aV['Minta']
p2386
aV['Kathlin']
p2387
aV['Tomi']
p2388
aV['Holley']
p2389
aV['Haley']
p2390
aV['Britni']
p2391
aV['Sofie']
p2392
aV['Harli']
p2393
aV['Danika']
p2394
aV['Tommie']
p2395
aV['Lori']
p2396
aV['Estelle']
p2397
aV['Brigitte']
p2398
aV['Lynelle']
p2399
aV['Tabbatha']
p2400
aV['Dove']
p2401
aV['TeresaAnne']
p2402
aV['Bonni']
p2403
aV['Delilah']
p2404
aV['Stormi']
p2405
aV['Ingunna']
p2406
aV['Latrina']
p2407
aV['Cherish']
p2408
aV['Felecia']
p2409
aV['Nola']
p2410
aV['Debee']
p2411
aV['Maryanne']
p2412
aV['Kelci']
p2413
aV['Winny']
p2414
aV['Taryn']
p2415
aV['Sarette']
p2416
aV['Sissie']
p2417
aV['Karleen']
p2418
aV['Ianthe']
p2419
aV['Melony']
p2420
aV['Georgiana']
p2421
aV['Lilian']
p2422
aV['Lonee']
p2423
aV['Audie']
p2424
aV['Revkah']
p2425
aV['Nataline']
p2426
aV['Zorina']
p2427
aV['Yolande']
p2428
aV['Filippa']
p2429
aV['Hildegarde']
p2430
aV['Jackelyn']
p2431
aV['Beatriz']
p2432
aV['Amara']
p2433
aV['Rhianon']
p2434
aV['Kaitlyn']
p2435
aV['Juditha']
p2436
aV['Lenee']
p2437
aV['Saba']
p2438
aV['Sarene']
p2439
aV['Kayla']
p2440
aV['Roxine']
p2441
aV['Carmelia']
p2442
aV['Cathi']
p2443
aV['Bridget']
p2444
aV['Inna']
p2445
aV['Diena']
p2446
aV['Jenna']
p2447
aV['Janette']
p2448
aV['Celisse']
p2449
aV['Jessika']
p2450
aV['Jillayne']
p2451
aV['Herta']
p2452
aV['Opalina']
p2453
aV['Robinette']
p2454
aV['Freda']
p2455
aV['Josephine']
p2456
aV['Robbin']
p2457
aV['Marti']
p2458
aV['Jinny']
p2459
aV['Lucienne']
p2460
aV['Mora']
p2461
aV['Grayce']
p2462
aV['Pearl']
p2463
aV['Darbie']
p2464
aV['Mallissa']
p2465
aV['Adella']
p2466
aV['Danella']
p2467
aV['Lindsy']
p2468
aV['Mellissa']
p2469
aV['Bobbette']
p2470
aV['Darelle']
p2471
aV['Susanetta']
p2472
aV['Amberly']
p2473
aV['Deane']
p2474
aV['Virgina']
p2475
aV['Audra']
p2476
aV['Arlyne']
p2477
aV['Zorah']
p2478
aV['Cordy']
p2479
aV['Sharyl']
p2480
aV['Ursula']
p2481
aV['Valera']
p2482
aV['Anne-Marie']
p2483
aV['Collie']
p2484
aV['Addis']
p2485
aV['Renelle']
p2486
aV['Louise']
p2487
aV['Leonore']
p2488
aV['Celene']
p2489
aV['Bethena']
p2490
aV['Roseline']
p2491
aV['Bea']
p2492
aV['Cameo']
p2493
aV['Lizette']
p2494
aV['Lou']
p2495
aV['Sosanna']
p2496
aV['Merry']
p2497
aV['Cindra']
p2498
aV['Miquela']
p2499
aV['Dari']
p2500
aV['Jordain']
p2501
aV['Norrie']
p2502
aV['Dorree']
p2503
aV['Roanne']
p2504
aV['Clea']
p2505
aV['Vickie']
p2506
aV['Loria']
p2507
aV['Frayda']
p2508
aV['Katrinka']
p2509
aV['Charline']
p2510
aV['Tommy']
p2511
aV['Emogene']
p2512
aV['Kristen']
p2513
aV['Jade']
p2514
aV['Mignon']
p2515
aV['Natalee']
p2516
aV['Mariam']
p2517
aV['Nariko']
p2518
aV['Blaire']
p2519
aV['Melli']
p2520
aV['Ileana']
p2521
aV['Sandra']
p2522
aV['Debbra']
p2523
aV['Loren']
p2524
aV['Dulcie']
p2525
aV['Marcella']
p2526
aV['Birgit']
p2527
aV['Arabela']
p2528
aV['Stella']
p2529
aV['Doti']
p2530
aV['Mallorie']
p2531
aV['Lebbie']
p2532
aV['Zulema']
p2533
aV['Lillis']
p2534
aV['Gisella']
p2535
aV['Katheleen']
p2536
aV['Polly']
p2537
aV['Janith']
p2538
aV['Silvie']
p2539
aV['Adriaens']
p2540
aV['Kristel']
p2541
aV['Ambrosia']
p2542
aV['Genna']
p2543
aV['Cordelia']
p2544
aV['Donelle']
p2545
aV['Lavinie']
p2546
aV['Catherine']
p2547
aV['Gus']
p2548
aV['Bobette']
p2549
aV['Page']
p2550
aV['Carolie']
p2551
aV['Lisa']
p2552
aV['Catlee']
p2553
aV['Selina']
p2554
aV['Pris']
p2555
aV['Marin']
p2556
aV['Carlota']
p2557
aV['Susy']
p2558
aV['Andrea']
p2559
aV['Larina']
p2560
aV['Teane']
p2561
aV['Winne']
p2562
aV['Barbe']
p2563
aV['Jennilee']
p2564
aV['Meggan']
p2565
aV['Beverly']
p2566
aV['Kaye']
p2567
aV['Ethel']
p2568
aV['Stevena']
p2569
aV['Delphina']
p2570
aV['Othilie']
p2571
aV['Auroora']
p2572
aV['Leeanne']
p2573
aV['Rozalie']
p2574
aV['Amanda']
p2575
aV['Sinead']
p2576
aV['Fabrice']
p2577
aV['Jolene']
p2578
aV['Delcine']
p2579
aV['Glenine']
p2580
aV['Joelie']
p2581
aV['Darb']
p2582
aV['Laurianne']
p2583
aV['Tandy']
p2584
aV['Gwen']
p2585
aV['Bianka']
p2586
aV['Marne']
p2587
aV['Anastassia']
p2588
aV['Moll']
p2589
aV['Lilyan']
p2590
aV['Sidoney']
p2591
aV['Roz']
p2592
aV['Lauree']
p2593
aV['Elicia']
p2594
aV['Gwenneth']
p2595
aV['Robinia']
p2596
aV['Willamina']
p2597
aV['Dyanne']
p2598
aV['Arlyn']
p2599
aV['Elora']
p2600
aV['Rowe']
p2601
aV['Karena']
p2602
aV['Karylin']
p2603
aV['Damaris']
p2604
aV['Mallory']
p2605
aV['Mercedes']
p2606
aV['Maridel']
p2607
aV['Gwennie']
p2608
aV['Tawnya']
p2609
aV['Kally']
p2610
aV['Beckie']
p2611
aV['Melina']
p2612
aV['Dulcinea']
p2613
aV['Pat']
p2614
aV['Verine']
p2615
aV['Quintilla']
p2616
aV['Eda']
p2617
aV['Honey']
p2618
aV['Goldie']
p2619
aV['Torey']
p2620
aV['Emelita']
p2621
aV['Elwira']
p2622
aV['Casey']
p2623
aV['Jackqueline']
p2624
aV['Xenia']
p2625
aV['Raphaela']
p2626
aV['Melinda']
p2627
aV['Nell']
p2628
aV['Cathe']
p2629
aV['Rosanne']
p2630
aV['Carol']
p2631
aV['Stephani']
p2632
aV['Petronilla']
p2633
aV['Blinnie']
p2634
aV['Bessie']
p2635
aV['Sarine']
p2636
aV['Kath']
p2637
aV['Anabel']
p2638
aV['Aila']
p2639
aV['Bendite']
p2640
aV['Letitia']
p2641
aV['Ilyssa']
p2642
aV['Auberta']
p2643
aV['Joscelin']
p2644
aV['Catie']
p2645
aV['Paolina']
p2646
aV['Christen']
p2647
aV['Loni']
p2648
aV['Katerine']
p2649
aV['Deedee']
p2650
aV['Mairead']
p2651
aV['Barbabra']
p2652
aV['Paulie']
p2653
aV['Joycelin']
p2654
aV['Joli']
p2655
aV['Christy']
p2656
aV['Reeba']
p2657
aV['Rhetta']
p2658
aV['Gilberte']
p2659
aV['Penelope']
p2660
aV['Moina']
p2661
aV['Bobinette']
p2662
aV['Lucie']
p2663
aV['Idaline']
p2664
aV['Bessy']
p2665
aV['Jere']
p2666
aV['Farra']
p2667
aV['Carmela']
p2668
aV['Sonny']
p2669
aV['Pauline']
p2670
aV['Roxane']
p2671
aV['Kalina']
p2672
aV['Kore']
p2673
aV['Fara']
p2674
aV['Dasha']
p2675
aV['Emalia']
p2676
aV['Sharron']
p2677
aV['Fred']
p2678
aV['Sacha']
p2679
aV['Abigale']
p2680
aV['Sophie']
p2681
aV['Jeanna']
p2682
aV['Carrol']
p2683
aV['Lisetta']
p2684
aV['Vernice']
p2685
aV['Ruby']
p2686
aV['Geraldine']
p2687
aV['Denny']
p2688
aV['Rebe']
p2689
aV['Anestassia']
p2690
aV['Christel']
p2691
aV['Betti']
p2692
aV['Cynthie']
p2693
aV['Cordey']
p2694
aV['Korie']
p2695
aV['Nadia']
p2696
aV['Sybila']
p2697
aV['Solange']
p2698
aV['Helene']
p2699
aV['Doralin']
p2700
aV['Oliy']
p2701
aV['Ellyn']
p2702
aV['Shaine']
p2703
aV['Jacqui']
p2704
aV['Christian']
p2705
aV['Stoddard']
p2706
aV['Martica']
p2707
aV['Alisha']
p2708
aV['Jonie']
p2709
aV['Gerri']
p2710
aV['Maryanna']
p2711
aV['Marthena']
p2712
aV['Cat']
p2713
aV['Carree']
p2714
aV['Carlen']
p2715
aV['Aleecia']
p2716
aV['Candice']
p2717
aV['Vinni']
p2718
aV['Morganne']
p2719
aV['Andria']
p2720
aV['Tilly']
p2721
aV['Lelia']
p2722
aV['Noelle']
p2723
aV['Andriana']
p2724
aV['Maxi']
p2725
aV['Gert']
p2726
aV['Monika']
p2727
aV['Abbey']
p2728
aV['Gerladina']
p2729
aV['Odella']
p2730
aV['Marj']
p2731
aV['Audrie']
p2732
aV['Loraine']
p2733
aV['Roseanna']
p2734
aV['Ranique']
p2735
aV['Emelia']
p2736
aV['Athene']
p2737
aV['Catherin']
p2738
aV['Stephie']
p2739
aV['Stesha']
p2740
aV['Gracie']
p2741
aV['Rhodia']
p2742
aV['Cherlyn']
p2743
aV['Merrily']
p2744
aV['Shilpa']
p2745
aV['Nancie']
p2746
aV['Lorinda']
p2747
aV['Kimberli']
p2748
aV['Lela']
p2749
aV['Sheelah']
p2750
aV['Lynett']
p2751
aV['Farrah']
p2752
aV['Kinna']
p2753
aV['Gita']
p2754
aV['Euphemia']
p2755
aV['Beth']
p2756
aV['Ginny']
p2757
aV['Zelda']
p2758
aV['Thomasin']
p2759
aV['Prudence']
p2760
aV['Dorrie']
p2761
aV['Garland']
p2762
aV['Theresa-Marie']
p2763
aV['Sheril']
p2764
aV['Juliane']
p2765
aV['Allys']
p2766
aV['Holly']
p2767
aV['Christi']
p2768
aV['Aeriel']
p2769
aV['Nalani']
p2770
aV['Corrina']
p2771
aV['Bette-Ann']
p2772
aV['Marlane']
p2773
aV['Sarajane']
p2774
aV['Lacey']
p2775
aV['Joella']
p2776
aV['Marta']
p2777
aV['Raychel']
p2778
aV['Deny']
p2779
aV['Brande']
p2780
aV['Georgie']
p2781
aV['Birgitta']
p2782
aV['Gwenette']
p2783
aV['Myrah']
p2784
aV['Georgeanna']
p2785
aV['Gratia']
p2786
aV['Buffy']
p2787
aV['Junie']
p2788
aV['Sheela']
p2789
aV['Gusti']
p2790
aV['Tamera']
p2791
aV['Loleta']
p2792
aV['Amelia']
p2793
aV['Tyne']
p2794
aV['Wandis']
p2795
aV['Dolora']
p2796
aV['Roxana']
p2797
aV['Janis']
p2798
aV['Flor']
p2799
aV['Devon']
p2800
aV['Leandra']
p2801
aV['Minette']
p2802
aV['Ariela']
p2803
aV['Flo']
p2804
aV['Selma']
p2805
aV['Cybelle']
p2806
aV['Mariana']
p2807
aV['Jenni']
p2808
aV['Marlo']
p2809
aV['Fleur']
p2810
aV['Paulina']
p2811
aV['Benedetta']
p2812
aV['Faydra']
p2813
aV['Agna']
p2814
aV['Erena']
p2815
aV['Pet']
p2816
aV['Jess']
p2817
aV['Nicole']
p2818
aV['Jorry']
p2819
aV['Zarla']
p2820
aV['Una']
p2821
aV['Cherri']
p2822
aV['Kaia']
p2823
aV['Brunhilda']
p2824
aV['Constantina']
p2825
aV['Gwendolyn']
p2826
aV['Cathie']
p2827
aV['Carena']
p2828
aV['Lanny']
p2829
aV['Pacifica']
p2830
aV['Emmalee']
p2831
aV['Charlean']
p2832
aV['Channa']
p2833
aV['Cindelyn']
p2834
aV['Adey']
p2835
aV['Isadora']
p2836
aV['Dynah']
p2837
aV['Britaney']
p2838
aV['Bonnee']
p2839
aV['Jessamine']
p2840
aV['Jessalyn']
p2841
aV['Katti']
p2842
aV['Elisa']
p2843
aV['Gladi']
p2844
aV['Fanechka']
p2845
aV['Hermine']
p2846
aV['Charil']
p2847
aV['Judie']
p2848
aV['Christyna']
p2849
aV['Daisy']
p2850
aV['Clarie']
p2851
aV['Jeniffer']
p2852
aV['Querida']
p2853
aV['Francyne']
p2854
aV['Arleyne']
p2855
aV['Karina']
p2856
aV['Chiarra']
p2857
aV['Ardelia']
p2858
aV['Amabel']
p2859
aV['Tamra']
p2860
aV['Cristal']
p2861
aV['Lib']
p2862
aV['Breena']
p2863
aV['Melamie']
p2864
aV['Maure']
p2865
aV['Glad']
p2866
aV['Lenette']
p2867
aV['Julianne']
p2868
aV['Julissa']
p2869
aV['Noellyn']
p2870
aV['Odelinda']
p2871
aV['Laverne']
p2872
aV['Henriette']
p2873
aV['Cherida']
p2874
aV['Brigit']
p2875
aV['Annabel']
p2876
aV['Sonia']
p2877
aV['Shamit']
p2878
aV['Blanca']
p2879
aV['Tiffany']
p2880
aV['Morena']
p2881
aV['Phoebe']
p2882
aV['Shelli']
p2883
aV['Mella']
p2884
aV['Megen']
p2885
aV['Geneva']
p2886
aV['Alexa']
p2887
aV['Sharona']
p2888
aV['Lorenza']
p2889
aV['Hilde']
p2890
aV['Prudy']
p2891
aV['Constantia']
p2892
aV['Nerita']
p2893
aV['Bamby']
p2894
aV['Tess']
p2895
aV['Jany']
p2896
aV['Lenora']
p2897
aV['Eliza']
p2898
aV['Lynnelle']
p2899
aV['Olivie']
p2900
aV['Tonya']
p2901
aV['Veronica']
p2902
aV['Nerte']
p2903
aV['Meghan']
p2904
aV['Faith']
p2905
aV['Wandie']
p2906
aV['Lyssa']
p2907
aV['Leigha']
p2908
aV['Rani']
p2909
aV['Sophronia']
p2910
aV['Julita']
p2911
aV['Pietra']
p2912
aV['Tabby']
p2913
aV['Danila']
p2914
aV['Lorraine']
p2915
aV['Jaime']
p2916
aV['Shanda']
p2917
aV['Beverlie']
p2918
aV['Annaliese']
p2919
aV['Kellen']
p2920
aV['Lesley']
p2921
aV['Trish']
p2922
aV['Fran']
p2923
aV['Vicki']
p2924
aV['Elvina']
p2925
aV['Angelina']
p2926
aV['Mignonne']
p2927
aV['Melisa']
p2928
aV['Ester']
p2929
aV['Sella']
p2930
aV['Barry']
p2931
aV['Charo']
p2932
aV['Shela']
p2933
aV['Zaria']
p2934
aV['Susana']
p2935
aV['Jacquelynn']
p2936
aV['Celina']
p2937
aV['Anette']
p2938
aV['Hana']
p2939
aV['Millie']
p2940
aV['Othilia']
p2941
aV['Marielle']
p2942
aV['Jen']
p2943
aV['Kaja']
p2944
aV['Brit']
p2945
aV['Cristi']
p2946
aV['George']
p2947
aV['Sandy']
p2948
aV['Sibeal']
p2949
aV['Shalna']
p2950
aV['Deloria']
p2951
aV['Genevra']
p2952
aV['Allyson']
p2953
aV['Traci']
p2954
aV['Rivy']
p2955
aV['Misha']
p2956
aV['Wenda']
p2957
aV['Clareta']
p2958
aV['Olwen']
p2959
aV['Stacee']
p2960
aV['Ursa']
p2961
aV['Phebe']
p2962
aV['Janaya']
p2963
aV['Tomiko']
p2964
aV['Lynsey']
p2965
aV['Davita']
p2966
aV['Sybil']
p2967
aV['Laura']
p2968
aV['Donnajean']
p2969
aV['Rayna']
p2970
aV['Marni']
p2971
aV['Juanita']
p2972
aV['Kai']
p2973
aV['Dale']
p2974
aV['Eleanor']
p2975
aV['Sisely']
p2976
aV['Milzie']
p2977
aV['Patricia']
p2978
aV['Kirbie']
p2979
aV['Agnesse']
p2980
aV['Serene']
p2981
aV['Mair']
p2982
aV['Marilee']
p2983
aV['Tabina']
p2984
aV['Elfrida']
p2985
aV['Erinn']
p2986
aV['Emilie']
p2987
aV['Lorrayne']
p2988
aV['Samantha']
p2989
aV['Marnia']
p2990
aV['Leeann']
p2991
aV['Willabella']
p2992
aV['Shirl']
p2993
aV['Aurelie']
p2994
aV['Genni']
p2995
aV['Nolana']
p2996
aV['Simona']
p2997
aV['Janie']
p2998
aV['Etta']
p2999
aV['Anjela']
p3000
aV['Clemence']
p3001
aV['Avrit']
p3002
aV['Nelly']
p3003
aV['Marchelle']
p3004
aV['Concettina']
p3005
aV['Irma']
p3006
aV['Blake']
p3007
aV['Jenette']
p3008
aV['Dorthy']
p3009
aV['Sybyl']
p3010
aV['Fifi']
p3011
aV['Ermina']
p3012
aV['Fabrianne']
p3013
aV['Linnet']
p3014
aV['Trudie']
p3015
aV['Bridgett']
p3016
aV['Doria']
p3017
aV['Annmarie']
p3018
aV['Rorie']
p3019
aV['Arline']
p3020
aV['Annalena']
p3021
aV['Desirae']
p3022
aV['Trixy']
p3023
aV['Jerrie']
p3024
aV['Miran']
p3025
aV['Kelsy']
p3026
aV['Angelique']
p3027
aV['Elysee']
p3028
aV['Dagmar']
p3029
aV['Deerdre']
p3030
aV['Sibylle']
p3031
aV['Barbee']
p3032
aV['Roberta']
p3033
aV['Karalee']
p3034
aV['Othelia']
p3035
aV['Alpa']
p3036
aV['Carlina']
p3037
aV['Nadean']
p3038
aV['Alejandrina']
p3039
aV['Justin']
p3040
aV['Laurella']
p3041
aV['Natalia']
p3042
aV['Rivi']
p3043
aV['Kizzee']
p3044
aV['Liana']
p3045
aV['Natala']
p3046
aV['Mona']
p3047
aV['Grace']
p3048
aV['Blondie']
p3049
aV['Neile']
p3050
aV['Twyla']
p3051
aV['Brigitta']
p3052
aV['Estell']
p3053
aV['Drea']
p3054
aV['Lettie']
p3055
aV['Anica']
p3056
aV['Myrta']
p3057
aV['Arlene']
p3058
aV['Jeane']
p3059
aV['Clo']
p3060
aV['Marris']
p3061
aV['Lianne']
p3062
aV['Becka']
p3063
aV['Jodi']
p3064
aV['Lorie']
p3065
aV['Karen']
p3066
aV['Elbertine']
p3067
aV['Mufi']
p3068
aV['Danni']
p3069
aV['Isahella']
p3070
aV['Anya']
p3071
aV['Shina']
p3072
aV['Dorelia']
p3073
aV['Jodee']
p3074
aV['Vena']
p3075
aV['Kippie']
p3076
aV['Ernaline']
p3077
aV['Janetta']
p3078
aV['Ramona']
p3079
aV['Charissa']
p3080
aV['Jo-Ann']
p3081
aV['Guglielma']
p3082
aV['Bobine']
p3083
aV['Deana']
p3084
aV['Teriann']
p3085
aV['Danelle']
p3086
aV['Louisa']
p3087
aV['Fanny']
p3088
aV['Josi']
p3089
aV['Hilda']
p3090
aV['Josephina']
p3091
aV['Dido']
p3092
aV['Lotta']
p3093
aV['Birdie']
p3094
aV['Fredelia']
p3095
aV['Tasha']
p3096
aV['Doroteya']
p3097
aV['Deva']
p3098
aV['Deina']
p3099
aV['Gypsy']
p3100
aV['Rozella']
p3101
aV['Merilee']
p3102
aV['Maressa']
p3103
aV['Abbi']
p3104
aV['Alidia']
p3105
aV['Carmella']
p3106
aV['Kerrin']
p3107
aV['Ealasaid']
p3108
aV['Tiffi']
p3109
aV['Anstice']
p3110
aV['Erna']
p3111
aV['Dacie']
p3112
aV['Petra']
p3113
aV['Laurice']
p3114
aV['Dannye']
p3115
aV['Hephzibah']
p3116
aV['Ofelia']
p3117
aV['Laurel']
p3118
aV['Nadiya']
p3119
aV['Marina']
p3120
aV['Lynnell']
p3121
aV['Carlye']
p3122
aV['Wilma']
p3123
aV['Marlie']
p3124
aV['Karrie']
p3125
aV['Tiana']
p3126
aV['Joyan']
p3127
aV['Briana']
p3128
aV['Jaclin']
p3129
aV['Tresa']
p3130
aV['Joannes']
p3131
aV['Joelynn']
p3132
aV['Cynthy']
p3133
aV['Jyoti']
p3134
aV['Eilis']
p3135
aV['Kelli']
p3136
aV['Florinda']
p3137
aV['Rochette']
p3138
aV['Katlin']
p3139
aV['Davina']
p3140
aV['Vanessa']
p3141
aV['Reggie']
p3142
aV['Ciel']
p3143
aV['Ileane']
p3144
aV['Carma']
p3145
aV['Dew']
p3146
aV['Cissie']
p3147
aV['Rahal']
p3148
aV['Kania']
p3149
aV['Glenn']
p3150
aV['Sib']
p3151
aV['Leland']
p3152
aV['Michell']
p3153
aV['Ellene']
p3154
aV['Mollie']
p3155
aV['Lauralee']
p3156
aV['Lura']
p3157
aV['Jenda']
p3158
aV['Carrie']
p3159
aV['Bethanne']
p3160
aV['Tasia']
p3161
aV['Tatum']
p3162
aV['Catherina']
p3163
aV['Carey']
p3164
aV['Nance']
p3165
aV['Ashli']
p3166
aV['Yalonda']
p3167
aV['Sibley']
p3168
aV['Carilyn']
p3169
aV['Edeline']
p3170
aV['Jourdan']
p3171
aV['Ashleigh']
p3172
aV['Karmen']
p3173
aV['Dafna']
p3174
aV['Joann']
p3175
aV['Miranda']
p3176
aV['Truda']
p3177
aV['Trudi']
p3178
aV['Georgette']
p3179
aV['Elfrieda']
p3180
aV['Adelind']
p3181
aV['Barbi']
p3182
aV['Cal']
p3183
aV['Geeta']
p3184
aV['Nina']
p3185
aV['Eunice']
p3186
aV['Penny']
p3187
aV['Colline']
p3188
aV['Winna']
p3189
aV['Giovanna']
p3190
aV['Lotte']
p3191
aV['Tierney']
p3192
aV['Selestina']
p3193
aV['Edee']
p3194
aV['Jonis']
p3195
aV['Pennie']
p3196
aV['Ginger']
p3197
aV['Wynnie']
p3198
aV['Georgiamay']
p3199
aV['Jenn']
p3200
aV['Miriam']
p3201
aV['Cristabel']
p3202
aV['Libby']
p3203
aV['Rachelle']
p3204
aV['Jeanie']
p3205
aV['Linet']
p3206
aV['Ethyl']
p3207
aV['Clarisse']
p3208
aV['Gerrilee']
p3209
aV['Beatrisa']
p3210
aV['Annalyse']
p3211
aV['Clementina']
p3212
aV['Sylvie']
p3213
aV['Hattie']
p3214
aV['Joanne']
p3215
aV['Estrellita']
p3216
aV['Lurlene']
p3217
aV['Garnet']
p3218
aV['Diane-Marie']
p3219
aV['Sashenka']
p3220
aV['Ilysa']
p3221
aV['Elvira']
p3222
aV['Laraine']
p3223
aV['Georgeta']
p3224
aV['Uta']
p3225
aV['Britta']
p3226
aV['Evey']
p3227
aV['Dolorita']
p3228
aV['Magna']
p3229
aV['Daphne']
p3230
aV['Jeralee']
p3231
aV['Marylinda']
p3232
aV['Ramonda']
p3233
aV['Brenn']
p3234
aV['Kalindi']
p3235
aV['Ricki']
p3236
aV['Trula']
p3237
aV['Katina']
p3238
aV['Malorie']
p3239
aV['Nessy']
p3240
aV['Zabrina']
p3241
aV['Anet']
p3242
aV['Odetta']
p3243
aV['Tobe']
p3244
aV['Elena']
p3245
aV['Pansie']
p3246
aV['Carmelita']
p3247
aV['Peg']
p3248
aV['Terry']
p3249
aV['Koral']
p3250
aV['Morgan']
p3251
aV['Florri']
p3252
aV['Nicholle']
p3253
aV['Mari']
p3254
aV['Marlena']
p3255
aV['Leticia']
p3256
aV['Rhea']
p3257
aV['Janna']
p3258
aV['Minnie']
p3259
aV['Emlyn']
p3260
aV['Ketti']
p3261
aV['Bekki']
p3262
aV['Lilly']
p3263
aV['Melisse']
p3264
aV['Myrna']
p3265
aV['Emili']
p3266
aV['Annamarie']
p3267
aV['Marjy']
p3268
aV['Sandye']
p3269
aV['Juliann']
p3270
aV['Rosette']
p3271
aV['Jillian']
p3272
aV['Trudy']
p3273
aV['Delora']
p3274
aV['Chloette']
p3275
aV['Carleen']
p3276
aV['Rosmunda']
p3277
aV['Rebeka']
p3278
aV['Amandi']
p3279
aV['Rozie']
p3280
aV['Nelia']
p3281
aV['Harlene']
p3282
aV['Rosaleen']
p3283
aV['Eddy']
p3284
aV['Galina']
p3285
aV['Idalina']
p3286
aV['Mercy']
p3287
aV['Katherine']
p3288
aV['Lea']
p3289
aV['Camille']
p3290
aV['Gray']
p3291
aV['Lacy']
p3292
aV['Abbe']
p3293
aV['Chelsea']
p3294
aV['Leigh']
p3295
aV['Paulita']
p3296
aV['Marsiella']
p3297
aV['Cresa']
p3298
aV['Carin']
p3299
aV["E'Lane"]
p3300
aV['Teresa']
p3301
aV['Seline']
p3302
aV['Lust']
p3303
aV['Delinda']
p3304
aV['Ally']
p3305
aV['Trix']
p3306
aV['Paola']
p3307
aV['Max']
p3308
aV['Hally']
p3309
aV['Margaretta']
p3310
aV['Norine']
p3311
aV['Drew']
p3312
aV['Cecily']
p3313
aV['Fortuna']
p3314
aV['Clair']
p3315
aV['Nanon']
p3316
aV['Elene']
p3317
aV['Nellie']
p3318
aV['Ki']
p3319
aV['Isabeau']
p3320
aV['Isabelita']
p3321
aV['Lucille']
p3322
aV['Margarette']
p3323
aV['Edy']
p3324
aV['Franni']
p3325
aV['Aurea']
p3326
aV['Anneliese']
p3327
aV['Jolynn']
p3328
aV['Ferdinanda']
p3329
aV['Audry']
p3330
aV['Fulvia']
p3331
aV['Leah']
p3332
aV['May']
p3333
aV['Joane']
p3334
aV['Krystal']
p3335
aV['Eada']
p3336
aV['Theada']
p3337
aV['Catriona']
p3338
aV['Paloma']
p3339
aV['Doll']
p3340
aV['Lynette']
p3341
aV['Hulda']
p3342
aV['Hayley']
p3343
aV['Constancia']
p3344
aV['Cherie']
p3345
aV['Noella']
p3346
aV['Danice']
p3347
aV['Thia']
p3348
aV['Hatti']
p3349
aV['Vonny']
p3350
aV['Harriet']
p3351
aV['Daffi']
p3352
aV['Melonie']
p3353
aV['Holly-Anne']
p3354
aV['Gina']
p3355
aV['Rianon']
p3356
aV['Sharon']
p3357
aV['Maryjo']
p3358
aV['Shaina']
p3359
aV['Brynn']
p3360
aV['Pammi']
p3361
aV['Celinka']
p3362
aV['Ted']
p3363
aV['Madge']
p3364
aV['Correy']
p3365
aV['Alejandra']
p3366
aV['Adrea']
p3367
aV['Keren']
p3368
aV['Wilone']
p3369
aV['Jana']
p3370
aV['Genovera']
p3371
aV['Cassi']
p3372
aV['Fiann']
p3373
aV['Gracia']
p3374
aV['Ermengarde']
p3375
aV['Natty']
p3376
aV['Laurette']
p3377
aV['Olivia']
p3378
aV['Felicity']
p3379
aV['Fannie']
p3380
aV['Alma']
p3381
aV['Kenna']
p3382
aV['Becca']
p3383
aV['Ariel']
p3384
aV['Madonna']
p3385
aV['Renell']
p3386
aV['Sibelle']
p3387
aV['Griselda']
p3388
aV['Carole']
p3389
aV['Bernadene']
p3390
aV['Ema']
p3391
aV['Leodora']
p3392
aV['Brynne']
p3393
aV['Amalia']
p3394
aV['Andi']
p3395
aV['Betteann']
p3396
aV['Brandea']
p3397
aV['Vivianne']
p3398
aV['Karia']
p3399
aV['Gwenn']
p3400
aV['Andy']
p3401
aV['Robina']
p3402
aV['Jobey']
p3403
aV['Averyl']
p3404
aV['Cathleen']
p3405
aV['Joelle']
p3406
aV['Katinka']
p3407
aV['Penni']
p3408
aV['Yehudit']
p3409
aV['Vilhelmina']
p3410
aV['Cornelle']
p3411
aV['Jewell']
p3412
aV['Daria']
p3413
aV['Cosetta']
p3414
aV['Morgana']
p3415
aV['Dyann']
p3416
aV['Imogene']
p3417
aV['Zelma']
p3418
aV['Audrye']
p3419
aV['Gussie']
p3420
aV['Crissie']
p3421
aV['Darleen']
p3422
aV['Ebba']
p3423
aV['Celestine']
p3424
aV['Lindie']
p3425
aV['Miguela']
p3426
aV['Angele']
p3427
aV['Charin']
p3428
aV['Hertha']
p3429
aV['Jessica']
p3430
aV['Nani']
p3431
aV['Mavra']
p3432
aV['Leontyne']
p3433
aV['Nike']
p3434
aV['Stephanie']
p3435
aV['Nertie']
p3436
aV['Rozamond']
p3437
aV['Lanette']
p3438
aV['Tamara']
p3439
aV['Lolande']
p3440
aV['Celle']
p3441
aV['Candi']
p3442
aV['Lorrin']
p3443
aV['Ottilie']
p3444
aV['Lanna']
p3445
aV['Avis']
p3446
aV['Suzan']
p3447
aV['Ange']
p3448
aV['Jorey']
p3449
aV['Ursuline']
p3450
aV['Aggi']
p3451
aV['Cyb']
p3452
aV['Cammi']
p3453
aV['Kimberlyn']
p3454
aV['Morissa']
p3455
aV['Mersey']
p3456
aV['Helli']
p3457
aV['Aviva']
p3458
aV['Kristien']
p3459
aV['Maribeth']
p3460
aV['Lauri']
p3461
aV['Isadore']
p3462
aV['Olly']
p3463
aV['Annalise']
p3464
aV['Ronnica']
p3465
aV['Tiphanie']
p3466
aV['Estella']
p3467
aV['Cindy']
p3468
aV['Astrid']
p3469
aV['Merline']
p3470
aV['Laney']
p3471
aV['Sorcha']
p3472
aV['Maud']
p3473
aV['Ruthe']
p3474
aV['Dina']
p3475
aV['Marilin']
p3476
aV['Deonne']
p3477
aV['Faythe']
p3478
aV['Shoshie']
p3479
aV['Rebeca']
p3480
aV['Alyss']
p3481
aV['Kerry']
p3482
aV['Ree']
p3483
aV['Janot']
p3484
aV['Alysia']
p3485
aV['Theresita']
p3486
aV['Genevieve']
p3487
aV['Avie']
p3488
aV['Michaela']
p3489
aV['Letty']
p3490
aV['Ike']
p3491
aV['Dottie']
p3492
aV['Phyllys']
p3493
aV['Josey']
p3494
aV['Cloe']
p3495
aV['Tiertza']
p3496
aV['Dorri']
p3497
aV['Evonne']
p3498
aV['Halie']
p3499
aV['Rhoda']
p3500
aV['Johanna']
p3501
aV['Calida']
p3502
aV['Brett']
p3503
aV['Saudra']
p3504
aV['Ulla']
p3505
aV['Conchita']
p3506
aV['Gerrie']
p3507
aV['Paula-Grace']
p3508
aV['Rona']
p3509
aV['Tiffy']
p3510
aV['Jehanna']
p3511
aV['Marleah']
p3512
aV['Giselle']
p3513
aV['Susette']
p3514
aV['Kandace']
p3515
aV['Mina']
p3516
aV['Dalila']
p3517
aV['Aina']
p3518
aV['Rochelle']
p3519
aV['Pattie']
p3520
aV['Lenore']
p3521
aV['Glory']
p3522
aV['Jemie']
p3523
aV['Becki']
p3524
aV['Lisbeth']
p3525
aV['Gena']
p3526
aV['Gerda']
p3527
aV['Chrystel']
p3528
aV['Bert']
p3529
aV['Nona']
p3530
aV['Moyra']
p3531
aV['Clarabelle']
p3532
aV['Haily']
p3533
aV['Esmeralda']
p3534
aV['Rodie']
p3535
aV['Mel']
p3536
aV['Tessa']
p3537
aV['Isabella']
p3538
aV['Eolanda']
p3539
aV['Mareah']
p3540
aV['Blakelee']
p3541
aV['Halley']
p3542
aV['Goldia']
p3543
aV['Roxi']
p3544
aV['Dionne']
p3545
aV['Desiri']
p3546
aV['Michelle']
p3547
aV['Zena']
p3548
aV['Crystal']
p3549
aV['Marjie']
p3550
aV['Nicolina']
p3551
aV['Milicent']
p3552
aV['Danya']
p3553
aV['Gertruda']
p3554
aV['Kendre']
p3555
aV['Aubry']
p3556
aV['Arleta']
p3557
aV['Raina']
p3558
aV['Cori']
p3559
aV['Petunia']
p3560
aV['Susanna']
p3561
aV['Shawnee']
p3562
aV['Emmie']
p3563
aV['Vanni']
p3564
aV['Ros']
p3565
aV['Valina']
p3566
aV['Bren']
p3567
aV['Rayshell']
p3568
aV['Meriel']
p3569
aV['Andra']
p3570
aV['Barbara-Anne']
p3571
aV['Marja']
p3572
aV['Cilka']
p3573
aV['Kassie']
p3574
aV['Jonell']
p3575
aV['Leese']
p3576
aV['Lucy']
p3577
aV['Gillan']
p3578
aV['Golda']
p3579
aV['Cristina']
p3580
aV['Nessie']
p3581
aV['Ines']
p3582
aV['Hildegaard']
p3583
aV['Jasmine']
p3584
aV['Janaye']
p3585
aV['Pippy']
p3586
aV['Bee']
p3587
aV['Olva']
p3588
aV['Bobbi']
p3589
aV['Margit']
p3590
aV['Natasha']
p3591
aV['Charlena']
p3592
aV['Timi']
p3593
aV['Aeriela']
p3594
aV['Beau']
p3595
aV['Perry']
p3596
aV['Annabella']
p3597
aV['Cathlene']
p3598
aV['Chantalle']
p3599
aV['Teresina']
p3600
aV['Tommi']
p3601
aV['Alena']
p3602
aV['Elly']
p3603
aV['Guenna']
p3604
aV['Naoma']
p3605
aV['Petrina']
p3606
aV['Ailey']
p3607
aV['Vivyanne']
p3608
aV['Rica']
p3609
aV['Blakeley']
p3610
aV['Diana']
p3611
aV['Peri']
p3612
aV['Kippy']
p3613
aV['Reina']
p3614
aV['Phaidra']
p3615
aV['Bridie']
p3616
aV['Elyssa']
p3617
aV['Brana']
p3618
aV['Glyn']
p3619
aV['Nanny']
p3620
aV['Kiersten']
p3621
aV['Cybel']
p3622
aV['Colly']
p3623
aV['Cortney']
p3624
aV['Hildagarde']
p3625
aV['Janifer']
p3626
aV['Irita']
p3627
aV['Rosalynd']
p3628
aV['Tisha']
p3629
aV['Lavinia']
p3630
aV['Roshelle']
p3631
aV['Linell']
p3632
aV['Isa']
p3633
aV['Darsie']
p3634
aV['Felicia']
p3635
aV['Dione']
p3636
aV['Lil']
p3637
aV['Odele']
p3638
aV['Scotty']
p3639
aV['Arlina']
p3640
aV['Dulsea']
p3641
aV['Marget']
p3642
aV['Iseabal']
p3643
aV['Merilyn']
p3644
aV['Myranda']
p3645
aV['Allis']
p3646
aV['Rebekah']
p3647
aV['Nata']
p3648
aV['Rivkah']
p3649
aV['Sher']
p3650
aV['Noami']
p3651
aV['Valentina']
p3652
aV['Nikki']
p3653
aV['Tressa']
p3654
aV['Lorilyn']
p3655
aV['Ginevra']
p3656
aV['Dorothea']
p3657
aV['Vanna']
p3658
aV['Tracy']
p3659
aV['Evy']
p3660
aV['Susanne']
p3661
aV['Liane']
p3662
aV['Valeria']
p3663
aV['Nedda']
p3664
aV['Kellyann']
p3665
aV['Lilah']
p3666
aV['Etty']
p3667
aV['Kettie']
p3668
aV['Coriss']
p3669
aV['Colene']
p3670
aV['Freida']
p3671
aV['Shantee']
p3672
aV['Heddi']
p3673
aV['Kaster']
p3674
aV['Rennie']
p3675
aV['Sheila']
p3676
aV['Nathalie']
p3677
aV['Chris']
p3678
aV['Adorne']
p3679
aV['Lilas']
p3680
aV['Suzann']
p3681
aV['Milly']
p3682
aV['Vina']
p3683
aV['Joceline']
p3684
aV['Opal']
p3685
aV['Jeana']
p3686
aV['Filia']
p3687
aV['Lianna']
p3688
aV['Lorne']
p3689
aV['Ethelin']
p3690
aV['Natalya']
p3691
aV['Maiga']
p3692
aV['Cordula']
p3693
aV['Iris']
p3694
aV['Bobina']
p3695
aV['Kali']
p3696
aV['Brigida']
p3697
aV['Elayne']
p3698
aV['Winnah']
p3699
aV['Nessa']
p3700
aV['Evangelin']
p3701
aV['Elvera']
p3702
aV['Lynnette']
p3703
aV['Melanie']
p3704
aV['Layne']
p3705
aV['Bella']
p3706
aV['Tedi']
p3707
aV['Marty']
p3708
aV['Fallon']
p3709
aV['Rene']
p3710
aV['Enid']
p3711
aV['Chery']
p3712
aV['Sunny']
p3713
aV['Eustacia']
p3714
aV['Lita']
p3715
aV['Shanta']
p3716
aV['Marylou']
p3717
aV['Jennie']
p3718
aV['Veronika']
p3719
aV['Loreen']
p3720
aV['Edie']
p3721
aV['Tandi']
p3722
aV['Elnore']
p3723
aV['Rowena']
p3724
aV['Coralie']
p3725
aV['Phaedra']
p3726
aV['Isis']
p3727
aV['Ilise']
p3728
aV['Martie']
p3729
aV['Gael']
p3730
aV['Karel']
p3731
aV['Ag']
p3732
aV['Gene']
p3733
aV['Sile']
p3734
aV['Andriette']
p3735
aV['Brook']
p3736
aV['Kayle']
p3737
aV['Dacia']
p3738
aV['Jeanine']
p3739
aV['Patrice']
p3740
aV['Joanie']
p3741
aV['Rosanna']
p3742
aV['Maisie']
p3743
aV['Tiena']
p3744
aV['Muriel']
p3745
aV['Brandie']
p3746
aV['Lia']
p3747
aV['Mildred']
p3748
aV['Olimpia']
p3749
aV['Heath']
p3750
aV['Cathryn']
p3751
aV['Lyndell']
p3752
aV['Anni']
p3753
aV['Roseann']
p3754
aV['Myrtia']
p3755
aV['Tersina']
p3756
aV['Anna-Diana']
p3757
aV['Susi']
p3758
aV['Carolin']
p3759
aV['Netta']
p3760
aV['Robinett']
p3761
aV['Damita']
p3762
aV['Ava']
p3763
aV['Carlisle']
p3764
aV['Hortensia']
p3765
aV['Blythe']
p3766
aV['Alicia']
p3767
aV['Sayre']
p3768
aV['Dot']
p3769
aV['Karly']
p3770
aV['Corena']
p3771
aV['Sandie']
p3772
aV['Teena']
p3773
aV['Torrie']
p3774
aV['Bernete']
p3775
aV['Ivonne']
p3776
aV['Emmy']
p3777
aV['Jacinda']
p3778
aV['Sherline']
p3779
aV['Dorotea']
p3780
aV['Margret']
p3781
aV['Kessiah']
p3782
aV['Daloris']
p3783
aV['Victoria']
p3784
aV['Jaquelin']
p3785
aV['Miguelita']
p3786
aV['Gabi']
p3787
aV['Kellia']
p3788
aV['Karlen']
p3789
aV['Latashia']
p3790
aV['Dix']
p3791
aV['Rasia']
p3792
aV['Kathe']
p3793
aV['Lelah']
p3794
aV['Devonne']
p3795
aV['Viki']
p3796
aV['Daune']
p3797
aV['Meira']
p3798
aV['Cappella']
p3799
aV['Nichole']
p3800
aV['Monah']
p3801
aV['Pierette']
p3802
aV['Catharina']
p3803
aV['Mirilla']
p3804
aV['Sileas']
p3805
aV['Valry']
p3806
aV['Rodi']
p3807
aV['Glenda']
p3808
aV['JoAnne']
p3809
aV['Fredrika']
p3810
aV['Noelyn']
p3811
aV['Devi']
p3812
aV['Elinor']
p3813
aV['Jessy']
p3814
aV['Chelsae']
p3815
aV['Evaleen']
p3816
aV['Lara']
p3817
aV['Viviana']
p3818
aV['Myriam']
p3819
aV['Larisa']
p3820
aV['Keely']
p3821
aV['Rosalinde']
p3822
aV['Mariejeanne']
p3823
aV['Henrie']
p3824
aV['Shana']
p3825
aV['Marley']
p3826
aV['Kate']
p3827
aV['Barb']
p3828
aV['Lynda']
p3829
aV['Thomasina']
p3830
aV['Maxie']
p3831
aV['Gwynne']
p3832
aV['Nancey']
p3833
aV['Cornie']
p3834
aV['Shanie']
p3835
aV['Daphna']
p3836
aV['Vinnie']
p3837
aV['Luanna']
p3838
aV['Marquita']
p3839
aV['Steffie']
p3840
aV['Darcee']
p3841
aV['Cornela']
p3842
aV['Ginni']
p3843
aV['Ingaborg']
p3844
aV['Clarette']
p3845
aV['Shanna']
p3846
aV['Caty']
p3847
aV['Starla']
p3848
aV['Cristie']
p3849
aV['Gustie']
p3850
aV['Marji']
p3851
aV['Bernadette']
p3852
aV['Virginie']
p3853
aV['Jesse']
p3854
aV['Brianna']
p3855
aV['Meagan']
p3856
aV['Clem']
p3857
aV['Ediva']
p3858
aV['Melisandra']
p3859
aV['Zenia']
p3860
aV['Dulcia']
p3861
aV['Correna']
p3862
aV['Karlie']
p3863
aV['Merridie']
p3864
aV['Leiah']
p3865
aV['Phylys']
p3866
aV['Lenka']
p3867
aV['Malory']
p3868
aV['Maire']
p3869
aV['Babette']
p3870
aV['Issie']
p3871
aV['Stephine']
p3872
aV['Ansley']
p3873
aV['Devondra']
p3874
aV['Belia']
p3875
aV['Beatrix']
p3876
aV['Ronica']
p3877
aV['Dionis']
p3878
aV['Bernelle']
p3879
aV['Doro']
p3880
aV['Tammie']
p3881
aV['Frances']
p3882
aV['Etheline']
p3883
aV['Tanya']
p3884
aV['Gabriell']
p3885
aV['Saraann']
p3886
aV['Ethelyn']
p3887
aV['Bertie']
p3888
aV['Inessa']
p3889
aV['Gabey']
p3890
aV['Christalle']
p3891
aV['Joye']
p3892
aV['Adara']
p3893
aV['Kass']
p3894
aV['Maya']
p3895
aV['Emmaline']
p3896
aV['Thomasa']
p3897
aV['Goldina']
p3898
aV['Carolee']
p3899
aV['Karyl']
p3900
aV['Elenore']
p3901
aV['Sallyanne']
p3902
aV['Merrili']
p3903
aV['Arlee']
p3904
aV['Rosetta']
p3905
aV['Verile']
p3906
aV['Rozanne']
p3907
aV['Chastity']
p3908
aV['Marje']
p3909
aV['Shayna']
p3910
aV['Allison']
p3911
aV['Melania']
p3912
aV['Cynthia']
p3913
aV['Willow']
p3914
aV['Stafani']
p3915
aV['Wini']
p3916
aV['Corliss']
p3917
aV['Leoine']
p3918
aV['Alla']
p3919
aV['Tobi']
p3920
aV['Rochell']
p3921
aV['Xylia']
p3922
aV['Leda']
p3923
aV['Daisie']
p3924
aV['Connie']
p3925
aV['Tally']
p3926
aV['Gretna']
p3927
aV['Suellen']
p3928
aV['Minny']
p3929
aV['Gilbertina']
p3930
aV['Brietta']
p3931
aV['Jacquie']
p3932
aV['Corabelle']
p3933
aV['Katherina']
p3934
aV['Kial']
p3935
aV['Bobbie']
p3936
aV['Stormy']
p3937
aV['Siana']
p3938
aV['Tammara']
p3939
aV['Deni']
p3940
aV['Delcina']
p3941
aV['Aggie']
p3942
aV['Harriott']
p3943
aV['Jillana']
p3944
aV['Fortune']
p3945
aV['Lyndy']
p3946
aV['Virginia']
p3947
aV['Lorrie']
p3948
aV['Robenia']
p3949
aV['Florentia']
p3950
aV['Debbie']
p3951
aV['Marit']
p3952
aV['Corey']
p3953
aV['Shirlee']
p3954
aV['Modestia']
p3955
aV['Wendie']
p3956
aV['Joana']
p3957
aV['Eydie']
p3958
aV['Jenilee']
p3959
aV['Rhodie']
p3960
aV['Carlynn']
p3961
aV['Ana']
p3962
aV['Caril']
p3963
aV['Tomasina']
p3964
aV['Vitia']
p3965
aV['Adele']
p3966
aV['Reyna']
p3967
aV['Mabel']
p3968
aV['Celestyna']
p3969
aV['Ainsley']
p3970
aV['Alvera']
p3971
aV['Shira']
p3972
aV['Em']
p3973
aV['Danica']
p3974
aV['Farah']
p3975
aV['Lola']
p3976
aV['Hazel']
p3977
aV['Binni']
p3978
aV['Anitra']
p3979
aV['Robby']
p3980
aV['Zsa', 'Zsa']
p3981
aV['Mariquilla']
p3982
aV['Henrietta']
p3983
aV['Tobye']
p3984
aV['Van']
p3985
aV['Mara']
p3986
aV['Florina']
p3987
aV['Johnette']
p3988
aV['Philomena']
p3989
aV['Ingaberg']
p3990
aV['Zoe']
p3991
aV['Lauretta']
p3992
aV['Elmira']
p3993
aV['Deanne']
p3994
aV['Robena']
p3995
aV['Tonie']
p3996
aV['Tybi']
p3997
aV['Annecorinne']
p3998
aV['Latrena']
p3999
aV['Katy']
p4000
aV['Brenda']
p4001
aV['Florenza']
p4002
aV['Elisha']
p4003
aV['Margalit']
p4004
aV['Helsa']
p4005
aV['Rhody']
p4006
aV['Jocelyne']
p4007
aV['Zuzana']
p4008
aV['Clarita']
p4009
aV['Heather']
p4010
aV['Dorelle']
p4011
aV['Brynna']
p4012
aV['Amalie']
p4013
aV['Guillemette']
p4014
aV['Carolyne']
p4015
aV['Gwendolen']
p4016
aV['Vanda']
p4017
aV['Eudora']
p4018
aV['Rora']
p4019
aV['Leanora']
p4020
aV['Renee']
p4021
aV['Laryssa']
p4022
aV['Luella']
p4023
aV['Florella']
p4024
aV['Rosana']
p4025
aV['Shellie']
p4026
aV['Annissa']
p4027
aV['Mirabel']
p4028
aV['Doralynn']
p4029
aV['Julie']
p4030
aV['Imogen']
p4031
aV['Cosette']
p4032
aV['Cam']
p4033
aV['Lilla']
p4034
aV['Elisabeth']
p4035
aV['Alexia']
p4036
aV['Alyda']
p4037
aV['Nonah']
p4038
aV['Deborah']
p4039
aV['Roxie']
p4040
aV['Claudine']
p4041
aV['Priscella']
p4042
aV['Jennifer']
p4043
aV['Tabbie']
p4044
aV['Martha']
p4045
aV['Hannie']
p4046
aV['Guenevere']
p4047
aV['Kelly']
p4048
aV['Cora']
p4049
aV['Nadya']
p4050
aV['Andee']
p4051
aV['Elsie']
p4052
aV['Kip']
p4053
aV['Sibbie']
p4054
aV['Milka']
p4055
aV['Chriss']
p4056
aV['Ilka']
p4057
aV['Sharai']
p4058
aV['Heda']
p4059
aV['Reiko']
p4060
aV['Zitella']
p4061
aV['Tybie']
p4062
aV['Albina']
p4063
aV['Kylen']
p4064
aV['Evette']
p4065
aV['Trace']
p4066
aV['Fern']
p4067
aV['Aimee']
p4068
aV['Shalne']
p4069
aV['Nicola']
p4070
aV['Paule']
p4071
aV['Trude']
p4072
aV['Serena']
p4073
aV['Lenna']
p4074
aV['Gilli']
p4075
aV['Timmi']
p4076
aV['Agnella']
p4077
aV['Almira']
p4078
aV['Camala']
p4079
aV['Sharline']
p4080
aV['Celestina']
p4081
aV['Bethina']
p4082
aV['Geri']
p4083
aV['Wenona']
p4084
aV['Reine']
p4085
aV['Gabriella']
p4086
aV['Jackie']
p4087
aV['Courtenay']
p4088
aV['Rafaela']
p4089
aV['Charlotte']
p4090
aV['Berti']
p4091
aV['Koo']
p4092
aV['Louella']
p4093
aV['Leela']
p4094
aV['Biddy']
p4095
aV['Sarah']
p4096
aV['Marylee']
p4097
aV['Bunny']
p4098
aV['Jeniece']
p4099
aV['Kathleen']
p4100
aV['Willyt']
p4101
aV['Justina']
p4102
aV['Carine']
p4103
aV['Maxy']
p4104
aV['Cherry']
p4105
aV['Fiorenze']
p4106
aV['Darell']
p4107
aV['Ebony']
p4108
aV['Debera']
p4109
aV['Ellen']
p4110
aV['Corny']
p4111
aV['Rosamond']
p4112
aV['Nicoli']
p4113
aV['Madella']
p4114
aV['Sharra']
p4115
aV['Camellia']
p4116
aV['Kaari']
p4117
aV['Fancy']
p4118
aV['Nanni']
p4119
aV['Grazia']
p4120
aV['Ardys']
p4121
aV['Nissa']
p4122
aV['Mechelle']
p4123
aV['Pearla']
p4124
aV['Mariel']
p4125
aV['Bernetta']
p4126
aV['Hester']
p4127
aV['Mureil']
p4128
aV['Jackquelin']
p4129
aV['Ailee']
p4130
aV['Orel']
p4131
aV['Adelle']
p4132
aV['Monique']
p4133
aV['Shayne']
p4134
aV['Sydney']
p4135
aV['Idalia']
p4136
aV['Tiffani']
p4137
aV['Mellisent']
p4138
aV['Leonie']
p4139
aV['Ferdinande']
p4140
aV['Leorah']
p4141
aV['Carline']
p4142
aV['Jamima']
p4143
aV['Roxanna']
p4144
aV['Bill']
p4145
aV['Cookie']
p4146
aV['Ortensia']
p4147
aV['Cinda']
p4148
aV['Wynne']
p4149
aV['Dahlia']
p4150
aV['JoAnn']
p4151
aV['Maurene']
p4152
aV['Kristina']
p4153
aV['Gavrielle']
p4154
aV['Anatola']
p4155
aV['Amalita']
p4156
aV['Tatiana']
p4157
aV['Corissa']
p4158
aV['Farica']
p4159
aV['Celinda']
p4160
aV['Hortense']
p4161
aV['Ira']
p4162
aV['Liora']
p4163
aV['Matelda']
p4164
aV['Marci']
p4165
aV['Nicky']
p4166
aV['Ainslee']
p4167
aV['Catrina']
p4168
aV['Abagael']
p4169
aV['Ula']
p4170
aV['Binnie']
p4171
aV['Nolie']
p4172
aV['Elspeth']
p4173
aV['Sascha']
p4174
aV['Shoshanna']
p4175
aV['Austin']
p4176
aV['Maia']
p4177
aV['Rosalinda']
p4178
aV['Barbara']
p4179
aV['Melisenda']
p4180
aV['Lisabeth']
p4181
aV['Melosa']
p4182
aV['Claudie']
p4183
aV['Constancy']
p4184
aV['Norina']
p4185
aV['Karine']
p4186
aV['Christie']
p4187
aV['Coreen']
p4188
aV['Elsa']
p4189
aV['Rosemarie']
p4190
aV['Aloisia']
p4191
aV['Nanete']
p4192
aV['Carmita']
p4193
aV['Johannah']
p4194
aV['Alyce']
p4195
aV['Marigold']
p4196
aV['Quintana']
p4197
aV['Tallie']
p4198
aV['Loretta']
p4199
aV['Erminie']
p4200
aV['Ellynn']
p4201
aV['Violante']
p4202
aV['Susan']
p4203
aV['Laureen']
p4204
aV['Alix']
p4205
aV['Dody']
p4206
aV['Amabelle']
p4207
aV['Eugine']
p4208
aV['Rebecka']
p4209
aV['Portia']
p4210
aV['Tiphany']
p4211
aV['Annabelle']
p4212
aV['Orelie']
p4213
aV['Cordelie']
p4214
aV['Lin']
p4215
aV['Cristine']
p4216
aV['Anna']
p4217
aV['Vere']
p4218
aV['Siouxie']
p4219
aV['Mariele']
p4220
aV['Dee', 'Dee']
p4221
aV['Frankie']
p4222
aV['Emyle']
p4223
aV['Fidela']
p4224
aV['Rhianna']
p4225
aV['Bidget']
p4226
aV['Lainey']
p4227
aV['Willie']
p4228
aV['Kourtney']
p4229
aV['Kylie']
p4230
aV['Georgena']
p4231
aV['Aubine']
p4232
aV['Stacey']
p4233
aV['Tami']
p4234
aV['Loree']
p4235
aV['Susannah']
p4236
aV['Sofia']
p4237
aV['Emma']
p4238
aV['Margette']
p4239
aV['Germain']
p4240
aV['Kathlene']
p4241
aV['Viviyan']
p4242
aV['Melodie']
p4243
aV['Annadiane']
p4244
aV['Diane']
p4245
aV['Karee']
p4246
aV['Hillary']
p4247
aV['Brittan']
p4248
aV['Jasmina']
p4249
aV['Korella']
p4250
aV['Maryellen']
p4251
aV['Nonie']
p4252
aV['Penelopa']
p4253
aV['Marinna']
p4254
aV['Kessia']
p4255
aV['Noreen']
p4256
aV['Ikey']
p4257
aV['Laetitia']
p4258
aV['France']
p4259
aV['Abagail']
p4260
aV['Anissa']
p4261
aV['Teddy']
p4262
aV['Lorena']
p4263
aV['Rosabelle']
p4264
aV['Benedicta']
p4265
aV['Antonietta']
p4266
aV['Annette']
p4267
aV['Melicent']
p4268
aV['Bellamy']
p4269
aV['Marita']
p4270
aV['Malanie']
p4271
aV['Alayne']
p4272
aV['Danette']
p4273
aV['Alvira']
p4274
aV['Cindi']
p4275
aV['Vonni']
p4276
aV['Daniele']
p4277
aV['Marcelline']
p4278
aV['Brita']
p4279
aV['Mariellen']
p4280
aV['Jacquenetta']
p4281
aV['Darda']
p4282
aV['Abigail']
p4283
aV['Kaitlin']
p4284
aV['Gerry']
p4285
aV['Lynnea']
p4286
aV['Pearline']
p4287
aV['Meris']
p4288
aV['Berte']
p4289
aV['Virgie']
p4290
aV['Rosabella']
p4291
aV['Vivi']
p4292
aV['Alameda']
p4293
aV['Dannie']
p4294
aV['Nathalia']
p4295
aV['Bennie']
p4296
aV['Rose']
p4297
aV['Lurline']
p4298
aV['Timmie']
p4299
aV['Murielle']
p4300
aV['Blancha']
p4301
aV['Enriqueta']
p4302
aV['Xena']
p4303
aV['Natassia']
p4304
aV['Fawna']
p4305
aV['Ginelle']
p4306
aV['Carlene']
p4307
aV['Lyndsay']
p4308
aV['Moreen']
p4309
aV['Willette']
p4310
aV['Karin']
p4311
aV['Emmey']
p4312
aV['Margy']
p4313
aV['Karlotte']
p4314
aV['Elysha']
p4315
aV['Cesya']
p4316
aV['Abbie']
p4317
aV['Fan']
p4318
aV['Terza']
p4319
aV['Emelda']
p4320
aV['Bettie']
p4321
aV['Jordana']
p4322
aV['Bride']
p4323
aV['Eryn']
p4324
aV['Rozelle']
p4325
aV['Ruthi']
p4326
aV['Gisele']
p4327
aV['Easter']
p4328
aV['Pepi']
p4329
aV['Jennine']
p4330
aV['Inger']
p4331
aV['Vivyan']
p4332
aV['Teresita']
p4333
aV['Deeann']
p4334
aV['Jayme']
p4335
aV['Steffane']
p4336
aV['Teri']
p4337
aV['Shaylyn']
p4338
aV['Melly']
p4339
aV['Roselyn']
p4340
aV['Maribelle']
p4341
aV['Melantha']
p4342
aV['Karilynn']
p4343
aV['Sadie']
p4344
aV['Alene']
p4345
aV['Phil']
p4346
aV['Joete']
p4347
aV['Cathrine']
p4348
aV['Kyla']
p4349
aV['Sallyann']
p4350
aV['Josepha']
p4351
aV['Winni']
p4352
aV['Remy']
p4353
aV['Moya']
p4354
aV['Caitlin']
p4355
aV['Ashlie']
p4356
aV['Madelon']
p4357
aV['Ruth']
p4358
aV['Sydel']
p4359
aV['Cathyleen']
p4360
aV['Sephira']
p4361
aV['Fawnia']
p4362
aV['Zonnya']
p4363
aV['Gunvor']
p4364
aV['Nesta']
p4365
aV['Evania']
p4366
aV['Helena']
p4367
aV['Marketa']
p4368
aV['Natalie']
p4369
aV['Lorri']
p4370
aV['Kaylil']
p4371
aV['Layney']
p4372
aV['Terrianne']
p4373
aV['Kalila']
p4374
aV['Hilliary']
p4375
aV['Lindsey']
p4376
aV['Annamaria']
p4377
aV['Luisa']
p4378
aV['Zora']
p4379
aV['Barby']
p4380
aV['Nanci']
p4381
aV['Margeaux']
p4382
aV['Rakel']
p4383
aV['Corene']
p4384
aV['Lyndsie']
p4385
aV['Pavla']
p4386
aV['Darci']
p4387
aV['Laurena']
p4388
aV['Coral']
p4389
aV['Shena']
p4390
aV['Ania']
p4391
aV['Audrey']
p4392
aV['Vally']
p4393
aV['Leonanie']
p4394
aV['Randie']
p4395
aV['Dodie']
p4396
aV['Callida']
p4397
aV['Inci']
p4398
aV['Pammie']
p4399
aV['Steffi']
p4400
aV['Seana']
p4401
aV['Stevana']
p4402
aV['Korry']
p4403
aV['Iolande']
p4404
aV['Brigid']
p4405
aV['Lonna']
p4406
aV['Kevyn']
p4407
aV['Terri-Jo']
p4408
aV['Doralia']
p4409
aV['Kelsey']
p4410
aV['Theresa']
p4411
aV['Devonna']
p4412
aV['Karon']
p4413
aV['Arlana']
p4414
aV['Shandy']
p4415
aV['Aryn']
p4416
aV['Suzetta']
p4417
aV['Yolanthe']
p4418
aV['Camel']
p4419
aV['Willi']
p4420
aV['Lorry']
p4421
aV['Chanda']
p4422
aV['Chantal']
p4423
aV['Noel']
p4424
aV['Sara-Ann']
p4425
aV['Jada']
p4426
aV['Agnese']
p4427
aV['Gloria']
p4428
aV['Elysia']
p4429
aV['Catharine']
p4430
aV['Jacenta']
p4431
aV['Damara']
p4432
aV['Patience']
p4433
aV['Alexis']
p4434
aV['Leena']
p4435
aV['Patrizia']
p4436
aV['Sydelle']
p4437
aV['Kaleena']
p4438
aV['Nannette']
p4439
aV['Noell']
p4440
aV['Albertina']
p4441
aV['Riki']
p4442
aV['Elaina']
p4443
aV['Ilyse']
p4444
aV['Halli']
p4445
aV['Tabatha']
p4446
aV['Shelagh']
p4447
aV['Rasla']
p4448
aV['Kasey']
p4449
aV['Jocelyn']
p4450
aV['Nicol']
p4451
aV['Caroleen']
p4452
aV['Malina']
p4453
aV['Millisent']
p4454
aV['Annora']
p4455
aV['Yettie']
p4456
aV['Abra']
p4457
aV['Mercie']
p4458
aV['Casi']
p4459
aV['Lizzie']
p4460
aV['Julina']
p4461
aV['Winona']
p4462
aV['Jacky']
p4463
aV['Nikkie']
p4464
aV['Cleva']
p4465
aV['Lishe']
p4466
aV['Ruperta']
p4467
aV['Lonnie']
p4468
aV['Felita']
p4469
aV['Dosi']
p4470
aV['Brianne']
p4471
aV['Cindee']
p4472
aV['Adriane']
p4473
aV['Theda']
p4474
aV['Lissa']
p4475
aV['Arabella']
p4476
aV['Veda']
p4477
aV['Corenda']
p4478
aV['Corabel']
p4479
aV['Fania']
p4480
aV['Tillie']
p4481
aV['Lark']
p4482
aV['Janel']
p4483
aV['Olympie']
p4484
aV['Terina']
p4485
aV['Sioux']
p4486
aV['Haleigh']
p4487
aV['Gennie']
p4488
aV['Shell']
p4489
aV['Andreana']
p4490
aV['Adelaide']
p4491
aV['Flossy']
p4492
aV['Catlin']
p4493
aV['Liza']
p4494
aV['Angie']
p4495
aV['Aridatha']
p4496
aV['Olga']
p4497
aV['Winonah']
p4498
aV['Meryl']
p4499
aV['Hollyanne']
p4500
aV['Bianca']
p4501
aV['Simonette']
p4502
aV['Lari']
p4503
aV['Gusty']
p4504
aV['Cristy']
p4505
aV['Jerry']
p4506
aV['Adrien']
p4507
aV['Pandora']
p4508
aV['Christan']
p4509
aV['Ingeberg']
p4510
aV['Jaclyn']
p4511
aV['Ivett']
p4512
aV['Oprah']
p4513
aV['Reta']
p4514
aV['Dotti']
p4515
aV['Jerrylee']
p4516
aV['Emlynne']
p4517
aV['Petronia']
p4518
aV['Lolita']
p4519
aV['Pegeen']
p4520
aV['Florette']
p4521
aV['Stefanie']
p4522
aV['Carlee']
p4523
aV['Gera']
p4524
aV['Cheryl']
p4525
aV['Goldy']
p4526
aV['Marianna']
p4527
aV['Sibella']
p4528
aV['Magdaia']
p4529
aV['Calypso']
p4530
aV['Maegan']
p4531
aV['Carissa']
p4532
aV['Merrie']
p4533
aV['Ella']
p4534
aV['Lily']
p4535
aV['Clarice']
p4536
aV['Kanya']
p4537
aV['Dasie']
p4538
aV['Phylis']
p4539
aV['Gilbertine']
p4540
aV['Maddalena']
p4541
aV['Hannis']
p4542
aV['Corabella']
p4543
aV['Gennifer']
p4544
aV['Suzzy']
p4545
aV['Star']
p4546
aV['Hendrika']
p4547
aV['Melessa']
p4548
aV['Bertha']
p4549
aV['Robinetta']
p4550
aV['Tammy']
p4551
aV['Valaria']
p4552
aV['Harmonia']
p4553
aV['Avivah']
p4554
aV['Sonni']
p4555
aV['Jermaine']
p4556
aV['Fayre']
p4557
aV['Emily']
p4558
aV['Merl']
p4559
aV['Leyla']
p4560
aV['Ardella']
p4561
aV['Tory']
p4562
aV['Marney']
p4563
aV['Athena']
p4564
aV['Claretta']
p4565
aV['Annelise']
p4566
aV['Suzi']
p4567
aV['Alvina']
p4568
aV['Jeanelle']
p4569
aV['Dierdre']
p4570
aV['Mada']
p4571
aV['Tilda']
p4572
aV['Tricia']
p4573
aV['Sissy']
p4574
aV['Suki']
p4575
aV['Dinnie']
p4576
aV['Valerie']
p4577
aV['Maria']
p4578
aV['Jolie']
p4579
aV['Kamillah']
p4580
aV['Mufinella']
p4581
aV['Dayna']
p4582
aV['Rissa']
p4583
aV['Daffy']
p4584
aV['Candace']
p4585
aV['Eloise']
p4586
aV['Flossie']
p4587
aV['Dorcas']
p4588
aV['Carlin']
p4589
aV['Chrissy']
p4590
aV['Ilse']
p4591
aV['Felice']
p4592
aV['Anthia']
p4593
aV['Celesta']
p4594
aV['Sheelagh']
p4595
aV['Kelcey']
p4596
aV['Kylynn']
p4597
aV['Adela']
p4598
aV['Cass']
p4599
aV['Germaine']
p4600
aV['Carola']
p4601
aV['Darline']
p4602
aV['Anetta']
p4603
aV['Mae']
p4604
aV['Rosina']
p4605
aV['Bonita']
p4606
aV['Cami']
p4607
aV['Sharie']
p4608
aV['Cecelia']
p4609
aV['Mariette']
p4610
aV['Maureen']
p4611
aV['Jessalin']
p4612
aV['Charleen']
p4613
aV['Hettie']
p4614
aV['Dulcy']
p4615
aV['Delaney']
p4616
aV['Zea']
p4617
aV['LeeAnn']
p4618
aV['Nettle']
p4619
aV['Meridith']
p4620
aV['Michel']
p4621
aV['Gabrielle']
p4622
aV['Lilllie']
p4623
aV['Nikolia']
p4624
aV['Alysa']
p4625
aV['Wilhelmina']
p4626
aV['Dorit']
p4627
aV['Yoko']
p4628
aV['Violetta']
p4629
aV['Gerti']
p4630
aV['Wenonah']
p4631
aV['Helen-Elizabeth']
p4632
aV['Nollie']
p4633
aV['Starlin']
p4634
aV['Ninetta']
p4635
aV['Josefa']
p4636
aV['Glynnis']
p4637
aV['Eden']
p4638
aV['Evangeline']
p4639
aV['Catarina']
p4640
aV['Kala']
p4641
aV['Hatty']
p4642
aV['Dorella']
p4643
aV['Tarra']
p4644
aV['Jacynth']
p4645
aV['Debi']
p4646
aV['Luelle']
p4647
aV['Klarika']
p4648
aV['Betsey']
p4649
aV['Grissel']
p4650
aV['Dallas']
p4651
aV['Verena']
p4652
aV['Helen']
p4653
aV['Maudie']
p4654
aV['Ingrid']
p4655
aV['Orelee']
p4656
aV['Elsbeth']
p4657
aV['Cassy']
p4658
aV['Tandie']
p4659
aV['Mathilde']
p4660
aV['Kikelia']
p4661
aV['Jacinta']
p4662
aV['Lauren']
p4663
aV['Willa']
p4664
aV['Tiff']
p4665
aV['Abby']
p4666
aV['Cherin']
p4667
aV['Elita']
p4668
aV['Florie']
p4669
aV['Ardath']
p4670
aV['Leona']
p4671
aV['Kassandra']
p4672
aV['Emmalynn']
p4673
aV['Fredra']
p4674
aV['Carri']
p4675
aV['Claudina']
p4676
aV['Glori']
p4677
aV['Sarena']
p4678
aV['Simonne']
p4679
aV['Darice']
p4680
aV['Yoshiko']
p4681
aV['Lind']
p4682
aV['Rhiamon']
p4683
aV['Meta']
p4684
aV['Minna']
p4685
aV['Julietta']
p4686
aV['Jerrine']
p4687
aV['Berni']
p4688
aV['Shirah']
p4689
aV['Lorianna']
p4690
aV['Kayley']
p4691
aV['Guillema']
p4692
aV['Barbaraanne']
p4693
aV['Lynna']
p4694
aV['Sophi']
p4695
aV['Filide']
p4696
aV['Myrtice']
p4697
aV['Dorolice']
p4698
aV['Wilmette']
p4699
aV['Clemmy']
p4700
aV['Janine']
p4701
aV['Kirstie']
p4702
aV['Charlott']
p4703
aV['Staci']
p4704
aV['Josee']
p4705
aV['Gates']
p4706
aV['Nisse']
p4707
aV['Alis']
p4708
aV['Kathy']
p4709
aV['Godiva']
p4710
aV['Henka']
p4711
aV['Leisha']
p4712
aV['Ardelis']
p4713
aV['Valerye']
p4714
aV['Romola']
p4715
aV['Christabelle']
p4716
aV['Karie']
p4717
aV['Madona']
p4718
aV['Cherianne']
p4719
aV['Britani']
p4720
aV['Korrie']
p4721
aV['Esta']
p4722
aV['Rebbecca']
p4723
aV['Verene']
p4724
aV['Adrianna']
p4725
aV['Letti']
p4726
aV['Linn']
p4727
aV['Sherrie']
p4728
aV['Anett']
p4729
aV['Aleen']
p4730
aV['Valencia']
p4731
aV['Anabelle']
p4732
aV['Katrina']
p4733
aV['Koren']
p4734
aV['Raven']
p4735
aV['Babs']
p4736
aV['Antonie']
p4737
aV['Cammy']
p4738
aV['Gwyn']
p4739
aV['Ofilia']
p4740
aV['Pam']
p4741
aV['Marcelia']
p4742
aV['Maggee']
p4743
aV['Charis']
p4744
aV['Benni']
p4745
aV['Sharl']
p4746
aV['Rebecca']
p4747
aV['Merrill']
p4748
aV['Fionna']
p4749
aV['Karola']
p4750
aV['Courtney']
p4751
aV['Hildagard']
p4752
aV['Augustina']
p4753
aV['Paige']
p4754
aV['Zondra']
p4755
aV['Nicolle']
p4756
aV['Darya']
p4757
aV['Oralia']
p4758
aV['Loralee']
p4759
aV['Selena']
p4760
aV['Milli']
p4761
aV['Deidre']
p4762
aV['Bernette']
p4763
aV['Beryle']
p4764
aV['Kattie']
p4765
aV['Ivy']
p4766
aV['Hestia']
p4767
aV['Keeley']
p4768
aV['Ellette']
p4769
aV['Letisha']
p4770
aV['Shaun']
p4771
aV['Guinevere']
p4772
aV['Stephannie']
p4773
aV['Mitzi']
p4774
aV['Agneta']
p4775
aV['Marie-Ann']
p4776
aV['Karalynn']
p4777
aV['Dorey']
p4778
aV['Kiley']
p4779
aV['Vale']
p4780
aV['Dedra']
p4781
aV['Olenka']
p4782
aV['Pollyanna']
p4783
aV['Merrielle']
p4784
aV['Yevette']
p4785
aV['Con']
p4786
aV['Myrle']
p4787
aV['Harmony']
p4788
aV['Ashely']
p4789
aV['Erica']
p4790
aV['Annice']
p4791
aV['Emylee']
p4792
aV['Amata']
p4793
aV['Chrysa']
p4794
aV['Bette']
p4795
aV['Caroline']
p4796
aV['Dorene']
p4797
aV['Angela']
p4798
aV['Violet']
p4799
aV['Ami']
p4800
aV['Harrietta']
p4801
aV['Tera']
p4802
aV['Dasya']
p4803
aV['Ursola']
p4804
aV['Wallie']
p4805
aV['Daile']
p4806
aV['Loella']
p4807
aV['Claudia']
p4808
aV['Edithe']
p4809
aV['Ginnie']
p4810
aV['Tiffie']
p4811
aV['Jaynell']
p4812
aV['Cory']
p4813
aV['Susann']
p4814
aV['Jobyna']
p4815
aV['Lian']
p4816
aV['Clarey']
p4817
aV['Belle']
p4818
aV['Shay']
p4819
aV['Carolann']
p4820
aV['Krissie']
p4821
aV['Kitty']
p4822
aV['Lorelei']
p4823
aV['Rina']
p4824
aV['Rosemaria']
p4825
aV['Kristal']
p4826
aV['Beverie']
p4827
aV['Odilia']
p4828
aV['Ann-Marie']
p4829
aV['Chrissie']
p4830
aV['Corrianne']
p4831
aV['Mary']
p4832
aV['Kimmy']
p4833
aV['Malcah']
p4834
aV['Mirelle']
p4835
aV['Mathilda']
p4836
aV['Zola']
p4837
aV['Clio']
p4838
aV['Ondrea']
p4839
aV['Modestine']
p4840
aV['Thalia']
p4841
aV['Anne']
p4842
aV['Thekla']
p4843
aV['Anallese']
p4844
aV['Clarine']
p4845
aV['Terrie']
p4846
aV['Cheri']
p4847
aV['Vania']
p4848
aV['Junette']
p4849
aV['Kameko']
p4850
aV['Fayina']
p4851
aV['Amalea']
p4852
aV['Michaella']
p4853
aV['Nichol']
p4854
aV['Jean']
p4855
aV['Kirstin']
p4856
aV['Phillie']
p4857
aV['Hilarie']
p4858
aV['Blair']
p4859
aV['Laverna']
p4860
aV['Sidonnie']
p4861
aV['Daphene']
p4862
aV['Hedwig']
p4863
aV['Fredericka']
p4864
aV['Tania']
p4865
aV['Izzi']
p4866
aV['Wendy']
p4867
aV['Maryann']
p4868
aV['Rita']
p4869
aV['Krista']
p4870
aV['Malinde']
p4871
aV['Gretta']
p4872
aV['Barbra']
p4873
aV['Krystle']
p4874
aV['Issy']
p4875
aV['Eugenia']
p4876
aV['Dani']
p4877
aV['Anne-Corinne']
p4878
aV['Karita']
p4879
aV['Liz']
p4880
aV['Briny']
p4881
aV['Gertrude']
p4882
aV['Arlena']
p4883
aV['Bobby']
p4884
aV['Rosalind']
p4885
aV['Marguerite']
p4886
aV['Jobina']
p4887
aV['Ambur']
p4888
aV['Konstance']
p4889
aV['Juliette']
p4890
aV['Annetta']
p4891
aV['Linnell']
p4892
aV['Zsazsa']
p4893
aV['Fernande']
p4894
aV['Dorette']
p4895
aV['Dixie']
p4896
aV['Denise']
p4897
aV['Marrilee']
p4898
aV['Melva']
p4899
aV['Lyn']
p4900
aV['Bernice']
p4901
aV['Dominique']
p4902
aV['Corinne']
p4903
aV['Lanie']
p4904
aV['Tracie']
p4905
aV['Shanon']
p4906
aV['Desdemona']
p4907
aV['Lesli']
p4908
aV['Eartha']
p4909
aV['Ilana']
p4910
aV['Zilvia']
p4911
aV['Perrine']
p4912
aV['Aubree']
p4913
aV['Minetta']
p4914
aV['Elberta']
p4915
aV['Jo']
p4916
aV['Bel']
p4917
aV['Cody']
p4918
aV['Calla']
p4919
aV['Jaymee']
p4920
aV['Niki']
p4921
aV['Almeta']
p4922
aV['Coletta']
p4923
aV['Sheila-Kathryn']
p4924
aV['Ardine']
p4925
aV['Mikako']
p4926
aV['Carlynne']
p4927
aV['Vivie']
p4928
aV['Carita']
p4929
aV['Blanche']
p4930
aV['Linnea']
p4931
aV['Emmi']
p4932
aV['Elga']
p4933
aV['Dorothy']
p4934
aV['Carolyn']
p4935
aV['Reena']
p4936
aV['Diandra']
p4937
aV['Rheba']
p4938
aV['Antonella']
p4939
aV['Randa']
p4940
aV['Zia']
p4941
aV['Fawne']
p4942
aV['Electra']
p4943
aV['Nancee']
p4944
aV['Francoise']
p4945
aV['Dinny']
p4946
aV['Madlin']
p4947
aV['Vilma']
p4948
aV['Cayla']
p4949
aV['Blisse']
p4950
aV['Robin']
p4951
aV['Bria']
p4952
aV['Alberta']
p4953
aV['Emalee']
p4954
aV['Aliza']
p4955
aV['Cornelia']
p4956
aV['Gabbie']
p4957
aV['Lissy']
p4958
aV['Jacquelin']
p4959
aV['Shelby']
p4960
aV['Pamelina']
p4961
aV['Dollie']
p4962
aV['Elva']
p4963
aV['Anselma']
p4964
aV['Lulu']
p4965
aV['Bev']
p4966
aV['Arabel']
p4967
aV['Viviene']
p4968
aV['Dalenna']
p4969
aV['Kirsten']
p4970
aV['Gusta']
p4971
aV['Darcie']
p4972
aV['Beitris']
p4973
aV['Marybeth']
p4974
aV['Viv']
p4975
aV['Arliene']
p4976
aV['Rhona']
p4977
aV['Rosyzie']
p4978
aV['Roda']
p4979
aV['Toinette']
p4980
aV['Fae']
p4981
aV['Leone']
p4982
aV['Sherri']
p4983
aV['Celestia']
p4984
aV['Veradis']
p4985
aV['Janet']
p4986
aV['Nancy']
p4987
aV['Aggy']
p4988
aV['Anallise']
p4989
aV['Maye']
p4990
aV['Leann']
p4991
aV['Anny']
p4992
aV['Aubrette']
p4993
aV['Jania']
p4994
aV['Effie']
p4995
aV['Phyllida']
p4996
aV['Amandie']
p4997
aV['Madelene']
p4998
aV['Faustine']
p4999
aV['Babita']
p5000
aV['Erinna']
p5001
aV['Glynis']
p5002
aV['Selene']
p5003
aV['Flory']
p5004
atRp5005
.