c__builtin__
set
p1
((lp2
(S'Jeane'
tp3
a(S'Leyla'
tp4
a(S'Lurlene'
tp5
a(S'Alessandra'
tp6
a(S'Roobbie'
tp7
a(S'Nova'
tp8
a(S'Rozalin'
tp9
a(S'Kelli'
tp10
a(S'Paulina'
tp11
a(S'Carmon'
tp12
a(S'Berte'
tp13
a(S'Lauree'
tp14
a(S'Joletta'
tp15
a(S'Adriena'
tp16
a(S'Melanie'
tp17
a(S'Aurelea'
tp18
a(S'Lark'
tp19
a(S'Susie'
tp20
a(S'Rora'
tp21
a(S'Nissie'
tp22
a(S'Luciana'
tp23
a(S'Michelina'
tp24
a(S'Darci'
tp25
a(S'Ibbie'
tp26
a(S'Hyacinthe'
tp27
a(S'Vittoria'
tp28
a(S'Maurise'
tp29
a(S'Meta'
tp30
a(S'Alexine'
tp31
a(S'Linell'
tp32
a(S'Ally'
tp33
a(S'Ophelia'
tp34
a(S'Amandy'
tp35
a(S'Ailey'
tp36
a(S'Ealasaid'
tp37
a(S'Blair'
tp38
a(S'Marni'
tp39
a(S'Juanita'
tp40
a(S'Hendrika'
tp41
a(S'Kris'
tp42
a(S'Kaster'
tp43
a(S'Megan'
tp44
a(S'Caron'
tp45
a(S'Gwenny'
tp46
a(S'Gerrilee'
tp47
a(S'Chickie'
tp48
a(S'Rochella'
tp49
a(S'Nonnah'
tp50
a(S'Junia'
tp51
a(S'Jenni'
tp52
a(S'Lurline'
tp53
a(S'Zitella'
tp54
a(S'Min'
tp55
a(S'Freda'
tp56
a(S'Estrella'
tp57
a(S'Chrystal'
tp58
a(S'Korry'
tp59
a(S'Maurene'
tp60
a(S'Kara'
tp61
a(S'Doralyn'
tp62
a(S'Cherise'
tp63
a(S'Jenine'
tp64
a(S'Reggi'
tp65
a(S'Leola'
tp66
a(S'Carmita'
tp67
a(S'Anne'
tp68
a(S'Brynn'
tp69
a(S'Starla'
tp70
a(S'Margette'
tp71
a(S'Brenna'
tp72
a(S'Jackelyn'
tp73
a(S'Rosalinda'
tp74
a(S'Sophronia'
tp75
a(S'Lib'
tp76
a(S'Marcelle'
tp77
a(S'Pierrette'
tp78
a(S'Catlee'
tp79
a(S'Caitlin'
tp80
a(S'Rhoda'
tp81
a(S'Sydney'
tp82
a(S'Sashenka'
tp83
a(S'Ardith'
tp84
a(S'Geraldine'
tp85
a(S'Sena'
tp86
a(S'Odelia'
tp87
a(S'Cybal'
tp88
a(S'Nicoli'
tp89
a(S'Delphine'
tp90
a(S'Tera'
tp91
a(S'Alexandra'
tp92
a(S'Lesli'
tp93
a(S'Bobinette'
tp94
a(S'Vanda'
tp95
a(S'Dulce'
tp96
a(S'Emilie'
tp97
a(S'Gael'
tp98
a(S'Bernice'
tp99
a(S'Rosette'
tp100
a(S'Aurie'
tp101
a(S'Melessa'
tp102
a(S'Bride'
tp103
a(S'Isador'
tp104
a(S'Jaquenetta'
tp105
a(S'Danni'
tp106
a(S'Frieda'
tp107
a(S'Anissa'
tp108
a(S'Hildegaard'
tp109
a(S'Adriana'
tp110
a(S'Jodee'
tp111
a(S'Lorrie'
tp112
a(S'Storm'
tp113
a(S'Jacqueline'
tp114
a(S'Marylou'
tp115
a(S'Tiphanie'
tp116
a(S'Leone'
tp117
a(S'Lil'
tp118
a(S'Marleah'
tp119
a(S'Leah'
tp120
a(S'Lee'
tp121
a(S'Janaye'
tp122
a(S'Cathlene'
tp123
a(S'Kimmy'
tp124
a(S'Mellissa'
tp125
a(S'Alexandrina'
tp126
a(S'Ailee'
tp127
a(S'Fan'
tp128
a(S'Gretta'
tp129
a(S'Isadora'
tp130
a(S'Denice'
tp131
a(S'Gabrila'
tp132
a(S'Marylinda'
tp133
a(S'Charline'
tp134
a(S'Jennifer'
tp135
a(S'Lynett'
tp136
a(S'Valera'
tp137
a(S'Janet'
tp138
a(S'Mechelle'
tp139
a(S'Elana'
tp140
a(S'Tamra'
tp141
a(S'Lydie'
tp142
a(S'Fanechka'
tp143
a(S'Theodora'
tp144
a(S'Constance'
tp145
a(S'Stepha'
tp146
a(S'Sonnie'
tp147
a(S'Modesta'
tp148
a(S'Rosy'
tp149
a(S'Tonia'
tp150
a(S'Sarajane'
tp151
a(S'Lorna'
tp152
a(S'Glorianna'
tp153
a(S'Teddi'
tp154
a(S'Shaun'
tp155
a(S'Dorie'
tp156
a(S'Klarrisa'
tp157
a(S'Neala'
tp158
a(S'Carrissa'
tp159
a(S'Adina'
tp160
a(S'Kathryn'
tp161
a(S'Sue-elle'
tp162
a(S'Jennette'
tp163
a(S'Sharline'
tp164
a(S'Amelita'
tp165
a(S'Candy'
tp166
a(S'Nathalie'
tp167
a(S'Marsiella'
tp168
a(S'Willi'
tp169
a(S'Beulah'
tp170
a(S'Freddi'
tp171
a(S'Kylynn'
tp172
a(S'Annetta'
tp173
a(S'Deny'
tp174
a(S'Nikkie'
tp175
a(S'Almeria'
tp176
a(S'Kore'
tp177
a(S'Danyette'
tp178
a(S'Mara'
tp179
a(S'Jerrine'
tp180
a(S'Valencia'
tp181
a(S'Arlene'
tp182
a(S'Teresa'
tp183
a(S'Margalo'
tp184
a(S'Viki'
tp185
a(S'Danette'
tp186
a(S'Britney'
tp187
a(S'Kirsteni'
tp188
a(S'Tildi'
tp189
a(S'Laurena'
tp190
a(S'Dayle'
tp191
a(S'Milissent'
tp192
a(S'Joelynn'
tp193
a(S'Tiffany'
tp194
a(S'Modesty'
tp195
a(S'Gabbi'
tp196
a(S'Emily'
tp197
a(S'Celestia'
tp198
a(S'Lonni'
tp199
a(S'Janifer'
tp200
a(S'Berta'
tp201
a(S'Aidan'
tp202
a(S'Ara'
tp203
a(S'Ann-Marie'
tp204
a(S'Ceciley'
tp205
a(S'Denny'
tp206
a(S'Loretta'
tp207
a(S'Katerine'
tp208
a(S'Ruella'
tp209
a(S'Rafaelia'
tp210
a(S'Carmelle'
tp211
a(S'Sophie'
tp212
a(S'Daveta'
tp213
a(S'Lelah'
tp214
a(S'Sula'
tp215
a(S'Ree'
tp216
a(S'Lilith'
tp217
a(S'Suzzy'
tp218
a(S'Adrienne'
tp219
a(S'Meredithe'
tp220
a(S'Krissie'
tp221
a(S'Mattie'
tp222
a(S'Cherie'
tp223
a(S'Chandra'
tp224
a(S'Trixi'
tp225
a(S'Charlena'
tp226
a(S'Hyacinth'
tp227
a(S'Loreen'
tp228
a(S'Sapphire'
tp229
a(S'Delaney'
tp230
a(S'Jemimah'
tp231
a(S'Ginevra'
tp232
a(S'Corinna'
tp233
a(S'Donnamarie'
tp234
a(S'Morlee'
tp235
a(S'Marie-Jeanne'
tp236
a(S'Brita'
tp237
a(S'Geri'
tp238
a(S'Margarethe'
tp239
a(S'Rosanne'
tp240
a(S'Paola'
tp241
a(S'Elke'
tp242
a(S'Clea'
tp243
a(S'Inga'
tp244
a(S'Ursola'
tp245
a(S'LeeAnn'
tp246
a(S'Georgetta'
tp247
a(S'Celine'
tp248
a(S'Corissa'
tp249
a(S'Adriaens'
tp250
a(S'Latisha'
tp251
a(S'Cissie'
tp252
a(S'Berenice'
tp253
a(S'Rosalia'
tp254
a(S'Ruby'
tp255
a(S'Melonie'
tp256
a(S'Brandea'
tp257
a(S'Alexis'
tp258
a(S'Perla'
tp259
a(S'Halley'
tp260
a(S'Amabelle'
tp261
a(S'Demeter'
tp262
a(S'Bernette'
tp263
a(S'Briteny'
tp264
a(S'Esma'
tp265
a(S'Rheba'
tp266
a(S'Jerrylee'
tp267
a(S'Natassia'
tp268
a(S'Arleyne'
tp269
a(S'Penni'
tp270
a(S'Kimberly'
tp271
a(S'Federica'
tp272
a(S'Elsa'
tp273
a(S'Tova'
tp274
a(S'Diamond'
tp275
a(S'Karrie'
tp276
a(S'Juliann'
tp277
a(S'Dasie'
tp278
a(S'Mirelle'
tp279
a(S'Merle'
tp280
a(S'Jillian'
tp281
a(S'Remy'
tp282
a(S'Ellynn'
tp283
a(S'Nanete'
tp284
a(S'Olia'
tp285
a(S'Cacilie'
tp286
a(S'Eolanda'
tp287
a(S'Zuzana'
tp288
a(S'Heddie'
tp289
a(S'Kerri'
tp290
a(S'Myrta'
tp291
a(S'Amalea'
tp292
a(S'Deloria'
tp293
a(S'Analise'
tp294
a(S'Silva'
tp295
a(S'Shelli'
tp296
a(S'Heda'
tp297
a(S'Annamarie'
tp298
a(S'Christalle'
tp299
a(S'Zabrina'
tp300
a(S'Jazmin'
tp301
a(S'Bellina'
tp302
a(S'Daisi'
tp303
a(S'Ettie'
tp304
a(S'Jorrie'
tp305
a(S'Sonya'
tp306
a(S'Theresa-Marie'
tp307
a(S'Suzie'
tp308
a(S'Zorana'
tp309
a(S'Joline'
tp310
a(S'Madel'
tp311
a(S'Mickie'
tp312
a(S'Cassie'
tp313
a(S'Chelsy'
tp314
a(S'Aridatha'
tp315
a(S'Nil'
tp316
a(S'Ilsa'
tp317
a(S'Lisha'
tp318
a(S'Arliene'
tp319
a(S'Gillan'
tp320
a(S'Lindie'
tp321
a(S'Renee'
tp322
a(S'Matilde'
tp323
a(S'Ardelia'
tp324
a(S'Tybie'
tp325
a(S'Natalya'
tp326
a(S'Nikolia'
tp327
a(S'Cathrin'
tp328
a(S'Clo'
tp329
a(S'Colly'
tp330
a(S'Luella'
tp331
a(S'Kellie'
tp332
a(S'Meridel'
tp333
a(S'Micky'
tp334
a(S'Junette'
tp335
a(S'Ashlen'
tp336
a(S'Adrianne'
tp337
a(S'Ansley'
tp338
a(S'Felicle'
tp339
a(S'Simonne'
tp340
a(S'Idalina'
tp341
a(S'Janetta'
tp342
a(S'George'
tp343
a(S'Sharia'
tp344
a(S'Olympie'
tp345
a(S'Holley'
tp346
a(S'Kerrie'
tp347
a(S'Oralla'
tp348
a(S'Indira'
tp349
a(S'Kassi'
tp350
a(S'Bryna'
tp351
a(S'Estelle'
tp352
a(S'Kalindi'
tp353
a(S'Norean'
tp354
a(S'Jorry'
tp355
a(S'Kariotta'
tp356
a(S'Sabra'
tp357
a(S'Ciara'
tp358
a(S'Helge'
tp359
a(S'Lorry'
tp360
a(S'Hannah'
tp361
a(S'Gwenneth'
tp362
a(S'Lilias'
tp363
a(S'Klara'
tp364
a(S'Ricki'
tp365
a(S'Berri'
tp366
a(S'Rodina'
tp367
a(S'Kath'
tp368
a(S'Jillie'
tp369
a(S'Marylee'
tp370
a(S'Karissa'
tp371
a(S'Franni'
tp372
a(S'Renata'
tp373
a(S'Gera'
tp374
a(S'Kimbra'
tp375
a(S'Cloe'
tp376
a(S'Philly'
tp377
a(S'Debi'
tp378
a(S'Ikey'
tp379
a(S'Marilyn'
tp380
a(S'Noellyn'
tp381
a(S'Charity'
tp382
a(S'Channa'
tp383
a(S'Meggie'
tp384
a(S'Julianne'
tp385
a(S'Johnette'
tp386
a(S'Dea'
tp387
a(S'Robinet'
tp388
a(S'Athena'
tp389
a(S'Laryssa'
tp390
a(S'Briana'
tp391
a(S'Barbabra'
tp392
a(S'Rochelle'
tp393
a(S'Felisha'
tp394
a(S'Angy'
tp395
a(S'Sheree'
tp396
a(S'Mala'
tp397
a(S'Ingrid'
tp398
a(S'Ronda'
tp399
a(S'Moya'
tp400
a(S'Christen'
tp401
a(S'La'
tp402
a(S'Nita'
tp403
a(S'Wrennie'
tp404
a(S'Wally'
tp405
a(S'Storey'
tp406
a(S'Winna'
tp407
a(S'Othella'
tp408
a(S'Betty'
tp409
a(S'Darice'
tp410
a(S'Cassandre'
tp411
a(S'Norrie'
tp412
a(S'Nickie'
tp413
a(S'Maryellen'
tp414
a(S'Joete'
tp415
a(S'Lenore'
tp416
a(S'Jodi'
tp417
a(S'Fay'
tp418
a(S'Karalynn'
tp419
a(S'Monah'
tp420
a(S'Agretha'
tp421
a(S'Delly'
tp422
a(S'Koral'
tp423
a(S'Julieta'
tp424
a(S'Marjorie'
tp425
a(S'Pierette'
tp426
a(S'Ira'
tp427
a(S'Dulcine'
tp428
a(S'Ulla'
tp429
a(S'Eleonora'
tp430
a(S'Lilly'
tp431
a(S'Maureen'
tp432
a(S'Glenna'
tp433
a(S'Lishe'
tp434
a(S'Agnese'
tp435
a(S'Elysha'
tp436
a(S'Harriette'
tp437
a(S'Sibel'
tp438
a(S'Renae'
tp439
a(S'Xenia'
tp440
a(S'Nert'
tp441
a(S'Dix'
tp442
a(S'Hester'
tp443
a(S'Tracie'
tp444
a(S'Kaycee'
tp445
a(S'Desirae'
tp446
a(S'Annemarie'
tp447
a(S'Genovera'
tp448
a(S'Selena'
tp449
a(S'Lilia'
tp450
a(S'Celia'
tp451
a(S'Marcie'
tp452
a(S'Candide'
tp453
a(S'Vinnie'
tp454
a(S'Sibley'
tp455
a(S'Annabell'
tp456
a(S'Rosemaria'
tp457
a(S'Phil'
tp458
a(S'Issie'
tp459
a(S'Bernadette'
tp460
a(S'Viviyan'
tp461
a(S'Elwira'
tp462
a(S'Martica'
tp463
a(S'Isis'
tp464
a(S'Norry'
tp465
a(S'Jolynn'
tp466
a(S'Elissa'
tp467
a(S'Magdalena'
tp468
a(S'Viva'
tp469
a(S'Quinn'
tp470
a(S'Berny'
tp471
a(S'Mitra'
tp472
a(S'Nevsa'
tp473
a(S'Jacinthe'
tp474
a(S'Raine'
tp475
a(S'Krista'
tp476
a(S'Ivie'
tp477
a(S'Annecorinne'
tp478
a(S'Kiah'
tp479
a(S'Nell'
tp480
a(S'Katherine'
tp481
a(S'Caressa'
tp482
a(S'Marijo'
tp483
a(S'Daune'
tp484
a(S'Meredith'
tp485
a(S'Bobbi'
tp486
a(S'Andreana'
tp487
a(S'Waly'
tp488
a(S'Jobi'
tp489
a(S'Dodie'
tp490
a(S'Tiffy'
tp491
a(S'Kalila'
tp492
a(S'Doralia'
tp493
a(S'Arlyn'
tp494
a(S'Allyce'
tp495
a(S'Dorian'
tp496
a(S'Silvie'
tp497
a(S'Joselyn'
tp498
a(S'Catharina'
tp499
a(S'Dacia'
tp500
a(S'Nerte'
tp501
a(S'Dorthea'
tp502
a(S'Dianna'
tp503
a(S'Ros'
tp504
a(S'Flora'
tp505
a(S'Tanya'
tp506
a(S'Kessia'
tp507
a(S'Phaidra'
tp508
a(S'Dorcas'
tp509
a(S'Cynthia'
tp510
a(S'Trina'
tp511
a(S'Gaby'
tp512
a(S'Dasya'
tp513
a(S'Irena'
tp514
a(S'Brooks'
tp515
a(S'Cindra'
tp516
a(S'Melody'
tp517
a(S'Kirby'
tp518
a(S'Joanie'
tp519
a(S'Clarisa'
tp520
a(S'Steffane'
tp521
a(S'Claudetta'
tp522
a(S'Bevvy'
tp523
a(S'Orelia'
tp524
a(S'Agnesse'
tp525
a(S'Dorolisa'
tp526
a(S'Tomasina'
tp527
a(S'Piper'
tp528
a(S'Dannye'
tp529
a(S'Janette'
tp530
a(S'Allsun'
tp531
a(S'Shandy'
tp532
a(S'Melinde'
tp533
a(S'Rhea'
tp534
a(S'Conchita'
tp535
a(S'Ivonne'
tp536
a(S'Elisha'
tp537
a(S'Raven'
tp538
a(S'Almire'
tp539
a(S'Wilma'
tp540
a(S'Sheena'
tp541
a(S'Devin'
tp542
a(S'Juli'
tp543
a(S'Ursulina'
tp544
a(S'Annalisa'
tp545
a(S'Rosario'
tp546
a(S'Merlina'
tp547
a(S'Kally'
tp548
a(S'Joey'
tp549
a(S'Kaitlin'
tp550
a(S'Arlyne'
tp551
a(S'Jamie'
tp552
a(S'Wendy'
tp553
a(S'Sharron'
tp554
a(S'Sibeal'
tp555
a(S'Devina'
tp556
a(S'Dell'
tp557
a(S'Kitty'
tp558
a(S'Roana'
tp559
a(S'Allissa'
tp560
a(S'Claudine'
tp561
a(S'Claribel'
tp562
a(S'Rosmunda'
tp563
a(S'Jacquette'
tp564
a(S'Arlette'
tp565
a(S'Alexi'
tp566
a(S'Glad'
tp567
a(S'Dareen'
tp568
a(S'Alejandra'
tp569
a(S'Yalonda'
tp570
a(S'Kaile'
tp571
a(S'Leena'
tp572
a(S'Prudy'
tp573
a(S'Dasi'
tp574
a(S'Anais'
tp575
a(S'Emmeline'
tp576
a(S'Alaine'
tp577
a(S'Pavla'
tp578
a(S'Gabriell'
tp579
a(S'Brier'
tp580
a(S'Lydia'
tp581
a(S'Glennie'
tp582
a(S'Yvette'
tp583
a(S'Glen'
tp584
a(S'Aili'
tp585
a(S'Roda'
tp586
a(S'Michelle'
tp587
a(S'Hephzibah'
tp588
a(S'Vally'
tp589
a(S'Ashleigh'
tp590
a(S'Collette'
tp591
a(S'Suzanne'
tp592
a(S'Rubina'
tp593
a(S'Katuscha'
tp594
a(S'Dion'
tp595
a(S'Olivie'
tp596
a(S'Therine'
tp597
a(S'Cami'
tp598
a(S'Leeann'
tp599
a(S'Katheleen'
tp600
a(S'Moina'
tp601
a(S'Kass'
tp602
a(S'Alisa'
tp603
a(S'Sharity'
tp604
a(S'Darda'
tp605
a(S'Tobey'
tp606
a(S'Margalit'
tp607
a(S'Morgen'
tp608
a(S'Sabrina'
tp609
a(S'Sharie'
tp610
a(S'Johnna'
tp611
a(S'Gustie'
tp612
a(S'Shay'
tp613
a(S'Nela'
tp614
a(S'Cally'
tp615
a(S'Karel'
tp616
a(S'Donielle'
tp617
a(S'Lani'
tp618
a(S'Karia'
tp619
a(S'Bernete'
tp620
a(S'Gerry'
tp621
a(S'Chere'
tp622
a(S'Willette'
tp623
a(S'Mireielle'
tp624
a(S'Jen'
tp625
a(S'Beitris'
tp626
a(S'Kenna'
tp627
a(S'Gunvor'
tp628
a(S'Liane'
tp629
a(S'Ambur'
tp630
a(S'Nolana'
tp631
a(S'Lavinie'
tp632
a(S'Rani'
tp633
a(S'Kaitlyn'
tp634
a(S'Bo'
tp635
a(S'Nichol'
tp636
a(S'Rosene'
tp637
a(S'Ericha'
tp638
a(S'Kriste'
tp639
a(S'Christa'
tp640
a(S'Elsie'
tp641
a(S'Dyanna'
tp642
a(S'Hetty'
tp643
a(S'Melli'
tp644
a(S'Marilee'
tp645
a(S'Mabelle'
tp646
a(S'Christean'
tp647
a(S'Gizela'
tp648
a(S'Carlisle'
tp649
a(S'Leisha'
tp650
a(S'Cora'
tp651
a(S'Malva'
tp652
a(S'Auguste'
tp653
a(S'Patience'
tp654
a(S'Brandy'
tp655
a(S'Janene'
tp656
a(S'Latrena'
tp657
a(S'Alli'
tp658
a(S'Veronika'
tp659
a(S'Clementina'
tp660
a(S'Tisha'
tp661
a(S'Felita'
tp662
a(S'Phillis'
tp663
a(S'Natty'
tp664
a(S'Petronia'
tp665
a(S'Nerita'
tp666
a(S'Rosamond'
tp667
a(S'Dotti'
tp668
a(S'Lurette'
tp669
a(S'Sibylla'
tp670
a(S'Clio'
tp671
a(S'Rubi'
tp672
a(S'Georgie'
tp673
a(S'Audrie'
tp674
a(S'Eartha'
tp675
a(S'Madalena'
tp676
a(S'Ramona'
tp677
a(S'Justina'
tp678
a(S'Bria'
tp679
a(S'Morissa'
tp680
a(S'Theo'
tp681
a(S'Reiko'
tp682
a(S'Shirlene'
tp683
a(S'Jemie'
tp684
a(S'Georgia'
tp685
a(S'Pattie'
tp686
a(S'Mathilda'
tp687
a(S'Margo'
tp688
a(S'Shandie'
tp689
a(S'Erin'
tp690
a(S'Wylma'
tp691
a(S'Farrand'
tp692
a(S'Ollie'
tp693
a(S'Glenn'
tp694
a(S'Terina'
tp695
a(S'Vivie'
tp696
a(S'Jill'
tp697
a(S'Noni'
tp698
a(S'Corabel'
tp699
a(S'Ulrica'
tp700
a(S'Lari'
tp701
a(S'Kayle'
tp702
a(S'Malissa'
tp703
a(S'Harlie'
tp704
a(S'Isidora'
tp705
a(S'Emmye'
tp706
a(S'Shalne'
tp707
a(S'Xena'
tp708
a(S'Adeline'
tp709
a(S'Malka'
tp710
a(S'Adah'
tp711
a(S'Enya'
tp712
a(S'Daria'
tp713
a(S'Tandy'
tp714
a(S'Milly'
tp715
a(S'Bennie'
tp716
a(S'Amberly'
tp717
a(S'Meade'
tp718
a(S'Joane'
tp719
a(S'Carol'
tp720
a(S'Natalie'
tp721
a(S'Amber'
tp722
a(S'Morgana'
tp723
a(S'Jermaine'
tp724
a(S'Annamaria'
tp725
a(S'Terza'
tp726
a(S'Donica'
tp727
a(S'Orel'
tp728
a(S'Flor'
tp729
a(S'Karyl'
tp730
a(S'Aloisia'
tp731
a(S'Karla'
tp732
a(S'Elizabeth'
tp733
a(S'Fanya'
tp734
a(S'Sam'
tp735
a(S'Naoma'
tp736
a(S'Barbaraanne'
tp737
a(S'Karolina'
tp738
a(S'Alice'
tp739
a(S'Roxy'
tp740
a(S'Concordia'
tp741
a(S'Alyson'
tp742
a(S'Theresita'
tp743
a(S'Salome'
tp744
a(S'Deb'
tp745
a(S'Sharai'
tp746
a(S'Tamarah'
tp747
a(S'Tersina'
tp748
a(S'Erda'
tp749
a(S'Seana'
tp750
a(S'Jyoti'
tp751
a(S'Shawn'
tp752
a(S'Danny'
tp753
a(S'Miranda'
tp754
a(S'Charyl'
tp755
a(S'Caprice'
tp756
a(S'Keely'
tp757
a(S'Barbee'
tp758
a(S'Deina'
tp759
a(S'Rivy'
tp760
a(S'Rachelle'
tp761
a(S'Letitia'
tp762
a(S'Del'
tp763
a(S'Coralie'
tp764
a(S'Brenda'
tp765
a(S'Jeanie'
tp766
a(S'Francoise'
tp767
a(S'Anallise'
tp768
a(S'Karylin'
tp769
a(S'Madelene'
tp770
a(S'Onlea'
tp771
a(S'Amalle'
tp772
a(S'Carma'
tp773
a(S'Taffy'
tp774
a(S'Illa'
tp775
a(S'Melamie'
tp776
a(S'Aubrie'
tp777
a(S'Alicea'
tp778
a(S'Devi'
tp779
a(S'Cristy'
tp780
a(S'Trude'
tp781
a(S'Margaretta'
tp782
a(S'Dot'
tp783
a(S'Carlota'
tp784
a(S'Ileane'
tp785
a(S'Camala'
tp786
a(S'Karlene'
tp787
a(S'Damaris'
tp788
a(S'Gloriana'
tp789
a(S'Beatriz'
tp790
a(S'Nisse'
tp791
a(S'Christina'
tp792
a(S'Arlee'
tp793
a(S'Tilly'
tp794
a(S'Carole'
tp795
a(S'Ora'
tp796
a(S'Farrah'
tp797
a(S'Bryn'
tp798
a(S'Gusta'
tp799
a(S'Ardath'
tp800
a(S'Prisca'
tp801
a(S'Teddy'
tp802
a(S'Christyna'
tp803
a(S'Louella'
tp804
a(S'Elena'
tp805
a(S'Barbette'
tp806
a(S'Bunnie'
tp807
a(S'Portia'
tp808
a(S'Molli'
tp809
a(S'Alanna'
tp810
a(S'Daveen'
tp811
a(S'Martguerita'
tp812
a(S'Roseanne'
tp813
a(S'Stevena'
tp814
a(S'Donnajean'
tp815
a(S'Vera'
tp816
a(S'Ag'
tp817
a(S'Sharl'
tp818
a(S'Nalani'
tp819
a(S'Madeline'
tp820
a(S'Margery'
tp821
a(S'Daniela'
tp822
a(S'Adele'
tp823
a(S'Joanna'
tp824
a(S'Aggie'
tp825
a(S'Kandy'
tp826
a(S'Chrissy'
tp827
a(S'Dulcy'
tp828
a(S'Bird'
tp829
a(S'Annice'
tp830
a(S'Ottilie'
tp831
a(S'Peta'
tp832
a(S'Annamari'
tp833
a(S'Laverne'
tp834
a(S'Tildy'
tp835
a(S'Violetta'
tp836
a(S'Rhianna'
tp837
a(S'Lonee'
tp838
a(S'Petra'
tp839
a(S'Davida'
tp840
a(S'Bambie'
tp841
a(S'Samara'
tp842
a(S'Meghan'
tp843
a(S'Beth'
tp844
a(S'Sallyanne'
tp845
a(S'Enriqueta'
tp846
a(S'Leonelle'
tp847
a(S'Kirstin'
tp848
a(S'Moyna'
tp849
a(S'Haley'
tp850
a(S'Malissia'
tp851
a(S'Ninnette'
tp852
a(S'Elicia'
tp853
a(S'Elyse'
tp854
a(S'Marti'
tp855
a(S'Carla'
tp856
a(S'Delphinia'
tp857
a(S'Phyllida'
tp858
a(S'Nellie'
tp859
a(S'Angelita'
tp860
a(S'Darcee'
tp861
a(S'Mariya'
tp862
a(S'Lora'
tp863
a(S'Ramonda'
tp864
a(S'Karena'
tp865
a(S'Edna'
tp866
a(S'Evey'
tp867
a(S'Kristal'
tp868
a(S'Ethelyn'
tp869
a(S'Cammi'
tp870
a(S'Garnette'
tp871
a(S'Stephi'
tp872
a(S'Conny'
tp873
a(S'Gretal'
tp874
a(S'Prissie'
tp875
a(S'Carlye'
tp876
a(S'Kirbie'
tp877
a(S'Aura'
tp878
a(S'Rena'
tp879
a(S'Paloma'
tp880
a(S'Jehanna'
tp881
a(S'Nessi'
tp882
a(S'Anastassia'
tp883
a(S'Lona'
tp884
a(S'Ryann'
tp885
a(S'Melantha'
tp886
a(S'Lottie'
tp887
a(S'Erminie'
tp888
a(S'Kathi'
tp889
a(S'Charmian'
tp890
a(S'Jocelyn'
tp891
a(S'Jess'
tp892
a(S'Tawsha'
tp893
a(S'Evie'
tp894
a(S'Ranice'
tp895
a(S'Antonietta'
tp896
a(S'Rana'
tp897
a(S'Hedda'
tp898
a(S'Milka'
tp899
a(S'Magdalen'
tp900
a(S'Cornelle'
tp901
a(S'Marieann'
tp902
a(S'Karlie'
tp903
a(S'Carlynne'
tp904
a(S'Onida'
tp905
a(S'Evelyn'
tp906
a(S'Abbi'
tp907
a(S'Rhetta'
tp908
a(S'Malinda'
tp909
a(S'Atalanta'
tp910
a(S'Brena'
tp911
a(S'Marney'
tp912
a(S'Hollie'
tp913
a(S'Meagan'
tp914
a(S'Dee'
tp915
a(S'Connie'
tp916
a(S'Jacinta'
tp917
a(S'Zena'
tp918
a(S'Lyda'
tp919
a(S'Mariejeanne'
tp920
a(S'Genvieve'
tp921
a(S'Michaela'
tp922
a(S'Rae'
tp923
a(S'Charleen'
tp924
a(S'Kerry'
tp925
a(S'Rowena'
tp926
a(S'Thomasina'
tp927
a(S'Lianna'
tp928
a(S'Bell'
tp929
a(S'Kendra'
tp930
a(S'Shelly'
tp931
a(S'Kacey'
tp932
a(S'Nancee'
tp933
a(S'Sophi'
tp934
a(S'Agnella'
tp935
a(S'Hannibal'
tp936
a(S'Sissie'
tp937
a(S'Darelle'
tp938
a(S'Dulcie'
tp939
a(S'Lynette'
tp940
a(S'Hope'
tp941
a(S'Neila'
tp942
a(S'Flossi'
tp943
a(S'Cate'
tp944
a(S'Bel'
tp945
a(S'Irina'
tp946
a(S'Hali'
tp947
a(S'Lira'
tp948
a(S'Mable'
tp949
a(S'Dusty'
tp950
a(S'Norina'
tp951
a(S'Talya'
tp952
a(S'Maia'
tp953
a(S'Leonore'
tp954
a(S'Sheela'
tp955
a(S'Celestyn'
tp956
a(S'Ebony'
tp957
a(S'Agneta'
tp958
a(S'Perrine'
tp959
a(S'Trish'
tp960
a(S'Josepha'
tp961
a(S'Alvera'
tp962
a(S'Eyde'
tp963
a(S'Layla'
tp964
a(S'Katina'
tp965
a(S'Janessa'
tp966
a(S'Mimi'
tp967
a(S'Marja'
tp968
a(S'Euphemia'
tp969
a(S'Susanetta'
tp970
a(S'Adella'
tp971
a(S'Hildy'
tp972
a(S'Maude'
tp973
a(S'Tasha'
tp974
a(S'Carolie'
tp975
a(S'Philomena'
tp976
a(S'Mercie'
tp977
a(S'Violet'
tp978
a(S'Masha'
tp979
a(S'Tobe'
tp980
a(S'Edi'
tp981
a(S'Estel'
tp982
a(S'Abra'
tp983
a(S'Ilana'
tp984
a(S'Stormie'
tp985
a(S'Teresina'
tp986
a(S'Gayla'
tp987
a(S'Vale'
tp988
a(S'Mavis'
tp989
a(S'Bernardina'
tp990
a(S'Vinny'
tp991
a(S'May'
tp992
a(S'Bertine'
tp993
a(S'Ferne'
tp994
a(S'Karita'
tp995
a(S'Wilone'
tp996
a(S'Sascha'
tp997
a(S'Dorry'
tp998
a(S'Brynne'
tp999
a(S'Dido'
tp1000
a(S'Alethea'
tp1001
a(S'Winifred'
tp1002
a(S'Fidelia'
tp1003
a(S'Daisey'
tp1004
a(S'Nathalia'
tp1005
a(S'Shea'
tp1006
a(S'Chryste'
tp1007
a(S'Lorri'
tp1008
a(S'Elayne'
tp1009
a(S'Guillema'
tp1010
a(S'Lynnea'
tp1011
a(S'Anni'
tp1012
a(S'Ricky'
tp1013
a(S'Anya'
tp1014
a(S'Meaghan'
tp1015
a(S'Cherida'
tp1016
a(S'Mame'
tp1017
a(S'Zsa'
S'Zsa'
tp1018
a(S'Fleurette'
tp1019
a(S'Viviana'
tp1020
a(S'Helaina'
tp1021
a(S'Franny'
tp1022
a(S'Kylen'
tp1023
a(S'Ann'
tp1024
a(S'Stephana'
tp1025
a(S'Dode'
tp1026
a(S'Sondra'
tp1027
a(S'Bettina'
tp1028
a(S'Gus'
tp1029
a(S'Veronique'
tp1030
a(S'Wilie'
tp1031
a(S'Elva'
tp1032
a(S'Ragnhild'
tp1033
a(S'Leora'
tp1034
a(S'Joleen'
tp1035
a(S'Tracy'
tp1036
a(S'Arline'
tp1037
a(S'Jo-Anne'
tp1038
a(S'Mirna'
tp1039
a(S'Lizbeth'
tp1040
a(S'Pollyanna'
tp1041
a(S'Maddi'
tp1042
a(S'Ann-Mari'
tp1043
a(S'Dorene'
tp1044
a(S'Faustina'
tp1045
a(S'Cameo'
tp1046
a(S'Suzanna'
tp1047
a(S'Ebba'
tp1048
a(S'Lynea'
tp1049
a(S'Audre'
tp1050
a(S'Roselin'
tp1051
a(S'Carley'
tp1052
a(S'Lizabeth'
tp1053
a(S'Joana'
tp1054
a(S'Jesselyn'
tp1055
a(S'Raf'
tp1056
a(S'Siobhan'
tp1057
a(S'Caty'
tp1058
a(S'Milicent'
tp1059
a(S'Alecia'
tp1060
a(S'Elyn'
tp1061
a(S'Cleo'
tp1062
a(S'Kendre'
tp1063
a(S'Polly'
tp1064
a(S'Corabella'
tp1065
a(S'Doretta'
tp1066
a(S'Fanny'
tp1067
a(S'Amalita'
tp1068
a(S'Emlyn'
tp1069
a(S'Sybil'
tp1070
a(S'Letti'
tp1071
a(S'Betti'
tp1072
a(S'Monika'
tp1073
a(S'Nena'
tp1074
a(S'Anstice'
tp1075
a(S'Adorne'
tp1076
a(S'Benetta'
tp1077
a(S'Essie'
tp1078
a(S'Lauryn'
tp1079
a(S'Sammy'
tp1080
a(S'Marlee'
tp1081
a(S'Hatti'
tp1082
a(S'Roanna'
tp1083
a(S'Harriot'
tp1084
a(S'Leigh'
tp1085
a(S'Honey'
tp1086
a(S'Lilli'
tp1087
a(S'Dinnie'
tp1088
a(S'Sal'
tp1089
a(S'Nanette'
tp1090
a(S'Alex'
tp1091
a(S'Devon'
tp1092
a(S'Lisbeth'
tp1093
a(S'Auberta'
tp1094
a(S'Rebbecca'
tp1095
a(S'Marty'
tp1096
a(S'Loise'
tp1097
a(S'Judith'
tp1098
a(S'Georgianna'
tp1099
a(S'Lise'
tp1100
a(S'Mandie'
tp1101
a(S'Brear'
tp1102
a(S'Florella'
tp1103
a(S'Karoly'
tp1104
a(S'Inger'
tp1105
a(S'Elysia'
tp1106
a(S'Verene'
tp1107
a(S'Una'
tp1108
a(S'Zorina'
tp1109
a(S'Ellie'
tp1110
a(S'Lucky'
tp1111
a(S'Celesta'
tp1112
a(S'Lorine'
tp1113
a(S'Annadiane'
tp1114
a(S'Maryjane'
tp1115
a(S'Havivah'
tp1116
a(S'Kerrill'
tp1117
a(S'Korella'
tp1118
a(S'Dede'
tp1119
a(S'Carolann'
tp1120
a(S'Norri'
tp1121
a(S'Ilysa'
tp1122
a(S'Tresa'
tp1123
a(S'Ethyl'
tp1124
a(S'Ashly'
tp1125
a(S'Myrna'
tp1126
a(S'Joyann'
tp1127
a(S'Rochell'
tp1128
a(S'Kaja'
tp1129
a(S'Lorene'
tp1130
a(S'Deeann'
tp1131
a(S'Joela'
tp1132
a(S'Ernaline'
tp1133
a(S'Marrilee'
tp1134
a(S'Zelma'
tp1135
a(S'Nadean'
tp1136
a(S'Angelica'
tp1137
a(S'Angie'
tp1138
a(S'Andriana'
tp1139
a(S'Collete'
tp1140
a(S'Joyce'
tp1141
a(S'Carleen'
tp1142
a(S'Editha'
tp1143
a(S'Ivette'
tp1144
a(S'Odelle'
tp1145
a(S'Stefa'
tp1146
a(S'Faythe'
tp1147
a(S'Evvy'
tp1148
a(S'Cathleen'
tp1149
a(S'Ailyn'
tp1150
a(S'Dacy'
tp1151
a(S'Oriana'
tp1152
a(S'Bobby'
tp1153
a(S'Valry'
tp1154
a(S'Albertine'
tp1155
a(S'Tammara'
tp1156
a(S'Daryn'
tp1157
a(S'Joby'
tp1158
a(S'Orsa'
tp1159
a(S'Carlee'
tp1160
a(S'Krystyna'
tp1161
a(S'Samuella'
tp1162
a(S'Binnie'
tp1163
a(S'Ranee'
tp1164
a(S'Rebekah'
tp1165
a(S'Emera'
tp1166
a(S'Sybilla'
tp1167
a(S'Tabbie'
tp1168
a(S'Audrey'
tp1169
a(S'Sara'
tp1170
a(S'Moselle'
tp1171
a(S'Ashlie'
tp1172
a(S'Hedy'
tp1173
a(S'Guinevere'
tp1174
a(S'Madeleine'
tp1175
a(S'Tabbitha'
tp1176
a(S'Elsinore'
tp1177
a(S'Lynelle'
tp1178
a(S'Carline'
tp1179
a(S'Kit'
tp1180
a(S'Minnie'
tp1181
a(S'Marglerite'
tp1182
a(S'Talyah'
tp1183
a(S'Lorita'
tp1184
a(S'Tani'
tp1185
a(S'Vin'
tp1186
a(S'Jessamine'
tp1187
a(S'Angelle'
tp1188
a(S'Moll'
tp1189
a(S'Steffie'
tp1190
a(S'Julissa'
tp1191
a(S'Val'
tp1192
a(S'Florrie'
tp1193
a(S'Albina'
tp1194
a(S'Laila'
tp1195
a(S'Beverlee'
tp1196
a(S'Rycca'
tp1197
a(S'Tarah'
tp1198
a(S'Nataline'
tp1199
a(S'Shena'
tp1200
a(S'Hortensia'
tp1201
a(S'Sandye'
tp1202
a(S'Selia'
tp1203
a(S'Hailee'
tp1204
a(S'Aime'
tp1205
a(S'Ninetta'
tp1206
a(S'Nedda'
tp1207
a(S'Selinda'
tp1208
a(S'Simona'
tp1209
a(S'Ike'
tp1210
a(S'Miguelita'
tp1211
a(S'Charla'
tp1212
a(S'Kiri'
tp1213
a(S'Bunny'
tp1214
a(S'Marthe'
tp1215
a(S'Darya'
tp1216
a(S'Hanna'
tp1217
a(S'Flori'
tp1218
a(S'Kettie'
tp1219
a(S'Brittan'
tp1220
a(S'Zahara'
tp1221
a(S'Farica'
tp1222
a(S'Melissa'
tp1223
a(S'Flo'
tp1224
a(S'Janna'
tp1225
a(S'Bernardine'
tp1226
a(S'Jacynth'
tp1227
a(S'Gillian'
tp1228
a(S'Electra'
tp1229
a(S'Alexa'
tp1230
a(S'Esta'
tp1231
a(S'Danika'
tp1232
a(S'Dorena'
tp1233
a(S'Blondie'
tp1234
a(S'Bertha'
tp1235
a(S'Jobie'
tp1236
a(S'Damita'
tp1237
a(S'Genevieve'
tp1238
a(S'Tammy'
tp1239
a(S'Dorthy'
tp1240
a(S'Alvinia'
tp1241
a(S'Jenelle'
tp1242
a(S'Genia'
tp1243
a(S'Joellyn'
tp1244
a(S'Lacee'
tp1245
a(S'Kara-Lynn'
tp1246
a(S'Melisande'
tp1247
a(S'Ileana'
tp1248
a(S'Nonah'
tp1249
a(S'Ardis'
tp1250
a(S'Rosamund'
tp1251
a(S'Erina'
tp1252
a(S'Jaime'
tp1253
a(S'Myrtice'
tp1254
a(S'Nona'
tp1255
a(S'Josee'
tp1256
a(S'Sheila'
tp1257
a(S'Leodora'
tp1258
a(S'Imogene'
tp1259
a(S'Arlina'
tp1260
a(S'Augustina'
tp1261
a(S'Valida'
tp1262
a(S'Meggy'
tp1263
a(S'Rianon'
tp1264
a(S'Herminia'
tp1265
a(S'Meara'
tp1266
a(S'Lara'
tp1267
a(S'Kristien'
tp1268
a(S'Grissel'
tp1269
a(S'Harli'
tp1270
a(S'Kourtney'
tp1271
a(S'Vilma'
tp1272
a(S'Suzann'
tp1273
a(S'Willy'
tp1274
a(S'Faith'
tp1275
a(S'Lucretia'
tp1276
a(S'Myriam'
tp1277
a(S'Austin'
tp1278
a(S'Zola'
tp1279
a(S'Lulita'
tp1280
a(S'Ella'
tp1281
a(S'Kerstin'
tp1282
a(S'Agathe'
tp1283
a(S'Sofia'
tp1284
a(S'Karee'
tp1285
a(S'Carlene'
tp1286
a(S'Andriette'
tp1287
a(S'Annadiana'
tp1288
a(S'Darbie'
tp1289
a(S'Ermengarde'
tp1290
a(S'Arleen'
tp1291
a(S'Rhodia'
tp1292
a(S'Dolly'
tp1293
a(S'Bonnee'
tp1294
a(S'Brandi'
tp1295
a(S'Debora'
tp1296
a(S'Clarita'
tp1297
a(S'Persis'
tp1298
a(S'Jemmie'
tp1299
a(S'Aleda'
tp1300
a(S'Nomi'
tp1301
a(S'Anne-Mar'
tp1302
a(S'Issi'
tp1303
a(S'Stefanie'
tp1304
a(S'Marlo'
tp1305
a(S'Ebonee'
tp1306
a(S'Carmelina'
tp1307
a(S'Rica'
tp1308
a(S'Esmaria'
tp1309
a(S'Norma'
tp1310
a(S'Valenka'
tp1311
a(S'Nissa'
tp1312
a(S'Kiersten'
tp1313
a(S'Grata'
tp1314
a(S'Margareta'
tp1315
a(S'Clotilda'
tp1316
a(S'Ronalda'
tp1317
a(S'Patty'
tp1318
a(S'Elsbeth'
tp1319
a(S'Elaina'
tp1320
a(S'Yolande'
tp1321
a(S'Goldarina'
tp1322
a(S'Fayth'
tp1323
a(S'Kassia'
tp1324
a(S'Louise'
tp1325
a(S'Daphne'
tp1326
a(S'Nidia'
tp1327
a(S'Genna'
tp1328
a(S'Chery'
tp1329
a(S'Eloisa'
tp1330
a(S'Roseanna'
tp1331
a(S'Ardys'
tp1332
a(S'Caralie'
tp1333
a(S'Lorelei'
tp1334
a(S'Lina'
tp1335
a(S'Maggee'
tp1336
a(S'Beverlie'
tp1337
a(S'Jelene'
tp1338
a(S'Shauna'
tp1339
a(S'Mildred'
tp1340
a(S'Kyle'
tp1341
a(S'Madella'
tp1342
a(S'Aretha'
tp1343
a(S'Jenda'
tp1344
a(S'Bobina'
tp1345
a(S'Leia'
tp1346
a(S'Benoite'
tp1347
a(S'Maritsa'
tp1348
a(S'Lolly'
tp1349
a(S'Lyndsey'
tp1350
a(S'Malanie'
tp1351
a(S'Elle'
tp1352
a(S'Gabey'
tp1353
a(S'Valli'
tp1354
a(S'Alix'
tp1355
a(S'Aigneis'
tp1356
a(S'Gillie'
tp1357
a(S'Claire'
tp1358
a(S'Noelle'
tp1359
a(S'Elladine'
tp1360
a(S'Benni'
tp1361
a(S'Reggie'
tp1362
a(S'Jenifer'
tp1363
a(S'Trescha'
tp1364
a(S'Sofie'
tp1365
a(S'Millisent'
tp1366
a(S'Andrea'
tp1367
a(S'Nicolle'
tp1368
a(S'Caresa'
tp1369
a(S'Florence'
tp1370
a(S'Malvina'
tp1371
a(S'Hilliary'
tp1372
a(S'Dollie'
tp1373
a(S'Jeana'
tp1374
a(S'Cristionna'
tp1375
a(S'Ronny'
tp1376
a(S'Rachele'
tp1377
a(S'Janeczka'
tp1378
a(S'Danila'
tp1379
a(S'Marga'
tp1380
a(S'Judie'
tp1381
a(S'Pauline'
tp1382
a(S'Cherilyn'
tp1383
a(S'Christie'
tp1384
a(S'Kristi'
tp1385
a(S'Becki'
tp1386
a(S'Mercedes'
tp1387
a(S'Karin'
tp1388
a(S'Patrizia'
tp1389
a(S'Timi'
tp1390
a(S'Desdemona'
tp1391
a(S'Shara'
tp1392
a(S'Fernandina'
tp1393
a(S'Sonnnie'
tp1394
a(S'Brandie'
tp1395
a(S'Tuesday'
tp1396
a(S'Marjy'
tp1397
a(S'Bethina'
tp1398
a(S'Lucie'
tp1399
a(S'Glory'
tp1400
a(S'Carroll'
tp1401
a(S'Rochette'
tp1402
a(S'Ophelie'
tp1403
a(S'Sonja'
tp1404
a(S'Eadith'
tp1405
a(S'Terra'
tp1406
a(S'Laurene'
tp1407
a(S'Cristi'
tp1408
a(S'Kelcey'
tp1409
a(S'Loralyn'
tp1410
a(S'Laurella'
tp1411
a(S'Shanda'
tp1412
a(S'Cherice'
tp1413
a(S'Karyn'
tp1414
a(S'Roxane'
tp1415
a(S'Junie'
tp1416
a(S'Annalyse'
tp1417
a(S'Dody'
tp1418
a(S'Ashlee'
tp1419
a(S'Anthe'
tp1420
a(S'Aimil'
tp1421
a(S'Viola'
tp1422
a(S'Morena'
tp1423
a(S'Oralie'
tp1424
a(S'Elenore'
tp1425
a(S'Larisa'
tp1426
a(S'Kare'
tp1427
a(S'Lynna'
tp1428
a(S'Juditha'
tp1429
a(S'Sophia'
tp1430
a(S'Ingunna'
tp1431
a(S'Britani'
tp1432
a(S'Leelah'
tp1433
a(S'Hana'
tp1434
a(S'Alma'
tp1435
a(S'Aeriel'
tp1436
a(S'Susann'
tp1437
a(S'Marthena'
tp1438
a(S'Jinny'
tp1439
a(S'Molly'
tp1440
a(S'Ardeen'
tp1441
a(S'Lucila'
tp1442
a(S'Susy'
tp1443
a(S'Nicolina'
tp1444
a(S'Orly'
tp1445
a(S'Gay'
tp1446
a(S'Susette'
tp1447
a(S'Marcella'
tp1448
a(S'Hortense'
tp1449
a(S'Cass'
tp1450
a(S'Marlena'
tp1451
a(S'Jemmy'
tp1452
a(S'Rasia'
tp1453
a(S'Darcy'
tp1454
a(S'Constancia'
tp1455
a(S'Charmaine'
tp1456
a(S'Gisella'
tp1457
a(S'Anitra'
tp1458
a(S'Ede'
tp1459
a(S'Mariette'
tp1460
a(S'Blondy'
tp1461
a(S'Verina'
tp1462
a(S'Peggy'
tp1463
a(S'Ali'
tp1464
a(S'Yetta'
tp1465
a(S'Toma'
tp1466
a(S'Lesya'
tp1467
a(S'Tine'
tp1468
a(S'Rosella'
tp1469
a(S'Easter'
tp1470
a(S'Trula'
tp1471
a(S'Margeaux'
tp1472
a(S'Oralia'
tp1473
a(S'Beatrix'
tp1474
a(S'Joy'
tp1475
a(S'Ida'
tp1476
a(S'Debee'
tp1477
a(S'Laureen'
tp1478
a(S'Frederica'
tp1479
a(S'Elfie'
tp1480
a(S'Laurianne'
tp1481
a(S'Drea'
tp1482
a(S'Elianore'
tp1483
a(S'Kate'
tp1484
a(S'Devonne'
tp1485
a(S'Auria'
tp1486
a(S'France'
tp1487
a(S'Babs'
tp1488
a(S'Toinette'
tp1489
a(S'Tess'
tp1490
a(S'Jaquenette'
tp1491
a(S'Jobyna'
tp1492
a(S'Grete'
tp1493
a(S'Avril'
tp1494
a(S'Neysa'
tp1495
a(S'Ulrika'
tp1496
a(S'Madalyn'
tp1497
a(S'Carmelita'
tp1498
a(S'Rozanne'
tp1499
a(S'Dina'
tp1500
a(S'Quintana'
tp1501
a(S'Stephine'
tp1502
a(S'Cortney'
tp1503
a(S'Gussi'
tp1504
a(S'Alleen'
tp1505
a(S'Claudie'
tp1506
a(S'Annaliese'
tp1507
a(S'Ines'
tp1508
a(S'Janaya'
tp1509
a(S'Heath'
tp1510
a(S'Carree'
tp1511
a(S'Kira'
tp1512
a(S'Nedi'
tp1513
a(S'Gipsy'
tp1514
a(S'Emmy'
tp1515
a(S'Irita'
tp1516
a(S'Conni'
tp1517
a(S'Pam'
tp1518
a(S'Essy'
tp1519
a(S'Kristyn'
tp1520
a(S'Kori'
tp1521
a(S'Lorelle'
tp1522
a(S'Lauretta'
tp1523
a(S'Olimpia'
tp1524
a(S'Elvina'
tp1525
a(S'Paulita'
tp1526
a(S'Deane'
tp1527
a(S'Aryn'
tp1528
a(S'Roch'
tp1529
a(S'Muriel'
tp1530
a(S'Marya'
tp1531
a(S'Codee'
tp1532
a(S'Annnora'
tp1533
a(S'Josie'
tp1534
a(S'Gilberte'
tp1535
a(S'Alica'
tp1536
a(S'Amara'
tp1537
a(S'Michell'
tp1538
a(S'Olly'
tp1539
a(S'Rose'
tp1540
a(S'Tonie'
tp1541
a(S'Elysee'
tp1542
a(S'Lorne'
tp1543
a(S'Brandise'
tp1544
a(S'Dulcinea'
tp1545
a(S'Doria'
tp1546
a(S'Berget'
tp1547
a(S'Becka'
tp1548
a(S'Olivette'
tp1549
a(S'Tobye'
tp1550
a(S'Tabbi'
tp1551
a(S'Inna'
tp1552
a(S'Marie-Ann'
tp1553
a(S'Lita'
tp1554
a(S'Erinn'
tp1555
a(S'Tressa'
tp1556
a(S'Pegeen'
tp1557
a(S'Allis'
tp1558
a(S'Liz'
tp1559
a(S'JoAnne'
tp1560
a(S'Audra'
tp1561
a(S'Cornie'
tp1562
a(S'Ferdinande'
tp1563
a(S'Malcah'
tp1564
a(S'Annalee'
tp1565
a(S'Kala'
tp1566
a(S'Pansie'
tp1567
a(S'Ruperta'
tp1568
a(S'Rickie'
tp1569
a(S'Alidia'
tp1570
a(S'Brigida'
tp1571
a(S'Willow'
tp1572
a(S'Antonella'
tp1573
a(S'Billie'
tp1574
a(S'Phoebe'
tp1575
a(S'Zenia'
tp1576
a(S'Fannie'
tp1577
a(S'Catina'
tp1578
a(S'Adrian'
tp1579
a(S'Anja'
tp1580
a(S'Luelle'
tp1581
a(S'Etty'
tp1582
a(S'Eirena'
tp1583
a(S'Margarete'
tp1584
a(S'Abbe'
tp1585
a(S'Sarah'
tp1586
a(S'Abagail'
tp1587
a(S'Caril'
tp1588
a(S'Timothea'
tp1589
a(S'Marilin'
tp1590
a(S'Cathryn'
tp1591
a(S'Chanda'
tp1592
a(S'Bethanne'
tp1593
a(S'Jilly'
tp1594
a(S'Florentia'
tp1595
a(S'Brooke'
tp1596
a(S'Mariellen'
tp1597
a(S'Arabel'
tp1598
a(S'Lizzie'
tp1599
a(S'Sue'
tp1600
a(S'Julita'
tp1601
a(S'Hildegarde'
tp1602
a(S'Doris'
tp1603
a(S'Jaynell'
tp1604
a(S'Latashia'
tp1605
a(S'Carmella'
tp1606
a(S'Penelope'
tp1607
a(S'Zarah'
tp1608
a(S'Sharla'
tp1609
a(S'Philipa'
tp1610
a(S'Buffy'
tp1611
a(S'Amelia'
tp1612
a(S'Florenza'
tp1613
a(S'Yolanda'
tp1614
a(S'Herta'
tp1615
a(S'Tabatha'
tp1616
a(S'Loraine'
tp1617
a(S'Kirsten'
tp1618
a(S'Kathryne'
tp1619
a(S'Lillian'
tp1620
a(S'Charlene'
tp1621
a(S'Cilka'
tp1622
a(S'Andromeda'
tp1623
a(S'Rozamond'
tp1624
a(S'Em'
tp1625
a(S'Dulcea'
tp1626
a(S'Shoshie'
tp1627
a(S'Lust'
tp1628
a(S'Roxanne'
tp1629
a(S'Lorenza'
tp1630
a(S'Clarabelle'
tp1631
a(S'Stephannie'
tp1632
a(S'Keriann'
tp1633
a(S'Glenine'
tp1634
a(S'Faye'
tp1635
a(S'Kalina'
tp1636
a(S'Suzi'
tp1637
a(S'Gladi'
tp1638
a(S'Georgette'
tp1639
a(S'Dianne'
tp1640
a(S'Anna-Maria'
tp1641
a(S'Elfrida'
tp1642
a(S'Cecilla'
tp1643
a(S'Vinni'
tp1644
a(S'Roxi'
tp1645
a(S'Rosalie'
tp1646
a(S'Philippine'
tp1647
a(S'Fatima'
tp1648
a(S'Nelle'
tp1649
a(S'Casie'
tp1650
a(S'Ellene'
tp1651
a(S'Marchelle'
tp1652
a(S'Gerianna'
tp1653
a(S'Manda'
tp1654
a(S'Sasha'
tp1655
a(S'Catlin'
tp1656
a(S'Veda'
tp1657
a(S'Andy'
tp1658
a(S'Cassi'
tp1659
a(S'Sidonia'
tp1660
a(S'Steffi'
tp1661
a(S'Cloris'
tp1662
a(S'Wilmette'
tp1663
a(S'Hannie'
tp1664
a(S'Clareta'
tp1665
a(S'Odille'
tp1666
a(S'Myrle'
tp1667
a(S'Kym'
tp1668
a(S'Gale'
tp1669
a(S'Tove'
tp1670
a(S'Theressa'
tp1671
a(S'Willamina'
tp1672
a(S'Merla'
tp1673
a(S'Rosina'
tp1674
a(S'Dena'
tp1675
a(S'Gertrude'
tp1676
a(S'Phedra'
tp1677
a(S'Maryjo'
tp1678
a(S'Eolande'
tp1679
a(S'Mary'
tp1680
a(S'Yolane'
tp1681
a(S'Fredia'
tp1682
a(S'Traci'
tp1683
a(S'Gertrud'
tp1684
a(S'Casey'
tp1685
a(S'Kathlin'
tp1686
a(S'Gerta'
tp1687
a(S'Kassie'
tp1688
a(S'Devan'
tp1689
a(S'Kayley'
tp1690
a(S'Kissee'
tp1691
a(S'Debbie'
tp1692
a(S'Fawnia'
tp1693
a(S'Amata'
tp1694
a(S'Karlotte'
tp1695
a(S'Petrina'
tp1696
a(S'Jeannette'
tp1697
a(S'Nicky'
tp1698
a(S'Clemmie'
tp1699
a(S'Keelia'
tp1700
a(S'Cati'
tp1701
a(S'Betsey'
tp1702
a(S'Ainsley'
tp1703
a(S'Darby'
tp1704
a(S'Flossie'
tp1705
a(S'Didi'
tp1706
a(S'Karen'
tp1707
a(S'Fanni'
tp1708
a(S'Mei'
tp1709
a(S'Mab'
tp1710
a(S'Jori'
tp1711
a(S'Ursala'
tp1712
a(S'Debera'
tp1713
a(S'Isobel'
tp1714
a(S'Carissa'
tp1715
a(S'Gavra'
tp1716
a(S'Gene'
tp1717
a(S'Dannie'
tp1718
a(S'Emmalee'
tp1719
a(S'Jade'
tp1720
a(S'Magna'
tp1721
a(S'Leann'
tp1722
a(S'Belicia'
tp1723
a(S'Flower'
tp1724
a(S'Nydia'
tp1725
a(S'Marlie'
tp1726
a(S'Matilda'
tp1727
a(S'Isabelita'
tp1728
a(S'Donia'
tp1729
a(S'Arden'
tp1730
a(S'Meira'
tp1731
a(S'Eustacia'
tp1732
a(S'Dorothy'
tp1733
a(S'Hatty'
tp1734
a(S'Magdaia'
tp1735
a(S'Sarene'
tp1736
a(S'Annalena'
tp1737
a(S'Carmela'
tp1738
a(S'Lacy'
tp1739
a(S'Marsha'
tp1740
a(S'Ceil'
tp1741
a(S'Chrysa'
tp1742
a(S'Robena'
tp1743
a(S'Gretel'
tp1744
a(S'Minny'
tp1745
a(S'Cal'
tp1746
a(S'Anna-Diane'
tp1747
a(S'Jenilee'
tp1748
a(S'Mollie'
tp1749
a(S'Adrianna'
tp1750
a(S'Imelda'
tp1751
a(S'Harrie'
tp1752
a(S'Brandice'
tp1753
a(S'Kynthia'
tp1754
a(S'Selene'
tp1755
a(S'Lesley'
tp1756
a(S'Lotty'
tp1757
a(S'Dorise'
tp1758
a(S'Monique'
tp1759
a(S'Maryann'
tp1760
a(S'Oralle'
tp1761
a(S'Othelia'
tp1762
a(S'Dorothea'
tp1763
a(S'Jordain'
tp1764
a(S'Beckie'
tp1765
a(S'Bev'
tp1766
a(S'Clem'
tp1767
a(S'Rachael'
tp1768
a(S'Briney'
tp1769
a(S'Jolee'
tp1770
a(S'Cathie'
tp1771
a(S'Pia'
tp1772
a(S'Dottie'
tp1773
a(S'Beatrice'
tp1774
a(S'Helga'
tp1775
a(S'Germana'
tp1776
a(S'Joelly'
tp1777
a(S'Gabbey'
tp1778
a(S'Vanni'
tp1779
a(S'Mirabel'
tp1780
a(S'Gunilla'
tp1781
a(S'Sybille'
tp1782
a(S'Noemi'
tp1783
a(S'Ashli'
tp1784
a(S'Burta'
tp1785
a(S'Jennilee'
tp1786
a(S'Vikky'
tp1787
a(S'Ventura'
tp1788
a(S'Hayley'
tp1789
a(S'Cherilynn'
tp1790
a(S'Jeri'
tp1791
a(S'Dodi'
tp1792
a(S'Waneta'
tp1793
a(S'Celestine'
tp1794
a(S'Myrah'
tp1795
a(S'Sheeree'
tp1796
a(S'Helise'
tp1797
a(S'Dolores'
tp1798
a(S'Hyacinthia'
tp1799
a(S'Tina'
tp1800
a(S'Riki'
tp1801
a(S'Adelle'
tp1802
a(S'Corrine'
tp1803
a(S'Samuela'
tp1804
a(S'Nannette'
tp1805
a(S'Ginny'
tp1806
a(S'Dorrie'
tp1807
a(S'Lainey'
tp1808
a(S'Rakel'
tp1809
a(S'Kathie'
tp1810
a(S'Tami'
tp1811
a(S'Dedra'
tp1812
a(S'Wandie'
tp1813
a(S'Halette'
tp1814
a(S'Terrie'
tp1815
a(S'Rubetta'
tp1816
a(S'Janis'
tp1817
a(S'Kamillah'
tp1818
a(S'Catherine'
tp1819
a(S'Chicky'
tp1820
a(S'Renell'
tp1821
a(S'Emmie'
tp1822
a(S'Valene'
tp1823
a(S'Elisa'
tp1824
a(S'Kizzie'
tp1825
a(S'Meggan'
tp1826
a(S'Jonie'
tp1827
a(S'Donna'
tp1828
a(S'Emeline'
tp1829
a(S'Clerissa'
tp1830
a(S'Layney'
tp1831
a(S'Pandora'
tp1832
a(S'Elsi'
tp1833
a(S'Linnea'
tp1834
a(S'Shana'
tp1835
a(S'Leese'
tp1836
a(S'Maya'
tp1837
a(S'Bette'
tp1838
a(S'Darsie'
tp1839
a(S'Cody'
tp1840
a(S'Hermia'
tp1841
a(S'Row'
tp1842
a(S'Wilhelmina'
tp1843
a(S'Yoshi'
tp1844
a(S'Nicolea'
tp1845
a(S'Jerrilyn'
tp1846
a(S'Ellette'
tp1847
a(S'Gayle'
tp1848
a(S'Myrtia'
tp1849
a(S'Fiann'
tp1850
a(S'Jenette'
tp1851
a(S'Tia'
tp1852
a(S'Gennie'
tp1853
a(S'Oliy'
tp1854
a(S'Carey'
tp1855
a(S'Reeta'
tp1856
a(S'Mariska'
tp1857
a(S'Kee'
tp1858
a(S'Elna'
tp1859
a(S'Mozelle'
tp1860
a(S'Myna'
tp1861
a(S'Correy'
tp1862
a(S'Shaylyn'
tp1863
a(S'Calla'
tp1864
a(S'Melitta'
tp1865
a(S'Maggy'
tp1866
a(S'Korney'
tp1867
a(S'Analiese'
tp1868
a(S'Clarinda'
tp1869
a(S'Carlen'
tp1870
a(S'Vikkie'
tp1871
a(S'Flossy'
tp1872
a(S'Zia'
tp1873
a(S'Sharyl'
tp1874
a(S'Gwen'
tp1875
a(S'Almeta'
tp1876
a(S'Rhiamon'
tp1877
a(S'Nadiya'
tp1878
a(S'Trudie'
tp1879
a(S'Jeni'
tp1880
a(S'Maybelle'
tp1881
a(S'Jewel'
tp1882
a(S'Bunni'
tp1883
a(S'Carmine'
tp1884
a(S'Adelind'
tp1885
a(S'Kelcy'
tp1886
a(S'Calley'
tp1887
a(S'Maye'
tp1888
a(S'Gretna'
tp1889
a(S'Rayshell'
tp1890
a(S'Karol'
tp1891
a(S'Alyssa'
tp1892
a(S'Maxy'
tp1893
a(S'Tamera'
tp1894
a(S'Camile'
tp1895
a(S'Kameko'
tp1896
a(S'Anica'
tp1897
a(S'Shelbi'
tp1898
a(S'Evangelina'
tp1899
a(S'Krystal'
tp1900
a(S'Xylina'
tp1901
a(S'Melodie'
tp1902
a(S'Alane'
tp1903
a(S'Fayette'
tp1904
a(S'Kathe'
tp1905
a(S'Thalia'
tp1906
a(S'Atlanta'
tp1907
a(S'Ester'
tp1908
a(S'Concettina'
tp1909
a(S'Caresse'
tp1910
a(S'Jean'
tp1911
a(S'Lavina'
tp1912
a(S'Bernita'
tp1913
a(S'Wileen'
tp1914
a(S'Gracie'
tp1915
a(S'Tammi'
tp1916
a(S'Julianna'
tp1917
a(S'Kristine'
tp1918
a(S'Leontine'
tp1919
a(S'Di'
tp1920
a(S'Selma'
tp1921
a(S'Elnora'
tp1922
a(S'Merline'
tp1923
a(S'Lauralee'
tp1924
a(S'Georgena'
tp1925
a(S'Marcelia'
tp1926
a(S'Catarina'
tp1927
a(S'Samaria'
tp1928
a(S'Stacee'
tp1929
a(S'Aprilette'
tp1930
a(S'Rosita'
tp1931
a(S'Maddalena'
tp1932
a(S'Manya'
tp1933
a(S'Leonora'
tp1934
a(S'Garnet'
tp1935
a(S'Kassey'
tp1936
a(S'Nerta'
tp1937
a(S'Idell'
tp1938
a(S'Adoree'
tp1939
a(S'Flore'
tp1940
a(S'Gwenora'
tp1941
a(S'Robyn'
tp1942
a(S'Zsazsa'
tp1943
a(S'Brittney'
tp1944
a(S'Jacqui'
tp1945
a(S'Bab'
tp1946
a(S'Cynthie'
tp1947
a(S'Emylee'
tp1948
a(S'Meggi'
tp1949
a(S'Anet'
tp1950
a(S'Ruthy'
tp1951
a(S'Irene'
tp1952
a(S'Serene'
tp1953
a(S'Dulciana'
tp1954
a(S'Sandy'
tp1955
a(S'Renie'
tp1956
a(S'Jacki'
tp1957
a(S'Cassandry'
tp1958
a(S'Gianna'
tp1959
a(S'Claudette'
tp1960
a(S'Orelie'
tp1961
a(S'Kalie'
tp1962
a(S'Dacie'
tp1963
a(S'Annora'
tp1964
a(S'Felicia'
tp1965
a(S'Jo'
tp1966
a(S'Jude'
tp1967
a(S'Diena'
tp1968
a(S'Claudina'
tp1969
a(S'Willa'
tp1970
a(S'Paige'
tp1971
a(S'Tillie'
tp1972
a(S'Sheril'
tp1973
a(S'Christal'
tp1974
a(S'Wilow'
tp1975
a(S'Kristin'
tp1976
a(S'Jami'
tp1977
a(S'Eran'
tp1978
a(S'Marena'
tp1979
a(S'Beatrisa'
tp1980
a(S'Ilene'
tp1981
a(S'Charmane'
tp1982
a(S'Vania'
tp1983
a(S'Arabelle'
tp1984
a(S'Lissy'
tp1985
a(S'Alene'
tp1986
a(S'Loralie'
tp1987
a(S'Appolonia'
tp1988
a(S'Malorie'
tp1989
a(S'Matelda'
tp1990
a(S'Ardra'
tp1991
a(S'Mollee'
tp1992
a(S'Dulsea'
tp1993
a(S'Cindelyn'
tp1994
a(S'Idelle'
tp1995
a(S'Abby'
tp1996
a(S'Michaelina'
tp1997
a(S'Cris'
tp1998
a(S'Midge'
tp1999
a(S'Katherina'
tp2000
a(S'Katee'
tp2001
a(S'Lynda'
tp2002
a(S'Nady'
tp2003
a(S'Zara'
tp2004
a(S'Mead'
tp2005
a(S'Berna'
tp2006
a(S'Aubrette'
tp2007
a(S'Patti'
tp2008
a(S'Jacintha'
tp2009
a(S'Dyna'
tp2010
a(S'Martie'
tp2011
a(S'Ursula'
tp2012
a(S'Ninon'
tp2013
a(S'Marcelline'
tp2014
a(S'Korie'
tp2015
a(S'Lorie'
tp2016
a(S'Janella'
tp2017
a(S'Mariel'
tp2018
a(S'Susannah'
tp2019
a(S'Meryl'
tp2020
a(S'Agace'
tp2021
a(S'Bernelle'
tp2022
a(S'Randy'
tp2023
a(S'Florice'
tp2024
a(S'Coralyn'
tp2025
a(S'Prudence'
tp2026
a(S'Kevina'
tp2027
a(S'Veronica'
tp2028
a(S'Gisele'
tp2029
a(S'Grace'
tp2030
a(S'Chiquita'
tp2031
a(S'Marianna'
tp2032
a(S'Ingaborg'
tp2033
a(S'Leorah'
tp2034
a(S'Abbey'
tp2035
a(S'Leiah'
tp2036
a(S'Katya'
tp2037
a(S'Aline'
tp2038
a(S'Gennifer'
tp2039
a(S'Josey'
tp2040
a(S'Francine'
tp2041
a(S'Melva'
tp2042
a(S'Susanne'
tp2043
a(S'Charil'
tp2044
a(S'Malory'
tp2045
a(S'Vicky'
tp2046
a(S'Marlane'
tp2047
a(S'Dione'
tp2048
a(S'Rhona'
tp2049
a(S'Melodee'
tp2050
a(S'Page'
tp2051
a(S'Randa'
tp2052
a(S'Mindy'
tp2053
a(S'Johannah'
tp2054
a(S'Lotta'
tp2055
a(S'Betsy'
tp2056
a(S'Eydie'
tp2057
a(S'Celinka'
tp2058
a(S'Keslie'
tp2059
a(S'Amargo'
tp2060
a(S'Phylys'
tp2061
a(S'Rori'
tp2062
a(S'Ronni'
tp2063
a(S'Lavinia'
tp2064
a(S'Delia'
tp2065
a(S'Allison'
tp2066
a(S'Madlin'
tp2067
a(S'Aileen'
tp2068
a(S'Frances'
tp2069
a(S'Tessi'
tp2070
a(S'Kristy'
tp2071
a(S'Becky'
tp2072
a(S'Coretta'
tp2073
a(S'Ailina'
tp2074
a(S'Brana'
tp2075
a(S'Carmelia'
tp2076
a(S'Ainslie'
tp2077
a(S'Bea'
tp2078
a(S'Almeda'
tp2079
a(S"E'Lane"
tp2080
a(S'Marielle'
tp2081
a(S'Candis'
tp2082
a(S'Iolanthe'
tp2083
a(S'Mae'
tp2084
a(S'Romy'
tp2085
a(S'Olenka'
tp2086
a(S'Suki'
tp2087
a(S'Henrietta'
tp2088
a(S'Constancy'
tp2089
a(S'Rania'
tp2090
a(S'Betteanne'
tp2091
a(S'Deloris'
tp2092
a(S'Veronike'
tp2093
a(S'Jillene'
tp2094
a(S'Ofella'
tp2095
a(S'Clementine'
tp2096
a(S'Elisabeth'
tp2097
a(S'Teresita'
tp2098
a(S'Mariam'
tp2099
a(S'Torey'
tp2100
a(S'Eleanora'
tp2101
a(S'Roby'
tp2102
a(S'Daile'
tp2103
a(S'Elvira'
tp2104
a(S'Gerhardine'
tp2105
a(S'Kevyn'
tp2106
a(S'Sydelle'
tp2107
a(S'Katti'
tp2108
a(S'Sibylle'
tp2109
a(S'Carena'
tp2110
a(S'Heidi'
tp2111
a(S'Quintina'
tp2112
a(S'Gae'
tp2113
a(S'Guenevere'
tp2114
a(S'Emmalynne'
tp2115
a(S'Lisetta'
tp2116
a(S'Shaylah'
tp2117
a(S'Christian'
tp2118
a(S'Marquita'
tp2119
a(S'Isabel'
tp2120
a(S'Cinderella'
tp2121
a(S'Leonie'
tp2122
a(S'Linn'
tp2123
a(S'Hermine'
tp2124
a(S'Rozina'
tp2125
a(S'Edy'
tp2126
a(S'Myrlene'
tp2127
a(S'Malkah'
tp2128
a(S'Doralynne'
tp2129
a(S'Blinnie'
tp2130
a(S'Jammie'
tp2131
a(S'Colline'
tp2132
a(S'Nelia'
tp2133
a(S'Murial'
tp2134
a(S'Helli'
tp2135
a(S'Sara-Ann'
tp2136
a(S'Jacenta'
tp2137
a(S'Carlotta'
tp2138
a(S'Allina'
tp2139
a(S'Rosalynd'
tp2140
a(S'Shanon'
tp2141
a(S'Susi'
tp2142
a(S'Vivianna'
tp2143
a(S'Adela'
tp2144
a(S'Fedora'
tp2145
a(S'Harriett'
tp2146
a(S'Cindi'
tp2147
a(S'Yoko'
tp2148
a(S'Wendi'
tp2149
a(S'Shalna'
tp2150
a(S'Adelina'
tp2151
a(S'Marina'
tp2152
a(S'Carlin'
tp2153
a(S'Larina'
tp2154
a(S'Shannah'
tp2155
a(S'Peggi'
tp2156
a(S'Deirdre'
tp2157
a(S'Kiley'
tp2158
a(S'Maryl'
tp2159
a(S'Clementia'
tp2160
a(S'Christiana'
tp2161
a(S'Fredericka'
tp2162
a(S'Francesmary'
tp2163
a(S'Jacinda'
tp2164
a(S'Merrielle'
tp2165
a(S'Rafa'
tp2166
a(S'Clarisse'
tp2167
a(S'Alanah'
tp2168
a(S'Muire'
tp2169
a(S'Eugenia'
tp2170
a(S'Adiana'
tp2171
a(S'Lissie'
tp2172
a(S'Venus'
tp2173
a(S'Joann'
tp2174
a(S'Wendeline'
tp2175
a(S'Brunella'
tp2176
a(S'Corenda'
tp2177
a(S'Tory'
tp2178
a(S'Emmalyn'
tp2179
a(S'Evette'
tp2180
a(S'Rayna'
tp2181
a(S'Harmonie'
tp2182
a(S'Jaclyn'
tp2183
a(S'Demetria'
tp2184
a(S'Dorolice'
tp2185
a(S'Emelita'
tp2186
a(S'Tella'
tp2187
a(S'Lilllie'
tp2188
a(S'Angelika'
tp2189
a(S'Xaviera'
tp2190
a(S'Rory'
tp2191
a(S'Moria'
tp2192
a(S'Gussy'
tp2193
a(S'Willyt'
tp2194
a(S'Charisse'
tp2195
a(S'Chastity'
tp2196
a(S'Ediva'
tp2197
a(S'Opal'
tp2198
a(S'Madelena'
tp2199
a(S'Cybel'
tp2200
a(S'Geneva'
tp2201
a(S'Emmi'
tp2202
a(S'Margarette'
tp2203
a(S'Caritta'
tp2204
a(S'Marna'
tp2205
a(S'Chelsie'
tp2206
a(S'Truda'
tp2207
a(S'Abigael'
tp2208
a(S'Kordula'
tp2209
a(S'Chrissa'
tp2210
a(S'Gail'
tp2211
a(S'Michal'
tp2212
a(S'Tamar'
tp2213
a(S'Kelcie'
tp2214
a(S'Laurice'
tp2215
a(S'Yonina'
tp2216
a(S'Gloriane'
tp2217
a(S'Bonita'
tp2218
a(S'Alys'
tp2219
a(S'Christine'
tp2220
a(S'Dania'
tp2221
a(S'Fredi'
tp2222
a(S'Wini'
tp2223
a(S'Elise'
tp2224
a(S'Courtenay'
tp2225
a(S'Doro'
tp2226
a(S'Kamila'
tp2227
a(S'Kari'
tp2228
a(S'Adriane'
tp2229
a(S'Batsheva'
tp2230
a(S'Lin'
tp2231
a(S'Twyla'
tp2232
a(S'Althea'
tp2233
a(S'Elene'
tp2234
a(S'Katie'
tp2235
a(S'Millicent'
tp2236
a(S'Tabby'
tp2237
a(S'Kiele'
tp2238
a(S'Nicolette'
tp2239
a(S'Ruthann'
tp2240
a(S'Cabrina'
tp2241
a(S'Laverna'
tp2242
a(S'Tildie'
tp2243
a(S'Vere'
tp2244
a(S'Erica'
tp2245
a(S'Elisabetta'
tp2246
a(S'Paulette'
tp2247
a(S'Kellia'
tp2248
a(S'Katalin'
tp2249
a(S'Celle'
tp2250
a(S'Hinda'
tp2251
a(S'Davita'
tp2252
a(S'Layne'
tp2253
a(S'Charissa'
tp2254
a(S'Tabbatha'
tp2255
a(S'Erma'
tp2256
a(S'Mufinella'
tp2257
a(S'Morna'
tp2258
a(S'Latia'
tp2259
a(S'Tessie'
tp2260
a(S'Engracia'
tp2261
a(S'Hettie'
tp2262
a(S'Gwendolyn'
tp2263
a(S'Nicola'
tp2264
a(S'Magda'
tp2265
a(S'Nolie'
tp2266
a(S'Fayre'
tp2267
a(S'Elie'
tp2268
a(S'Jessika'
tp2269
a(S'Danelle'
tp2270
a(S'Jillayne'
tp2271
a(S'Jilli'
tp2272
a(S'Maren'
tp2273
a(S'Vivianne'
tp2274
a(S'Janine'
tp2275
a(S'Nitin'
tp2276
a(S'Octavia'
tp2277
a(S'Ninnetta'
tp2278
a(S'Dyana'
tp2279
a(S'Candice'
tp2280
a(S'Madelyn'
tp2281
a(S'Belita'
tp2282
a(S'Danna'
tp2283
a(S'Lea'
tp2284
a(S'Janeva'
tp2285
a(S'Barrie'
tp2286
a(S'Helsa'
tp2287
a(S'Josephine'
tp2288
a(S'Rey'
tp2289
a(S'Taryn'
tp2290
a(S'Oneida'
tp2291
a(S'Valaree'
tp2292
a(S'Hyacintha'
tp2293
a(S'Gelya'
tp2294
a(S'Daffie'
tp2295
a(S'Juliane'
tp2296
a(S'Melisa'
tp2297
a(S'Kerianne'
tp2298
a(S'Diane-Marie'
tp2299
a(S'Cheryl'
tp2300
a(S'Leontyne'
tp2301
a(S'Zarla'
tp2302
a(S'Catherin'
tp2303
a(S'Shell'
tp2304
a(S'Robbyn'
tp2305
a(S'Tomasine'
tp2306
a(S'Patrice'
tp2307
a(S'Nanni'
tp2308
a(S'Marla'
tp2309
a(S'Angel'
tp2310
a(S'Floria'
tp2311
a(S'Lolande'
tp2312
a(S'Suzy'
tp2313
a(S'Candie'
tp2314
a(S'Corina'
tp2315
a(S'Arabela'
tp2316
a(S'Erminia'
tp2317
a(S'Jeanelle'
tp2318
a(S'Darcie'
tp2319
a(S'Brynna'
tp2320
a(S'Jesse'
tp2321
a(S'Aggy'
tp2322
a(S'Sharon'
tp2323
a(S'Leland'
tp2324
a(S'Sonny'
tp2325
a(S'Ania'
tp2326
a(S'Fernanda'
tp2327
a(S'Tedda'
tp2328
a(S'Hellene'
tp2329
a(S'Cesya'
tp2330
a(S'Jandy'
tp2331
a(S'Sigrid'
tp2332
a(S'Lindi'
tp2333
a(S'Lane'
tp2334
a(S'Mada'
tp2335
a(S'Fiona'
tp2336
a(S'Cordula'
tp2337
a(S'Karie'
tp2338
a(S'Frayda'
tp2339
a(S'Aurlie'
tp2340
a(S'Trixy'
tp2341
a(S'Lynne'
tp2342
a(S'Erinna'
tp2343
a(S'Diann'
tp2344
a(S'Colene'
tp2345
a(S'Starr'
tp2346
a(S'Cissy'
tp2347
a(S'Caitrin'
tp2348
a(S'Cordey'
tp2349
a(S'Joslyn'
tp2350
a(S'Shirline'
tp2351
a(S'Theresina'
tp2352
a(S'Aubrey'
tp2353
a(S'Antonina'
tp2354
a(S'Karisa'
tp2355
a(S'Karalee'
tp2356
a(S'Charlot'
tp2357
a(S'Ingeborg'
tp2358
a(S'Rosabelle'
tp2359
a(S'Thomasine'
tp2360
a(S'Virgie'
tp2361
a(S'Ula'
tp2362
a(S'Morganne'
tp2363
a(S'Tiphani'
tp2364
a(S'Winnie'
tp2365
a(S'Gabriela'
tp2366
a(S'Gwenn'
tp2367
a(S'Shina'
tp2368
a(S'Deanne'
tp2369
a(S'Lucienne'
tp2370
a(S'Ardyce'
tp2371
a(S'Farra'
tp2372
a(S'Sabine'
tp2373
a(S'Dallas'
tp2374
a(S'Van'
tp2375
a(S'Lynnett'
tp2376
a(S'Brunhilde'
tp2377
a(S'Berty'
tp2378
a(S'Robenia'
tp2379
a(S'Laraine'
tp2380
a(S'Fawn'
tp2381
a(S'Cybelle'
tp2382
a(S'Shantee'
tp2383
a(S'Denna'
tp2384
a(S'Etti'
tp2385
a(S'Mellie'
tp2386
a(S'Lauraine'
tp2387
a(S'Norine'
tp2388
a(S'Henka'
tp2389
a(S'Freida'
tp2390
a(S'Kirbee'
tp2391
a(S'Carolyne'
tp2392
a(S'Maura'
tp2393
a(S'Maddie'
tp2394
a(S'Liora'
tp2395
a(S'Sherye'
tp2396
a(S'Emmalynn'
tp2397
a(S'Inci'
tp2398
a(S'Jordan'
tp2399
a(S'Jennica'
tp2400
a(S'Jo-Ann'
tp2401
a(S'Gray'
tp2402
a(S'Cornelia'
tp2403
a(S'Carine'
tp2404
a(S'Ranique'
tp2405
a(S'Lanna'
tp2406
a(S'Marguerite'
tp2407
a(S'Jackqueline'
tp2408
a(S'Shandra'
tp2409
a(S'Louisette'
tp2410
a(S'Loree'
tp2411
a(S'Pansy'
tp2412
a(S'Hilde'
tp2413
a(S'Lorianna'
tp2414
a(S'Jo'
S'Ann'
tp2415
a(S'Britta'
tp2416
a(S'Mmarianne'
tp2417
a(S'Grazia'
tp2418
a(S'Nancy'
tp2419
a(S'Anetta'
tp2420
a(S'Chelsae'
tp2421
a(S'Virgina'
tp2422
a(S'Clair'
tp2423
a(S'Vickie'
tp2424
a(S'Ethelin'
tp2425
a(S'Paolina'
tp2426
a(S'Wilona'
tp2427
a(S'Nelly'
tp2428
a(S'Evania'
tp2429
a(S'Alejandrina'
tp2430
a(S'Marji'
tp2431
a(S'Melisent'
tp2432
a(S'Cari'
tp2433
a(S'Farah'
tp2434
a(S'Maisey'
tp2435
a(S'Nicol'
tp2436
a(S'Leoine'
tp2437
a(S'Saree'
tp2438
a(S'Gilbertine'
tp2439
a(S'Babita'
tp2440
a(S'Eimile'
tp2441
a(S'Merissa'
tp2442
a(S'Effie'
tp2443
a(S'Natalina'
tp2444
a(S'Nancie'
tp2445
a(S'Shira'
tp2446
a(S'Marian'
tp2447
a(S'Anselma'
tp2448
a(S'Jocelyne'
tp2449
a(S'Helaine'
tp2450
a(S'Melita'
tp2451
a(S'Corey'
tp2452
a(S'Meridith'
tp2453
a(S'Aubree'
tp2454
a(S'Andromache'
tp2455
a(S'Nadia'
tp2456
a(S'Mariele'
tp2457
a(S'Cristen'
tp2458
a(S'Clemmy'
tp2459
a(S'Karlen'
tp2460
a(S'Rozele'
tp2461
a(S'Clari'
tp2462
a(S'Aleece'
tp2463
a(S'Fernande'
tp2464
a(S'Dinah'
tp2465
a(S'Ibby'
tp2466
a(S'Karna'
tp2467
a(S'Wallis'
tp2468
a(S'Faustine'
tp2469
a(S'Kaylee'
tp2470
a(S'Marketa'
tp2471
a(S'Ermina'
tp2472
a(S'Doe'
tp2473
a(S'Janice'
tp2474
a(S'Sephira'
tp2475
a(S'Carlynn'
tp2476
a(S'Martha'
tp2477
a(S'Ange'
tp2478
a(S'Merl'
tp2479
a(S'Maxi'
tp2480
a(S'Winnah'
tp2481
a(S'Vanessa'
tp2482
a(S'Isabeau'
tp2483
a(S'Dorri'
tp2484
a(S'Desiree'
tp2485
a(S'Anny'
tp2486
a(S'Raynell'
tp2487
a(S'Tootsie'
tp2488
a(S'Merrile'
tp2489
a(S'Tony'
tp2490
a(S'Addie'
tp2491
a(S'Leda'
tp2492
a(S'Codi'
tp2493
a(S'Catherina'
tp2494
a(S'Francis'
tp2495
a(S'Claudelle'
tp2496
a(S'Othilia'
tp2497
a(S'Orelle'
tp2498
a(S'Gilberta'
tp2499
a(S'Fallon'
tp2500
a(S'Bree'
tp2501
a(S'Karleen'
tp2502
a(S'Romonda'
tp2503
a(S'Cyb'
tp2504
a(S'Elberta'
tp2505
a(S'Pearline'
tp2506
a(S'Quintilla'
tp2507
a(S'Penelopa'
tp2508
a(S'Stephanie'
tp2509
a(S'Rebeca'
tp2510
a(S'Georgiamay'
tp2511
a(S'Catha'
tp2512
a(S'Marleen'
tp2513
a(S'Gratiana'
tp2514
a(S'Imojean'
tp2515
a(S'Rafaela'
tp2516
a(S'Roberta'
tp2517
a(S'Tobi'
tp2518
a(S'Roselle'
tp2519
a(S'Maggi'
tp2520
a(S'Gusella'
tp2521
a(S'Siouxie'
tp2522
a(S'Liana'
tp2523
a(S'Chloris'
tp2524
a(S'Benedicta'
tp2525
a(S'Stevana'
tp2526
a(S'Agnola'
tp2527
a(S'Imogen'
tp2528
a(S'Eddy'
tp2529
a(S'Averyl'
tp2530
a(S'Julienne'
tp2531
a(S'Jada'
tp2532
a(S'Laurel'
tp2533
a(S'Bliss'
tp2534
a(S'Augusta'
tp2535
a(S'Kalinda'
tp2536
a(S'Nat'
tp2537
a(S'Roselyn'
tp2538
a(S'Sheri'
tp2539
a(S'Legra'
tp2540
a(S'Stacia'
tp2541
a(S'Audi'
tp2542
a(S'Cicely'
tp2543
a(S'Kelci'
tp2544
a(S'Roxie'
tp2545
a(S'Anabelle'
tp2546
a(S'Joelle'
tp2547
a(S'Emelina'
tp2548
a(S'Benny'
tp2549
a(S'Hestia'
tp2550
a(S'Lyn'
tp2551
a(S'Patsy'
tp2552
a(S'Pammy'
tp2553
a(S'Kimberley'
tp2554
a(S'Emelia'
tp2555
a(S'Aleta'
tp2556
a(S'Aphrodite'
tp2557
a(S'Merrili'
tp2558
a(S'Evaleen'
tp2559
a(S'Jere'
tp2560
a(S'Fiorenze'
tp2561
a(S'Tiff'
tp2562
a(S'Fanchon'
tp2563
a(S'Tierney'
tp2564
a(S'Odette'
tp2565
a(S'Claresta'
tp2566
a(S'Constanta'
tp2567
a(S'Edithe'
tp2568
a(S'Edin'
tp2569
a(S'Odella'
tp2570
a(S'Mellisent'
tp2571
a(S'Bettye'
tp2572
a(S'Pearle'
tp2573
a(S'Janey'
tp2574
a(S'Kia'
tp2575
a(S'Dyann'
tp2576
a(S'Iormina'
tp2577
a(S'Idette'
tp2578
a(S'Roselia'
tp2579
a(S'Ruthie'
tp2580
a(S'Coral'
tp2581
a(S'Glynnis'
tp2582
a(S'Rebe'
tp2583
a(S'Merralee'
tp2584
a(S'Kali'
tp2585
a(S'Lucilia'
tp2586
a(S'Mariquilla'
tp2587
a(S'Dorelia'
tp2588
a(S'Rubie'
tp2589
a(S'Ronica'
tp2590
a(S'Caren'
tp2591
a(S'Feodora'
tp2592
a(S'Arly'
tp2593
a(S'Sylvie'
tp2594
a(S'Monica'
tp2595
a(S'Lorinda'
tp2596
a(S'Sandra'
tp2597
a(S'Felicity'
tp2598
a(S'Petronille'
tp2599
a(S'Maire'
tp2600
a(S'Rita'
tp2601
a(S'Rosana'
tp2602
a(S'Gleda'
tp2603
a(S'Carlina'
tp2604
a(S'Margie'
tp2605
a(S'Fabrice'
tp2606
a(S'Julia'
tp2607
a(S'Netti'
tp2608
a(S'Gerda'
tp2609
a(S'Merridie'
tp2610
a(S'Juliana'
tp2611
a(S'Katharine'
tp2612
a(S'Opalina'
tp2613
a(S'Sandi'
tp2614
a(S'Bess'
tp2615
a(S'Christin'
tp2616
a(S'Jacky'
tp2617
a(S'Zondra'
tp2618
a(S'Ofelia'
tp2619
a(S'Debbi'
tp2620
a(S'Ginelle'
tp2621
a(S'Teena'
tp2622
a(S'Davine'
tp2623
a(S'Olga'
tp2624
a(S'Elizabet'
tp2625
a(S'Sheba'
tp2626
a(S'Nyssa'
tp2627
a(S'Winona'
tp2628
a(S'Georgeta'
tp2629
a(S'Mella'
tp2630
a(S'Dari'
tp2631
a(S'Lethia'
tp2632
a(S'Marta'
tp2633
a(S'Jessi'
tp2634
a(S'Mikako'
tp2635
a(S'Cherri'
tp2636
a(S'Elga'
tp2637
a(S'Darleen'
tp2638
a(S'Sean'
tp2639
a(S'Valentine'
tp2640
a(S'Mela'
tp2641
a(S'Lissi'
tp2642
a(S'Carmen'
tp2643
a(S'Reeva'
tp2644
a(S'Maegan'
tp2645
a(S'Willie'
tp2646
a(S'Kyrstin'
tp2647
a(S'Jany'
tp2648
a(S'Adi'
tp2649
a(S'Cordy'
tp2650
a(S'Rachel'
tp2651
a(S'Lorianne'
tp2652
a(S'Minna'
tp2653
a(S'Sisely'
tp2654
a(S'Ketti'
tp2655
a(S'Riane'
tp2656
a(S'Crissy'
tp2657
a(S'Kacy'
tp2658
a(S'Wren'
tp2659
a(S'Jamima'
tp2660
a(S'Dale'
tp2661
a(S'Marie'
tp2662
a(S'Vivienne'
tp2663
a(S'Tamara'
tp2664
a(S'Vivi'
tp2665
a(S'Matti'
tp2666
a(S'Eadie'
tp2667
a(S'Conney'
tp2668
a(S'Hallie'
tp2669
a(S'Enrica'
tp2670
a(S'Aindrea'
tp2671
a(S'Faunie'
tp2672
a(S'Melosa'
tp2673
a(S'Cara'
tp2674
a(S'Ruthanne'
tp2675
a(S'Tabitha'
tp2676
a(S'Jackie'
tp2677
a(S'Ashely'
tp2678
a(S'Marysa'
tp2679
a(S'Isahella'
tp2680
a(S'Charmain'
tp2681
a(S'Berthe'
tp2682
a(S'Julie'
tp2683
a(S'Luci'
tp2684
a(S'Randi'
tp2685
a(S'Christan'
tp2686
a(S'Jemima'
tp2687
a(S'Sibyl'
tp2688
a(S'Nikki'
tp2689
a(S'Alicia'
tp2690
a(S'Mairead'
tp2691
a(S'Corrie'
tp2692
a(S'Trenna'
tp2693
a(S'Helyn'
tp2694
a(S'Faun'
tp2695
a(S'Nadeen'
tp2696
a(S'Pamela'
tp2697
a(S'Hermione'
tp2698
a(S'Christel'
tp2699
a(S'Genni'
tp2700
a(S'Tatum'
tp2701
a(S'Giralda'
tp2702
a(S'Ilyssa'
tp2703
a(S'Idalia'
tp2704
a(S'Madelon'
tp2705
a(S'Fayina'
tp2706
a(S'Marice'
tp2707
a(S'Augustine'
tp2708
a(S'Jayme'
tp2709
a(S'Grayce'
tp2710
a(S'Enrichetta'
tp2711
a(S'Shayne'
tp2712
a(S'Seline'
tp2713
a(S'Marj'
tp2714
a(S'Coreen'
tp2715
a(S'Leona'
tp2716
a(S'Chelsea'
tp2717
a(S'Caryl'
tp2718
a(S'Rhonda'
tp2719
a(S'Callie'
tp2720
a(S'Kissie'
tp2721
a(S'Nara'
tp2722
a(S'Marisa'
tp2723
a(S'Robby'
tp2724
a(S'Jerry'
tp2725
a(S'Darryl'
tp2726
a(S'Judy'
tp2727
a(S'Tessy'
tp2728
a(S'Cristie'
tp2729
a(S'Nana'
tp2730
a(S'Orsola'
tp2731
a(S'Filide'
tp2732
a(S'Agatha'
tp2733
a(S'Vinita'
tp2734
a(S'Hermina'
tp2735
a(S'Ekaterina'
tp2736
a(S'Alfreda'
tp2737
a(S'Helen-Elizabeth'
tp2738
a(S'Lucina'
tp2739
a(S'Dolli'
tp2740
a(S'Phillida'
tp2741
a(S'Gladis'
tp2742
a(S'Dorotea'
tp2743
a(S'Janenna'
tp2744
a(S'Lynnet'
tp2745
a(S'Callida'
tp2746
a(S'Jane'
tp2747
a(S'Emyle'
tp2748
a(S'Gabbie'
tp2749
a(S'Lisandra'
tp2750
a(S'Letty'
tp2751
a(S'Hesther'
tp2752
a(S'Marcille'
tp2753
a(S'Rennie'
tp2754
a(S'Glyn'
tp2755
a(S'Morgan'
tp2756
a(S'Bamby'
tp2757
a(S'Hanny'
tp2758
a(S'Jacquenette'
tp2759
a(S'Celeste'
tp2760
a(S'Misti'
tp2761
a(S'Dorree'
tp2762
a(S'Sarine'
tp2763
a(S'Francisca'
tp2764
a(S'Teriann'
tp2765
a(S'Rebecca'
tp2766
a(S'Cheslie'
tp2767
a(S'Aleecia'
tp2768
a(S'Norah'
tp2769
a(S'Ilka'
tp2770
a(S'Cathee'
tp2771
a(S'Belvia'
tp2772
a(S'Daphna'
tp2773
a(S'Zilvia'
tp2774
a(S'Pet'
tp2775
a(S'Penny'
tp2776
a(S'Melisse'
tp2777
a(S'Eloise'
tp2778
a(S'Bill'
tp2779
a(S'Brianna'
tp2780
a(S'Deerdre'
tp2781
a(S'Eve'
tp2782
a(S'Mahalia'
tp2783
a(S'Lulu'
tp2784
a(S'Katinka'
tp2785
a(S'Phebe'
tp2786
a(S'Heidie'
tp2787
a(S'Nancey'
tp2788
a(S'Sibby'
tp2789
a(S'Mag'
tp2790
a(S'Umeko'
tp2791
a(S'Madelle'
tp2792
a(S'Konstanze'
tp2793
a(S'Lilian'
tp2794
a(S'Stafani'
tp2795
a(S'Laurette'
tp2796
a(S'Marita'
tp2797
a(S'Katheryn'
tp2798
a(S'Bridie'
tp2799
a(S'Lida'
tp2800
a(S'Aleen'
tp2801
a(S'Nanon'
tp2802
a(S'Lizette'
tp2803
a(S'Shirley'
tp2804
a(S'Dagmar'
tp2805
a(S'Gabriella'
tp2806
a(S'Missie'
tp2807
a(S'Jeanna'
tp2808
a(S'Ruthi'
tp2809
a(S'Cecily'
tp2810
a(S'Meg'
tp2811
a(S'Babara'
tp2812
a(S'Tish'
tp2813
a(S'Sileas'
tp2814
a(S'Priscilla'
tp2815
a(S'Devondra'
tp2816
a(S'Star'
tp2817
a(S'Andree'
tp2818
a(S'Shilpa'
tp2819
a(S'Britt'
tp2820
a(S'Geralda'
tp2821
a(S'Pippa'
tp2822
a(S'Ema'
tp2823
a(S'Maryanna'
tp2824
a(S'Peria'
tp2825
a(S'Gabie'
tp2826
a(S'Vena'
tp2827
a(S'Rissa'
tp2828
a(S'Lillis'
tp2829
a(S'Marge'
tp2830
a(S'Pearla'
tp2831
a(S'Korrie'
tp2832
a(S'Leanne'
tp2833
a(S'Felicdad'
tp2834
a(S'Christy'
tp2835
a(S'Joycelin'
tp2836
a(S'Lebbie'
tp2837
a(S'Tammie'
tp2838
a(S'Angela'
tp2839
a(S'Deana'
tp2840
a(S'Ada'
tp2841
a(S'Horatia'
tp2842
a(S'Alisun'
tp2843
a(S'Bryana'
tp2844
a(S'Marcile'
tp2845
a(S'Constantina'
tp2846
a(S'Coriss'
tp2847
a(S'Ginger'
tp2848
a(S'Robinetta'
tp2849
a(S'Laura'
tp2850
a(S'Lucia'
tp2851
a(S'Thekla'
tp2852
a(S'Harriott'
tp2853
a(S'Caroleen'
tp2854
a(S'Daphene'
tp2855
a(S'Clarice'
tp2856
a(S'Austine'
tp2857
a(S'Sada'
tp2858
a(S'Renel'
tp2859
a(S'Cherlyn'
tp2860
a(S'Anett'
tp2861
a(S'Freddie'
tp2862
a(S'Ailene'
tp2863
a(S'Corrianne'
tp2864
a(S'Francene'
tp2865
a(S'Letta'
tp2866
a(S'Chantal'
tp2867
a(S'Virginia'
tp2868
a(S'Sherry'
tp2869
a(S'Jaquelin'
tp2870
a(S'Heide'
tp2871
a(S'Roxana'
tp2872
a(S'Florencia'
tp2873
a(S'Caroline'
tp2874
a(S'Sharna'
tp2875
a(S'Vicki'
tp2876
a(S'Reta'
tp2877
a(S'Jasmina'
tp2878
a(S'Golda'
tp2879
a(S'Ranna'
tp2880
a(S'Annabal'
tp2881
a(S'Lilas'
tp2882
a(S'Anastasie'
tp2883
a(S'Kary'
tp2884
a(S'Gussie'
tp2885
a(S'Catlaina'
tp2886
a(S'Kanya'
tp2887
a(S'Reine'
tp2888
a(S'Bathsheba'
tp2889
a(S'Emelda'
tp2890
a(S'Mehetabel'
tp2891
a(S'Courtney'
tp2892
a(S'Doreen'
tp2893
a(S'Enid'
tp2894
a(S'Marlene'
tp2895
a(S'Aveline'
tp2896
a(S'Joellen'
tp2897
a(S'Lacie'
tp2898
a(S'Roze'
tp2899
a(S'Rhody'
tp2900
a(S'Violette'
tp2901
a(S'Marietta'
tp2902
a(S'Rosa'
tp2903
a(S'Emmaline'
tp2904
a(S'Carilyn'
tp2905
a(S'Fortuna'
tp2906
a(S'Gusty'
tp2907
a(S'Ellissa'
tp2908
a(S'Arlie'
tp2909
a(S'Nadine'
tp2910
a(S'Elfreda'
tp2911
a(S'Tallia'
tp2912
a(S'Dove'
tp2913
a(S'Joell'
tp2914
a(S'Antonie'
tp2915
a(S'Alysa'
tp2916
a(S'Starlin'
tp2917
a(S'Daisy'
tp2918
a(S'Cornela'
tp2919
a(S'Daniella'
tp2920
a(S'Teri'
tp2921
a(S'Florinda'
tp2922
a(S'Janeta'
tp2923
a(S'Aurelie'
tp2924
a(S'Theresa'
tp2925
a(S'Camella'
tp2926
a(S'Anestassia'
tp2927
a(S'Colleen'
tp2928
a(S'Dierdre'
tp2929
a(S'Marje'
tp2930
a(S'Lindsy'
tp2931
a(S'Maggie'
tp2932
a(S'Dotty'
tp2933
a(S'Rivalee'
tp2934
a(S'Dori'
tp2935
a(S'Elianora'
tp2936
a(S'Lanie'
tp2937
a(S'Sindee'
tp2938
a(S'Charmion'
tp2939
a(S'Caroljean'
tp2940
a(S'Stoddard'
tp2941
a(S'Edwina'
tp2942
a(S'Nisa'
tp2943
a(S'Melany'
tp2944
a(S'Sapphira'
tp2945
a(S'Rebecka'
tp2946
a(S'Lyndel'
tp2947
a(S'Brittany'
tp2948
a(S'Corena'
tp2949
a(S'Kasey'
tp2950
a(S'Elbertine'
tp2951
a(S'Rozanna'
tp2952
a(S'Cristabel'
tp2953
a(S'Harriet'
tp2954
a(S'Chriss'
tp2955
a(S'Daryl'
tp2956
a(S'Jessie'
tp2957
a(S'Roslyn'
tp2958
a(S'Lynnette'
tp2959
a(S'Carrie'
tp2960
a(S'Sheila-Kathryn'
tp2961
a(S'Daisie'
tp2962
a(S'Reyna'
tp2963
a(S'Marit'
tp2964
a(S'Mignonne'
tp2965
a(S'Bianca'
tp2966
a(S'Deonne'
tp2967
a(S'Emlynn'
tp2968
a(S'Dorice'
tp2969
a(S'Isabelle'
tp2970
a(S'Liliane'
tp2971
a(S'Adore'
tp2972
a(S'Nicki'
tp2973
a(S'Consuelo'
tp2974
a(S'Marabel'
tp2975
a(S'Briny'
tp2976
a(S'Alyss'
tp2977
a(S'Jessalyn'
tp2978
a(S'Bobette'
tp2979
a(S'Kelsi'
tp2980
a(S'Paula'
tp2981
a(S'Pru'
tp2982
a(S'Kathleen'
tp2983
a(S'Birgitta'
tp2984
a(S'Zelda'
tp2985
a(S'Alberta'
tp2986
a(S'Liorah'
tp2987
a(S'Goldie'
tp2988
a(S'Chandal'
tp2989
a(S'Delphina'
tp2990
a(S'Bebe'
tp2991
a(S'Zorah'
tp2992
a(S'Calida'
tp2993
a(S'Lindy'
tp2994
a(S'Kristel'
tp2995
a(S'Acacia'
tp2996
a(S'Noell'
tp2997
a(S'Honoria'
tp2998
a(S'Blisse'
tp2999
a(S'Hannis'
tp3000
a(S'Mallissa'
tp3001
a(S'Barbra'
tp3002
a(S'Bekki'
tp3003
a(S'Deena'
tp3004
a(S'Merrilee'
tp3005
a(S'Lisabeth'
tp3006
a(S'Sherline'
tp3007
a(S'Annabelle'
tp3008
a(S'Ulrike'
tp3009
a(S'Martina'
tp3010
a(S'Kissiah'
tp3011
a(S'Kirsti'
tp3012
a(S'Rodi'
tp3013
a(S'Karine'
tp3014
a(S'Eda'
tp3015
a(S'Ava'
tp3016
a(S'Maridel'
tp3017
a(S'Love'
tp3018
a(S'Fawne'
tp3019
a(S'Rona'
tp3020
a(S'Cecilia'
tp3021
a(S'Felecia'
tp3022
a(S'Edith'
tp3023
a(S'Nora'
tp3024
a(S'Megen'
tp3025
a(S'Kaylil'
tp3026
a(S'Tilda'
tp3027
a(S'Nani'
tp3028
a(S'Ted'
tp3029
a(S'Janela'
tp3030
a(S'Lamb'
tp3031
a(S'Annmaria'
tp3032
a(S'Secunda'
tp3033
a(S'Valma'
tp3034
a(S'Sharra'
tp3035
a(S'Berti'
tp3036
a(S'Charlotta'
tp3037
a(S'Shawnee'
tp3038
a(S'Giselle'
tp3039
a(S'Gerladina'
tp3040
a(S'Kata'
tp3041
a(S'Devonna'
tp3042
a(S'Mona'
tp3043
a(S'Fancie'
tp3044
a(S'Hedvig'
tp3045
a(S'Luisa'
tp3046
a(S'Madge'
tp3047
a(S'Carli'
tp3048
a(S'Anabel'
tp3049
a(S'Avrit'
tp3050
a(S'Allegra'
tp3051
a(S'Heloise'
tp3052
a(S'Silvana'
tp3053
a(S'Emma'
tp3054
a(S'Amelie'
tp3055
a(S'Oreste'
tp3056
a(S'Shannon'
tp3057
a(S'Elyssa'
tp3058
a(S'Ardella'
tp3059
a(S'Goldi'
tp3060
a(S'Claudia'
tp3061
a(S'Alysia'
tp3062
a(S'Blaire'
tp3063
a(S'Luna'
tp3064
a(S'Esmerelda'
tp3065
a(S'Aurilia'
tp3066
a(S'Liuka'
tp3067
a(S'Krystalle'
tp3068
a(S'Valaria'
tp3069
a(S'Clare'
tp3070
a(S'Peggie'
tp3071
a(S'Daloris'
tp3072
a(S'Melony'
tp3073
a(S'Sayre'
tp3074
a(S'Nessa'
tp3075
a(S'Florina'
tp3076
a(S'Savina'
tp3077
a(S'Cosette'
tp3078
a(S'Lavena'
tp3079
a(S'Nanci'
tp3080
a(S'Eleanor'
tp3081
a(S'Kattie'
tp3082
a(S'Esmeralda'
tp3083
a(S'Katha'
tp3084
a(S'Ivy'
tp3085
a(S'Cristine'
tp3086
a(S'Eudora'
tp3087
a(S'Nertie'
tp3088
a(S'Andie'
tp3089
a(S'Heddi'
tp3090
a(S'Nelli'
tp3091
a(S'Casia'
tp3092
a(S'Margurite'
tp3093
a(S'Judye'
tp3094
a(S'Gerianne'
tp3095
a(S'Cordie'
tp3096
a(S'Jacquelyn'
tp3097
a(S'Jeannine'
tp3098
a(S'Maureene'
tp3099
a(S'Valeda'
tp3100
a(S'Lindsey'
tp3101
a(S'Jaymee'
tp3102
a(S'Blakeley'
tp3103
a(S'Minetta'
tp3104
a(S'Libbey'
tp3105
a(S'Cookie'
tp3106
a(S'Theadora'
tp3107
a(S'Edita'
tp3108
a(S'Maudie'
tp3109
a(S'Jaquith'
tp3110
a(S'Audry'
tp3111
a(S'Vivyan'
tp3112
a(S'Pacifica'
tp3113
a(S'Alyce'
tp3114
a(S'Sibbie'
tp3115
a(S'Petunia'
tp3116
a(S'Anne-Marie'
tp3117
a(S'Gertruda'
tp3118
a(S'Auroora'
tp3119
a(S'Morganica'
tp3120
a(S'Wynnie'
tp3121
a(S'Raphaela'
tp3122
a(S'Blithe'
tp3123
a(S'Lynsey'
tp3124
a(S'Brit'
tp3125
a(S'Fern'
tp3126
a(S'Vanna'
tp3127
a(S'Sarette'
tp3128
a(S'Jeannie'
tp3129
a(S'Lola'
tp3130
a(S'Hattie'
tp3131
a(S'Belle'
tp3132
a(S'Shani'
tp3133
a(S'Genevra'
tp3134
a(S'Marry'
tp3135
a(S'Jeniece'
tp3136
a(S'Alia'
tp3137
a(S'Bernetta'
tp3138
a(S'Sianna'
tp3139
a(S'Glennis'
tp3140
a(S'Ashley'
tp3141
a(S'Valina'
tp3142
a(S'Miguela'
tp3143
a(S'Kamilah'
tp3144
a(S'Aloysia'
tp3145
a(S'Mady'
tp3146
a(S'Caro'
tp3147
a(S'Dolley'
tp3148
a(S'Cyndi'
tp3149
a(S'Darsey'
tp3150
a(S'Rikki'
tp3151
a(S'Georgeanne'
tp3152
a(S'Micki'
tp3153
a(S'Tawnya'
tp3154
a(S'Samantha'
tp3155
a(S'Katharyn'
tp3156
a(S'Natasha'
tp3157
a(S'Donelle'
tp3158
a(S'Chrystel'
tp3159
a(S'Marcia'
tp3160
a(S'Eunice'
tp3161
a(S'Gretchen'
tp3162
a(S'Cory'
tp3163
a(S'Carita'
tp3164
a(S'Joscelin'
tp3165
a(S'Iseabal'
tp3166
a(S'Gracia'
tp3167
a(S'Sheelah'
tp3168
a(S'Pier'
tp3169
a(S'Ofilia'
tp3170
a(S'Lorrayne'
tp3171
a(S'Carlita'
tp3172
a(S'Agna'
tp3173
a(S'Jorie'
tp3174
a(S'Riva'
tp3175
a(S'Peri'
tp3176
a(S'Gilli'
tp3177
a(S'Lorain'
tp3178
a(S'Anna-Diana'
tp3179
a(S'Helena'
tp3180
a(S'Roxanna'
tp3181
a(S'Ericka'
tp3182
a(S'Eva'
tp3183
a(S'Charmine'
tp3184
a(S'Olivia'
tp3185
a(S'Dew'
tp3186
a(S'Friederike'
tp3187
a(S'Diandra'
tp3188
a(S'Peg'
tp3189
a(S'Valeria'
tp3190
a(S'Margot'
tp3191
a(S'Sidonnie'
tp3192
a(S'Eddi'
tp3193
a(S'Wynn'
tp3194
a(S'Lela'
tp3195
a(S'Mersey'
tp3196
a(S'Carolyn'
tp3197
a(S'Aeriela'
tp3198
a(S'Joelie'
tp3199
a(S'Katine'
tp3200
a(S'Maurine'
tp3201
a(S'Bette-Ann'
tp3202
a(S'Kirstie'
tp3203
a(S'Lauri'
tp3204
a(S'Doroteya'
tp3205
a(S'Giacinta'
tp3206
a(S'Audy'
tp3207
a(S'Kimmi'
tp3208
a(S'Sybila'
tp3209
a(S'Pauly'
tp3210
a(S'Janith'
tp3211
a(S'Timmi'
tp3212
a(S'Brietta'
tp3213
a(S'Bernadine'
tp3214
a(S'Sela'
tp3215
a(S'Angelique'
tp3216
a(S'Margarita'
tp3217
a(S'Jannel'
tp3218
a(S'Kassandra'
tp3219
a(S'Ameline'
tp3220
a(S'Dayna'
tp3221
a(S'Sharona'
tp3222
a(S'Celestina'
tp3223
a(S'Brigitta'
tp3224
a(S'Valerye'
tp3225
a(S'Modestia'
tp3226
a(S'Hyacinthie'
tp3227
a(S'Janean'
tp3228
a(S'Odetta'
tp3229
a(S'Robin'
tp3230
a(S'Austina'
tp3231
a(S'Loella'
tp3232
a(S'Barbara-Anne'
tp3233
a(S'Caterina'
tp3234
a(S'Jourdan'
tp3235
a(S'Corrina'
tp3236
a(S'Konstance'
tp3237
a(S'Milzie'
tp3238
a(S'Kelsey'
tp3239
a(S'Margit'
tp3240
a(S'Mair'
tp3241
a(S'Lianne'
tp3242
a(S'Griselda'
tp3243
a(S'Malina'
tp3244
a(S'Gwyneth'
tp3245
a(S'Lelia'
tp3246
a(S'Lauren'
tp3247
a(S'Cassondra'
tp3248
a(S'Sylvia'
tp3249
a(S'Fabrianne'
tp3250
a(S'Kittie'
tp3251
a(S'Feliza'
tp3252
a(S'Leela'
tp3253
a(S'Cher'
tp3254
a(S'Antoinette'
tp3255
a(S'Sib'
tp3256
a(S'Hulda'
tp3257
a(S'Kaitlynn'
tp3258
a(S'Merrily'
tp3259
a(S'Winny'
tp3260
a(S'Leesa'
tp3261
a(S'Delcina'
tp3262
a(S'Betta'
tp3263
a(S'Kippy'
tp3264
a(S'Vanny'
tp3265
a(S'Sussi'
tp3266
a(S'Ardelle'
tp3267
a(S'Tiana'
tp3268
a(S'Joya'
tp3269
a(S'Belinda'
tp3270
a(S'Netty'
tp3271
a(S'Wilhelmine'
tp3272
a(S'Anatola'
tp3273
a(S'Regina'
tp3274
a(S'Verena'
tp3275
a(S'Charlean'
tp3276
a(S'Jania'
tp3277
a(S'Karon'
tp3278
a(S'Amalie'
tp3279
a(S'Raquela'
tp3280
a(S'Karry'
tp3281
a(S'Breena'
tp3282
a(S'Anneliese'
tp3283
a(S'Jewelle'
tp3284
a(S'Sheilakathryn'
tp3285
a(S'Kylie'
tp3286
a(S'Goldina'
tp3287
a(S'Aina'
tp3288
a(S'Annalise'
tp3289
a(S'Chrysler'
tp3290
a(S'Vita'
tp3291
a(S'Giovanna'
tp3292
a(S'Zorine'
tp3293
a(S'Fulvia'
tp3294
a(S'Georgina'
tp3295
a(S'Glynda'
tp3296
a(S'Cherry'
tp3297
a(S'Ki'
tp3298
a(S'Dorella'
tp3299
a(S'Rodie'
tp3300
a(S'Roz'
tp3301
a(S'Patricia'
tp3302
a(S'Zandra'
tp3303
a(S'Selestina'
tp3304
a(S'Guinna'
tp3305
a(S'Alameda'
tp3306
a(S'Myrilla'
tp3307
a(S'Bidget'
tp3308
a(S'Carmina'
tp3309
a(S'Haily'
tp3310
a(S'Ketty'
tp3311
a(S'Sidoney'
tp3312
a(S'Tiffie'
tp3313
a(S'Lyndy'
tp3314
a(S'Ginnie'
tp3315
a(S'Rici'
tp3316
a(S'Clarine'
tp3317
a(S'Nikoletta'
tp3318
a(S'Quentin'
tp3319
a(S'Ivory'
tp3320
a(S'Nissy'
tp3321
a(S'Zonda'
tp3322
a(S'Torrie'
tp3323
a(S'Matty'
tp3324
a(S'Blanche'
tp3325
a(S'Evangeline'
tp3326
a(S'Michaella'
tp3327
a(S'Trudey'
tp3328
a(S'Fawna'
tp3329
a(S'Dynah'
tp3330
a(S'Pauli'
tp3331
a(S'Dominique'
tp3332
a(S'Gerti'
tp3333
a(S'Edythe'
tp3334
a(S'Annie'
tp3335
a(S'Tobie'
tp3336
a(S'Esther'
tp3337
a(S'Dominica'
tp3338
a(S'Allie'
tp3339
a(S'Ianthe'
tp3340
a(S'Olwen'
tp3341
a(S'Inessa'
tp3342
a(S'Blanca'
tp3343
a(S'Kati'
tp3344
a(S'Emiline'
tp3345
a(S'Hetti'
tp3346
a(S'Lucy'
tp3347
a(S'Iona'
tp3348
a(S'Marybeth'
tp3349
a(S'Devora'
tp3350
a(S'Dita'
tp3351
a(S'Cherianne'
tp3352
a(S'Kristina'
tp3353
a(S'Tandi'
tp3354
a(S'Rebekkah'
tp3355
a(S'Elnore'
tp3356
a(S'Christabelle'
tp3357
a(S'Carmel'
tp3358
a(S'Wenonah'
tp3359
a(S'Meriel'
tp3360
a(S'Katrine'
tp3361
a(S'Veriee'
tp3362
a(S'Sisile'
tp3363
a(S'Leila'
tp3364
a(S'Frannie'
tp3365
a(S'Shirl'
tp3366
a(S'Zita'
tp3367
a(S'Ioana'
tp3368
a(S'Maribeth'
tp3369
a(S'Gwenore'
tp3370
a(S'Mallory'
tp3371
a(S'Felice'
tp3372
a(S'Zaneta'
tp3373
a(S'Lena'
tp3374
a(S'Elsey'
tp3375
a(S'Cammie'
tp3376
a(S'Corella'
tp3377
a(S'Jobey'
tp3378
a(S'Fae'
tp3379
a(S'Carlyn'
tp3380
a(S'Evangelin'
tp3381
a(S'Serena'
tp3382
a(S'Nola'
tp3383
a(S'Joyous'
tp3384
a(S'Dinny'
tp3385
a(S'Madelaine'
tp3386
a(S'Chloette'
tp3387
a(S'Rivkah'
tp3388
a(S'Tana'
tp3389
a(S'Zora'
tp3390
a(S'Fey'
tp3391
a(S'Sile'
tp3392
a(S'Danica'
tp3393
a(S'Iolande'
tp3394
a(S'Caria'
tp3395
a(S'Quinta'
tp3396
a(S'Phaedra'
tp3397
a(S'Judi'
tp3398
a(S'Lettie'
tp3399
a(S'Nannie'
tp3400
a(S'Faina'
tp3401
a(S'Frank'
tp3402
a(S'Bernie'
tp3403
a(S'Michele'
tp3404
a(S'Anthea'
tp3405
a(S'Etheline'
tp3406
a(S'Suzetta'
tp3407
a(S'Merci'
tp3408
a(S'Oprah'
tp3409
a(S'Olive'
tp3410
a(S'Crissie'
tp3411
a(S'Beilul'
tp3412
a(S'Blanch'
tp3413
a(S'Gilda'
tp3414
a(S'Evonne'
tp3415
a(S'Nanine'
tp3416
a(S'Shamit'
tp3417
a(S'Kessiah'
tp3418
a(S'Lynnelle'
tp3419
a(S'Tarra'
tp3420
a(S'Stephenie'
tp3421
a(S'Julina'
tp3422
a(S'Alena'
tp3423
a(S'Sydel'
tp3424
a(S'Michaeline'
tp3425
a(S'Aviva'
tp3426
a(S'Naomi'
tp3427
a(S'Hanni'
tp3428
a(S'Vivyanne'
tp3429
a(S'Ermentrude'
tp3430
a(S'Prue'
tp3431
a(S'Merry'
tp3432
a(S'Misty'
tp3433
a(S'Marika'
tp3434
a(S'Josy'
tp3435
a(S'Corrinne'
tp3436
a(S'Caryn'
tp3437
a(S'Happy'
tp3438
a(S'Aurora'
tp3439
a(S'Justin'
tp3440
a(S'Amaleta'
tp3441
a(S'Verile'
tp3442
a(S'Julee'
tp3443
a(S'Dolora'
tp3444
a(S'Ame'
tp3445
a(S'Joice'
tp3446
a(S'Diahann'
tp3447
a(S'Aila'
tp3448
a(S'Janelle'
tp3449
a(S'Yovonnda'
tp3450
a(S'Olva'
tp3451
a(S'Tomiko'
tp3452
a(S'Mureil'
tp3453
a(S'Allene'
tp3454
a(S'Danya'
tp3455
a(S'Mabel'
tp3456
a(S'Gweneth'
tp3457
a(S'Denys'
tp3458
a(S'Rheta'
tp3459
a(S'Minni'
tp3460
a(S'Robinett'
tp3461
a(S'Filippa'
tp3462
a(S'Martelle'
tp3463
a(S'Latrina'
tp3464
a(S'Marianne'
tp3465
a(S'Windy'
tp3466
a(S'Edee'
tp3467
a(S'Cam'
tp3468
a(S'Lucita'
tp3469
a(S'Sibelle'
tp3470
a(S'Birgit'
tp3471
a(S'Cresa'
tp3472
a(S'Kat'
tp3473
a(S'Sella'
tp3474
a(S'Susanna'
tp3475
a(S'Sarita'
tp3476
a(S'Mommy'
tp3477
a(S'Gina'
tp3478
a(S'Lana'
tp3479
a(S'April'
tp3480
a(S'Shelby'
tp3481
a(S'Nicholle'
tp3482
a(S'Cassaundra'
tp3483
a(S'Karmen'
tp3484
a(S'Ernestine'
tp3485
a(S'Carolin'
tp3486
a(S'Gert'
tp3487
a(S'Philippe'
tp3488
a(S'Nicole'
tp3489
a(S'Karly'
tp3490
a(S'Helen'
tp3491
a(S'Karrah'
tp3492
a(S'Gwendolin'
tp3493
a(S'Jojo'
tp3494
a(S'Angelia'
tp3495
a(S'Christi'
tp3496
a(S'Elly'
tp3497
a(S'Corette'
tp3498
a(S'Lenette'
tp3499
a(S'Daffy'
tp3500
a(S'Nike'
tp3501
a(S'Bee'
tp3502
a(S'Gavrielle'
tp3503
a(S'Jannelle'
tp3504
a(S'Ariela'
tp3505
a(S'Yevette'
tp3506
a(S'Gwennie'
tp3507
a(S'Phillie'
tp3508
a(S'Brina'
tp3509
a(S'Stesha'
tp3510
a(S'Dalenna'
tp3511
a(S'Linnet'
tp3512
a(S'Lila'
tp3513
a(S'Odessa'
tp3514
a(S'Wendie'
tp3515
a(S'Carrol'
tp3516
a(S'Alla'
tp3517
a(S'Harri'
tp3518
a(S'Odelinda'
tp3519
a(S'Brianne'
tp3520
a(S'Katrinka'
tp3521
a(S'Roseann'
tp3522
a(S'Edyth'
tp3523
a(S'Eleanore'
tp3524
a(S'Tiffani'
tp3525
a(S'Maribelle'
tp3526
a(S'Dorelle'
tp3527
a(S'Doti'
tp3528
a(S'Annelise'
tp3529
a(S'Carolan'
tp3530
a(S'Desiri'
tp3531
a(S'Leeanne'
tp3532
a(S'Lurleen'
tp3533
a(S'Ondrea'
tp3534
a(S'Ciel'
tp3535
a(S'Jacklyn'
tp3536
a(S'Jeraldine'
tp3537
a(S'Nananne'
tp3538
a(S'Doll'
tp3539
a(S'Mirabella'
tp3540
a(S'Lidia'
tp3541
a(S'Juana'
tp3542
a(S'Leslie'
tp3543
a(S'Lorrin'
tp3544
a(S'Suzan'
tp3545
a(S'Arda'
tp3546
a(S'Antonetta'
tp3547
a(S'Godiva'
tp3548
a(S'Dorisa'
tp3549
a(S'Natala'
tp3550
a(S'Olympia'
tp3551
a(S'Arielle'
tp3552
a(S'Nelie'
tp3553
a(S'Beau'
tp3554
a(S'Ardyth'
tp3555
a(S'Katey'
tp3556
a(S'Tally'
tp3557
a(S'Jayne'
tp3558
a(S'Evy'
tp3559
a(S'Darlene'
tp3560
a(S'Tiffi'
tp3561
a(S'Linette'
tp3562
a(S'Debby'
tp3563
a(S'Cynthy'
tp3564
a(S'Stormy'
tp3565
a(S'Manon'
tp3566
a(S'Alvina'
tp3567
a(S'Franky'
tp3568
a(S'Cecelia'
tp3569
a(S'Allyson'
tp3570
a(S'Alida'
tp3571
a(S'Cary'
tp3572
a(S'Leonanie'
tp3573
a(S'Koren'
tp3574
a(S'Nichole'
tp3575
a(S'Cordelie'
tp3576
a(S'Larine'
tp3577
a(S'Laina'
tp3578
a(S'Gusti'
tp3579
a(S'Maurita'
tp3580
a(S'Marrissa'
tp3581
a(S'Romona'
tp3582
a(S'Christabel'
tp3583
a(S'Oralee'
tp3584
a(S'Karlyn'
tp3585
a(S'Rozella'
tp3586
a(S'Corly'
tp3587
a(S'Marigold'
tp3588
a(S'Minda'
tp3589
a(S'Kellyann'
tp3590
a(S'Eugenie'
tp3591
a(S'Kinna'
tp3592
a(S'Karina'
tp3593
a(S'Ardene'
tp3594
a(S'Andi'
tp3595
a(S'Sacha'
tp3596
a(S'Cassey'
tp3597
a(S'Dory'
tp3598
a(S'Alpa'
tp3599
a(S'Dennie'
tp3600
a(S'Clarey'
tp3601
a(S'Daniel'
tp3602
a(S'Casi'
tp3603
a(S'Margi'
tp3604
a(S'Harmonia'
tp3605
a(S'Clary'
tp3606
a(S'Delores'
tp3607
a(S'Julietta'
tp3608
a(S'Hally'
tp3609
a(S'Shayna'
tp3610
a(S'Bobbie'
tp3611
a(S'Grier'
tp3612
a(S'Vivian'
tp3613
a(S'Frankie'
tp3614
a(S'Kippie'
tp3615
a(S'Micheline'
tp3616
a(S'Randene'
tp3617
a(S'Robbi'
tp3618
a(S'Janeen'
tp3619
a(S'Hilary'
tp3620
a(S'Cathe'
tp3621
a(S'Alta'
tp3622
a(S'Alexina'
tp3623
a(S'Ilona'
tp3624
a(S'Jacquie'
tp3625
a(S'Nata'
tp3626
a(S'Marcy'
tp3627
a(S'Jillana'
tp3628
a(S'Gertrudis'
tp3629
a(S'Trace'
tp3630
a(S'Dionis'
tp3631
a(S'Guglielma'
tp3632
a(S'Deva'
tp3633
a(S'Edeline'
tp3634
a(S'Fifi'
tp3635
a(S'Ayn'
tp3636
a(S'Rhianon'
tp3637
a(S'Jodie'
tp3638
a(S'Delcine'
tp3639
a(S'Zoe'
tp3640
a(S'Noami'
tp3641
a(S'Corinne'
tp3642
a(S'Niki'
tp3643
a(S'Viole'
tp3644
a(S'Dasha'
tp3645
a(S'Vikki'
tp3646
a(S'Rosalyn'
tp3647
a(S'Aloise'
tp3648
a(S'Noelani'
tp3649
a(S'Johanna'
tp3650
a(S'Teddie'
tp3651
a(S'Celene'
tp3652
a(S'Glynis'
tp3653
a(S'Gloria'
tp3654
a(S'Cecil'
tp3655
a(S'Ariel'
tp3656
a(S'Halimeda'
tp3657
a(S'Terrye'
tp3658
a(S'Annabella'
tp3659
a(S'Vida'
tp3660
a(S'Linnell'
tp3661
a(S'Viv'
tp3662
a(S'Malinde'
tp3663
a(S'Eba'
tp3664
a(S'Diane'
tp3665
a(S'Virginie'
tp3666
a(S'Eleni'
tp3667
a(S'Barb'
tp3668
a(S'Cele'
tp3669
a(S'Pepi'
tp3670
a(S'Athene'
tp3671
a(S'Nettle'
tp3672
a(S'Queenie'
tp3673
a(S'Elwina'
tp3674
a(S'Mamie'
tp3675
a(S'Tansy'
tp3676
a(S'Marcela'
tp3677
a(S'Pauletta'
tp3678
a(S'Bellanca'
tp3679
a(S'Moira'
tp3680
a(S'Tiphany'
tp3681
a(S'Beret'
tp3682
a(S'Lula'
tp3683
a(S'Corri'
tp3684
a(S'Ilyse'
tp3685
a(S'Consuela'
tp3686
a(S'Sadie'
tp3687
a(S'Yetty'
tp3688
a(S'Marley'
tp3689
a(S'Murielle'
tp3690
a(S'Bridgett'
tp3691
a(S'Amie'
tp3692
a(S'Madona'
tp3693
a(S'Deedee'
tp3694
a(S'Kipp'
tp3695
a(S'Shayla'
tp3696
a(S'Gayleen'
tp3697
a(S'Marillin'
tp3698
a(S'Christiane'
tp3699
a(S'Rorie'
tp3700
a(S'Danella'
tp3701
a(S'Georgeanna'
tp3702
a(S'Elfrieda'
tp3703
a(S'Karola'
tp3704
a(S'Dulci'
tp3705
a(S'Emilia'
tp3706
a(S'Abigale'
tp3707
a(S'Debra'
tp3708
a(S'Joni'
tp3709
a(S'Dorris'
tp3710
a(S'Crystie'
tp3711
a(S'Elita'
tp3712
a(S'Rosetta'
tp3713
a(S'Dyane'
tp3714
a(S'Saraann'
tp3715
a(S'Alayne'
tp3716
a(S'Avie'
tp3717
a(S'Dawna'
tp3718
a(S'Lucille'
tp3719
a(S'Kristen'
tp3720
a(S'Carly'
tp3721
a(S'Madlen'
tp3722
a(S'Blancha'
tp3723
a(S'Stella'
tp3724
a(S'Josephina'
tp3725
a(S'Ivett'
tp3726
a(S'Aubine'
tp3727
a(S'Crysta'
tp3728
a(S'Nesta'
tp3729
a(S'Hedi'
tp3730
a(S'Hildagarde'
tp3731
a(S'Susana'
tp3732
a(S'Correna'
tp3733
a(S'Kellina'
tp3734
a(S'Constantia'
tp3735
a(S'Neda'
tp3736
a(S'Kaye'
tp3737
a(S'Essa'
tp3738
a(S'Estella'
tp3739
a(S'Randie'
tp3740
a(S'Jillane'
tp3741
a(S'Saba'
tp3742
a(S'Merilee'
tp3743
a(S'Georgiana'
tp3744
a(S'Guillemette'
tp3745
a(S'Loni'
tp3746
a(S'Jerrilee'
tp3747
a(S'Corine'
tp3748
a(S'Arabele'
tp3749
a(S'Gisela'
tp3750
a(S'Juliette'
tp3751
a(S'Corliss'
tp3752
a(S'Kaia'
tp3753
a(S'Kirstyn'
tp3754
a(S'Kandace'
tp3755
a(S'Catriona'
tp3756
a(S'Donnie'
tp3757
a(S'Gwynne'
tp3758
a(S'Ethelind'
tp3759
a(S'Emanuela'
tp3760
a(S'Blakelee'
tp3761
a(S'Janka'
tp3762
a(S'Paule'
tp3763
a(S'Vonni'
tp3764
a(S'Bellamy'
tp3765
a(S'Emelyne'
tp3766
a(S'Dani'
tp3767
a(S'Avis'
tp3768
a(S'Carri'
tp3769
a(S'Charin'
tp3770
a(S'Scarlet'
tp3771
a(S'Dedie'
tp3772
a(S'Beverie'
tp3773
a(S'Sophey'
tp3774
a(S'Ingeberg'
tp3775
a(S'Leshia'
tp3776
a(S'Marlyn'
tp3777
a(S'Dona'
tp3778
a(S'Lura'
tp3779
a(S'Kimberlee'
tp3780
a(S'Kakalina'
tp3781
a(S'Annette'
tp3782
a(S'Hildagard'
tp3783
a(S'Shelia'
tp3784
a(S'Bianka'
tp3785
a(S'Dalia'
tp3786
a(S'Hilarie'
tp3787
a(S'Honor'
tp3788
a(S'Terese'
tp3789
a(S'Amalee'
tp3790
a(S'Eveleen'
tp3791
a(S'Elora'
tp3792
a(S'Tommi'
tp3793
a(S'Marjie'
tp3794
a(S'Nollie'
tp3795
a(S'Alina'
tp3796
a(S'Marissa'
tp3797
a(S'Chrissie'
tp3798
a(S'Alisha'
tp3799
a(S'Melicent'
tp3800
a(S'Nari'
tp3801
a(S'Stacy'
tp3802
a(S'Pooh'
tp3803
a(S'Felipa'
tp3804
a(S'Coleen'
tp3805
a(S'Biddy'
tp3806
a(S'Brunhilda'
tp3807
a(S'Sherie'
tp3808
a(S'Bettie'
tp3809
a(S'Violante'
tp3810
a(S'Henrie'
tp3811
a(S'Vivia'
tp3812
a(S'Bessy'
tp3813
a(S'Cyndy'
tp3814
a(S'Katerina'
tp3815
a(S'Jobina'
tp3816
a(S'Fara'
tp3817
a(S'Dorita'
tp3818
a(S'Sherri'
tp3819
a(S'Prunella'
tp3820
a(S'Rahel'
tp3821
a(S'Staci'
tp3822
a(S'Maure'
tp3823
a(S'Dian'
tp3824
a(S'Rea'
tp3825
a(S'Pennie'
tp3826
a(S'Karlee'
tp3827
a(S'Averil'
tp3828
a(S'Mildrid'
tp3829
a(S'Delora'
tp3830
a(S'Anita'
tp3831
a(S'Muffin'
tp3832
a(S'Charis'
tp3833
a(S'Noelyn'
tp3834
a(S'Adria'
tp3835
a(S'Carina'
tp3836
a(S'Cathyleen'
tp3837
a(S'Haleigh'
tp3838
a(S'Amandie'
tp3839
a(S'Perri'
tp3840
a(S'Donetta'
tp3841
a(S'Cybil'
tp3842
a(S'Hilda'
tp3843
a(S'Deidre'
tp3844
a(S'Basia'
tp3845
a(S'Simonette'
tp3846
a(S'Tricia'
tp3847
a(S'Britte'
tp3848
a(S'Margaretha'
tp3849
a(S'Marylin'
tp3850
a(S'Elka'
tp3851
a(S'Inge'
tp3852
a(S'Wallie'
tp3853
a(S'Nance'
tp3854
a(S'Gita'
tp3855
a(S'Cherey'
tp3856
a(S'Shaylynn'
tp3857
a(S'Fionna'
tp3858
a(S'Evita'
tp3859
a(S'Jeniffer'
tp3860
a(S'Gates'
tp3861
a(S'Heather'
tp3862
a(S'Regan'
tp3863
a(S'Loleta'
tp3864
a(S'Corie'
tp3865
a(S'Perle'
tp3866
a(S'Mandi'
tp3867
a(S'Kathlene'
tp3868
a(S'Filia'
tp3869
a(S'Max'
tp3870
a(S'Cindee'
tp3871
a(S'Celestyna'
tp3872
a(S'Esme'
tp3873
a(S'Amity'
tp3874
a(S'Nadya'
tp3875
a(S'Leanor'
tp3876
a(S'Hertha'
tp3877
a(S'Valentina'
tp3878
a(S'Timmy'
tp3879
a(S'Adrea'
tp3880
a(S'Nanice'
tp3881
a(S'Bessie'
tp3882
a(S'Bethena'
tp3883
a(S'Kay'
tp3884
a(S'Glori'
tp3885
a(S'Henryetta'
tp3886
a(S'Mirella'
tp3887
a(S'Selie'
tp3888
a(S'Larissa'
tp3889
a(S'Mia'
tp3890
a(S'Cacilia'
tp3891
a(S'Ray'
tp3892
a(S'Paula-Grace'
tp3893
a(S'Gladys'
tp3894
a(S'Rosabella'
tp3895
a(S'Charita'
tp3896
a(S'Adrien'
tp3897
a(S'Rene'
tp3898
a(S'Siana'
tp3899
a(S'Kaleena'
tp3900
a(S'Holly'
tp3901
a(S'Gertie'
tp3902
a(S'Evvie'
tp3903
a(S'Trix'
tp3904
a(S'Leta'
tp3905
a(S'Cicily'
tp3906
a(S'Lotte'
tp3907
a(S'Anette'
tp3908
a(S'Jolie'
tp3909
a(S'Rozalie'
tp3910
a(S'Shane'
tp3911
a(S'Bobine'
tp3912
a(S'Kimmie'
tp3913
a(S'Margaux'
tp3914
a(S'Floris'
tp3915
a(S'Yvonne'
tp3916
a(S'Miriam'
tp3917
a(S'Bridget'
tp3918
a(S'Blythe'
tp3919
a(S'Aimee'
tp3920
a(S'Hynda'
tp3921
a(S'Dawn'
tp3922
a(S'Harmony'
tp3923
a(S'Toni'
tp3924
a(S'Fianna'
tp3925
a(S'Junina'
tp3926
a(S'Brandais'
tp3927
a(S'Lou'
tp3928
a(S'Enrika'
tp3929
a(S'Joceline'
tp3930
a(S'Delilah'
tp3931
a(S'Othilie'
tp3932
a(S'Shawna'
tp3933
a(S'JoAnn'
tp3934
a(S'Priscella'
tp3935
a(S'Blinny'
tp3936
a(S'Marcellina'
tp3937
a(S'Brea'
tp3938
a(S'Roxine'
tp3939
a(S'Cindy'
tp3940
a(S'Delila'
tp3941
a(S'Alfie'
tp3942
a(S'Lanny'
tp3943
a(S'Katy'
tp3944
a(S'Rozie'
tp3945
a(S'Mufi'
tp3946
a(S'Debbra'
tp3947
a(S'Lilla'
tp3948
a(S'Deborah'
tp3949
a(S'Leigha'
tp3950
a(S'Tonya'
tp3951
a(S'Kerrin'
tp3952
a(S'Kimberlyn'
tp3953
a(S'Brigitte'
tp3954
a(S'Tracee'
tp3955
a(S'Rosalinde'
tp3956
a(S'Missy'
tp3957
a(S'Risa'
tp3958
a(S'Willabella'
tp3959
a(S'Clarissa'
tp3960
a(S'Letisha'
tp3961
a(S'Natalee'
tp3962
a(S'Janina'
tp3963
a(S'Rosie'
tp3964
a(S'Henrieta'
tp3965
a(S'Yehudit'
tp3966
a(S'Sukey'
tp3967
a(S'Celinda'
tp3968
a(S'Eden'
tp3969
a(S'Gaynor'
tp3970
a(S'Pen'
tp3971
a(S'Stacie'
tp3972
a(S'Amabel'
tp3973
a(S'Harley'
tp3974
a(S'Joella'
tp3975
a(S'Cori'
tp3976
a(S'Casandra'
tp3977
a(S'Rosabel'
tp3978
a(S'Odele'
tp3979
a(S'Tim'
tp3980
a(S'Kelila'
tp3981
a(S'Rosemary'
tp3982
a(S'Patrica'
tp3983
a(S'Sadella'
tp3984
a(S'Libbie'
tp3985
a(S'Claretta'
tp3986
a(S'Emlynne'
tp3987
a(S'Renate'
tp3988
a(S'Querida'
tp3989
a(S'Darell'
tp3990
a(S'Myranda'
tp3991
a(S'Shelagh'
tp3992
a(S'Bambi'
tp3993
a(S'Ralina'
tp3994
a(S'Jaleh'
tp3995
a(S'Wynny'
tp3996
a(S'Sandie'
tp3997
a(S'Joan'
tp3998
a(S'Ethel'
tp3999
a(S'Barbey'
tp4000
a(S'Cleopatra'
tp4001
a(S'Dehlia'
tp4002
a(S'Jordana'
tp4003
a(S'Odilia'
tp4004
a(S'Jolyn'
tp4005
a(S'Lily'
tp4006
a(S'Germain'
tp4007
a(S'Maiga'
tp4008
a(S'Reba'
tp4009
a(S'Mallorie'
tp4010
a(S'Luana'
tp4011
a(S'Franciska'
tp4012
a(S'Cristin'
tp4013
a(S'Zonnya'
tp4014
a(S'Rubia'
tp4015
a(S'Donni'
tp4016
a(S'Nerty'
tp4017
a(S'Sari'
tp4018
a(S'Anna'
tp4019
a(S'Jeralee'
tp4020
a(S'Geraldina'
tp4021
a(S'Dafna'
tp4022
a(S'Kikelia'
tp4023
a(S'Inez'
tp4024
a(S'Vivien'
tp4025
a(S'Tallie'
tp4026
a(S'Billy'
tp4027
a(S'Petronilla'
tp4028
a(S'Ferdinanda'
tp4029
a(S'Maris'
tp4030
a(S'Rosyzie'
tp4031
a(S'Lenora'
tp4032
a(S'Victoria'
tp4033
a(S'Fleur'
tp4034
a(S'Cinnamon'
tp4035
a(S'Lesly'
tp4036
a(S'Nicoline'
tp4037
a(S'Jaine'
tp4038
a(S'Vonnie'
tp4039
a(S'Kitti'
tp4040
a(S'Arianne'
tp4041
a(S'Sande'
tp4042
a(S'Noel'
tp4043
a(S'Susan'
tp4044
a(S'Eleonore'
tp4045
a(S'Davina'
tp4046
a(S'Rosalind'
tp4047
a(S'Winonah'
tp4048
a(S'Cathy'
tp4049
a(S'Teressa'
tp4050
a(S'Doloritas'
tp4051
a(S'Sibilla'
tp4052
a(S'Rina'
tp4053
a(S'Mercy'
tp4054
a(S'Nerissa'
tp4055
a(S'Erika'
tp4056
a(S'Collie'
tp4057
a(S'Marjory'
tp4058
a(S'Almira'
tp4059
a(S'Anthia'
tp4060
a(S'Binny'
tp4061
a(S'Aurore'
tp4062
a(S'Clemence'
tp4063
a(S'Janie'
tp4064
a(S'Koressa'
tp4065
a(S'Madelina'
tp4066
a(S'Erena'
tp4067
a(S'Mayda'
tp4068
a(S'Gilligan'
tp4069
a(S'Jena'
tp4070
a(S'Celie'
tp4071
a(S'Myra'
tp4072
a(S'Candida'
tp4073
a(S'Elspeth'
tp4074
a(S'Robina'
tp4075
a(S'Rosemarie'
tp4076
a(S'Velma'
tp4077
a(S'Novelia'
tp4078
a(S'Katlin'
tp4079
a(S'Gen'
tp4080
a(S'Yolanthe'
tp4081
a(S'Maria'
tp4082
a(S'Galina'
tp4083
a(S'Leticia'
tp4084
a(S'Anjanette'
tp4085
a(S'Therese'
tp4086
a(S'Brigit'
tp4087
a(S'Florida'
tp4088
a(S'Deanna'
tp4089
a(S'Koralle'
tp4090
a(S'Queada'
tp4091
a(S'Denyse'
tp4092
a(S'Rahal'
tp4093
a(S'Shandee'
tp4094
a(S'Wanda'
tp4095
a(S'Stacey'
tp4096
a(S'Kial'
tp4097
a(S'Rozelle'
tp4098
a(S'Lysandra'
tp4099
a(S'Della'
tp4100
a(S'Giana'
tp4101
a(S'Winne'
tp4102
a(S'Luce'
tp4103
a(S'Mellisa'
tp4104
a(S'Tamma'
tp4105
a(S'Issy'
tp4106
a(S'Tamiko'
tp4107
a(S'Marnia'
tp4108
a(S'Babette'
tp4109
a(S'Reeba'
tp4110
a(S'Josselyn'
tp4111
a(S'Licha'
tp4112
a(S'Myrtle'
tp4113
a(S'Stormi'
tp4114
a(S'Josefina'
tp4115
a(S'Sally'
tp4116
a(S'Bert'
tp4117
a(S'Marget'
tp4118
a(S'Ardine'
tp4119
a(S'Annabela'
tp4120
a(S'Brenn'
tp4121
a(S'Silvia'
tp4122
a(S'Salli'
tp4123
a(S'Catharine'
tp4124
a(S'Timmie'
tp4125
a(S'Fionnula'
tp4126
a(S'Tarrah'
tp4127
a(S'Ami'
tp4128
a(S'Adel'
tp4129
a(S'Cherin'
tp4130
a(S'Kylila'
tp4131
a(S'Lorraine'
tp4132
a(S'Alexia'
tp4133
a(S'Isa'
tp4134
a(S'Laural'
tp4135
a(S'Kathrine'
tp4136
a(S'Saundra'
tp4137
a(S'Keren'
tp4138
a(S'Shanta'
tp4139
a(S'Cherye'
tp4140
a(S'Sybyl'
tp4141
a(S'Dana'
tp4142
a(S'Livia'
tp4143
a(S'Barbe'
tp4144
a(S'Florri'
tp4145
a(S'Aida'
tp4146
a(S'Sheryl'
tp4147
a(S'Ammamaria'
tp4148
a(S'Coraline'
tp4149
a(S'Carry'
tp4150
a(S'Erna'
tp4151
a(S'Loralee'
tp4152
a(S'Elaine'
tp4153
a(S'Thelma'
tp4154
a(S'Shaine'
tp4155
a(S'Suellen'
tp4156
a(S'Kelley'
tp4157
a(S'Elli'
tp4158
a(S'Doralynn'
tp4159
a(S'Daffi'
tp4160
a(S'Dyanne'
tp4161
a(S'Melinda'
tp4162
a(S'Jaquelyn'
tp4163
a(S'Jeanette'
tp4164
a(S'Mariana'
tp4165
a(S'Dorine'
tp4166
a(S'Lucine'
tp4167
a(S'Dorothee'
tp4168
a(S'Ursuline'
tp4169
a(S'Mari'
tp4170
a(S'Tedra'
tp4171
a(S'Carolynn'
tp4172
a(S'Dee'
S'Dee'
tp4173
a(S'Yoshiko'
tp4174
a(S'Solange'
tp4175
a(S'Gwyn'
tp4176
a(S'Roshelle'
tp4177
a(S'Katharina'
tp4178
a(S'Nixie'
tp4179
a(S'Agnes'
tp4180
a(S'Opaline'
tp4181
a(S'Joli'
tp4182
a(S'Leilah'
tp4183
a(S'Valentia'
tp4184
a(S'Emilee'
tp4185
a(S'Britni'
tp4186
a(S'Catie'
tp4187
a(S'Allys'
tp4188
a(S'Jacquetta'
tp4189
a(S'Francesca'
tp4190
a(S'Jacquenetta'
tp4191
a(S'Pepita'
tp4192
a(S'Zea'
tp4193
a(S'Celisse'
tp4194
a(S'Sarina'
tp4195
a(S'Kaila'
tp4196
a(S'Candace'
tp4197
a(S'Fenelia'
tp4198
a(S'Jonis'
tp4199
a(S'Pammie'
tp4200
a(S'Jessica'
tp4201
a(S'Amy'
tp4202
a(S'Linet'
tp4203
a(S'Melina'
tp4204
a(S'Terrianne'
tp4205
a(S'Jessalin'
tp4206
a(S'Wandis'
tp4207
a(S'Luanna'
tp4208
a(S'Sonia'
tp4209
a(S'Belva'
tp4210
a(S'Torie'
tp4211
a(S'Sallyann'
tp4212
a(S'Iris'
tp4213
a(S'Lyndell'
tp4214
a(S'Fifine'
tp4215
a(S'Lacey'
tp4216
a(S'Beryle'
tp4217
a(S'Lisette'
tp4218
a(S'Beryl'
tp4219
a(S'Calypso'
tp4220
a(S'Katleen'
tp4221
a(S'Halie'
tp4222
a(S'Jenna'
tp4223
a(S'Jennee'
tp4224
a(S'Colette'
tp4225
a(S'Verna'
tp4226
a(S'Kacie'
tp4227
a(S'Hadria'
tp4228
a(S'Gredel'
tp4229
a(S'Melisenda'
tp4230
a(S'Chantalle'
tp4231
a(S'Gabrielle'
tp4232
a(S'Jeanne'
tp4233
a(S'Gui'
tp4234
a(S'Lusa'
tp4235
a(S'Selina'
tp4236
a(S'Cecile'
tp4237
a(S'Bertie'
tp4238
a(S'Ginnifer'
tp4239
a(S'Willetta'
tp4240
a(S'Lotti'
tp4241
a(S'Breanne'
tp4242
a(S'Andrei'
tp4243
a(S'Adey'
tp4244
a(S'Barby'
tp4245
a(S'Mignon'
tp4246
a(S'Cynthea'
tp4247
a(S'Veradis'
tp4248
a(S'Klarika'
tp4249
a(S'Jordanna'
tp4250
a(S'Mira'
tp4251
a(S'Maryanne'
tp4252
a(S'Tyne'
tp4253
a(S'Corilla'
tp4254
a(S'Melisandra'
tp4255
a(S'Shirlee'
tp4256
a(S'Scarlett'
tp4257
a(S'Fran'
tp4258
a(S'Devinne'
tp4259
a(S'Linzy'
tp4260
a(S'Clarette'
tp4261
a(S'Leanna'
tp4262
a(S'Arlinda'
tp4263
a(S'Josefa'
tp4264
a(S'Melesa'
tp4265
a(S'Halli'
tp4266
a(S'Jessamyn'
tp4267
a(S'Fancy'
tp4268
a(S'Dulcia'
tp4269
a(S'Constantine'
tp4270
a(S'Shari'
tp4271
a(S'Aggi'
tp4272
a(S'Milli'
tp4273
a(S'Lezlie'
tp4274
a(S'Eula'
tp4275
a(S'Lolita'
tp4276
a(S'Talia'
tp4277
a(S'Astra'
tp4278
a(S'Merilyn'
tp4279
a(S'Henriette'
tp4280
a(S'Modestine'
tp4281
a(S'Martynne'
tp4282
a(S'Marci'
tp4283
a(S'Consolata'
tp4284
a(S'Pammi'
tp4285
a(S'Lois'
tp4286
a(S'Rosanna'
tp4287
a(S'Terri'
tp4288
a(S'Hollyanne'
tp4289
a(S'Elisabet'
tp4290
a(S'Ardelis'
tp4291
a(S'Lonna'
tp4292
a(S'Sherrie'
tp4293
a(S'Eveline'
tp4294
a(S'Harlene'
tp4295
a(S'Retha'
tp4296
a(S'Harrietta'
tp4297
a(S'Ilise'
tp4298
a(S'Merrie'
tp4299
a(S'Revkah'
tp4300
a(S'Ronnie'
tp4301
a(S'Amanda'
tp4302
a(S'Uta'
tp4303
a(S'Heida'
tp4304
a(S'Cayla'
tp4305
a(S'Riannon'
tp4306
a(S'Carolina'
tp4307
a(S'Mireille'
tp4308
a(S'Dyan'
tp4309
a(S'Justine'
tp4310
a(S'Pearl'
tp4311
a(S'Jasmine'
tp4312
a(S'Martita'
tp4313
a(S'Corny'
tp4314
a(S'Shir'
tp4315
a(S'Becca'
tp4316
a(S'Drew'
tp4317
a(S'Dahlia'
tp4318
a(S'Anastasia'
tp4319
a(S'Fidelity'
tp4320
a(S'Raye'
tp4321
a(S'Krysta'
tp4322
a(S'Evelina'
tp4323
a(S'Margy'
tp4324
a(S'Isabella'
tp4325
a(S'Otha'
tp4326
a(S'Reina'
tp4327
a(S'Aeriell'
tp4328
a(S'Isadore'
tp4329
a(S'Krystle'
tp4330
a(S'Venita'
tp4331
a(S'Vanya'
tp4332
a(S'Sabina'
tp4333
a(S'Kayla'
tp4334
a(S'Sallee'
tp4335
a(S'Anne-Corinne'
tp4336
a(S'Adaline'
tp4337
a(S'Cinda'
tp4338
a(S'Sher'
tp4339
a(S'Roseline'
tp4340
a(S'Valerie'
tp4341
a(S'Demetra'
tp4342
a(S'Stephani'
tp4343
a(S'Karilynn'
tp4344
a(S'Britaney'
tp4345
a(S'Lyndsie'
tp4346
a(S'Ainslee'
tp4347
a(S'Winnifred'
tp4348
a(S'Theda'
tp4349
a(S'Fortune'
tp4350
a(S'Bonni'
tp4351
a(S'Corry'
tp4352
a(S'Robinia'
tp4353
a(S'Tomi'
tp4354
a(S'Vitia'
tp4355
a(S'Orella'
tp4356
a(S'Alyse'
tp4357
a(S'TeresaAnne'
tp4358
a(S'Danell'
tp4359
a(S'Danielle'
tp4360
a(S'Dorey'
tp4361
a(S'Cassandra'
tp4362
a(S'Aurelia'
tp4363
a(S'Rivi'
tp4364
a(S'Alana'
tp4365
a(S'Madelin'
tp4366
a(S'Sunny'
tp4367
a(S'Karoline'
tp4368
a(S'Sherill'
tp4369
a(S'Gabriel'
tp4370
a(S'Mavra'
tp4371
a(S'Pippy'
tp4372
a(S'Natalia'
tp4373
a(S'Dore'
tp4374
a(S'Tori'
tp4375
a(S'Merna'
tp4376
a(S'Kelly'
tp4377
a(S'Sharlene'
tp4378
a(S'Sosanna'
tp4379
a(S'Lorettalorna'
tp4380
a(S'Josi'
tp4381
a(S'Shirleen'
tp4382
a(S'Debor'
tp4383
a(S'Shoshanna'
tp4384
a(S'Kaari'
tp4385
a(S'Jenn'
tp4386
a(S'Elbertina'
tp4387
a(S'Florance'
tp4388
a(S'Miquela'
tp4389
a(S'Michel'
tp4390
a(S'Meris'
tp4391
a(S'Lory'
tp4392
a(S'Aubry'
tp4393
a(S'Birdie'
tp4394
a(S'Gerri'
tp4395
a(S'Tasia'
tp4396
a(S'Lucinda'
tp4397
a(S'Emili'
tp4398
a(S'Jacquelin'
tp4399
a(S'Maddy'
tp4400
a(S'Lian'
tp4401
a(S'Amandi'
tp4402
a(S'Evangelia'
tp4403
a(S'Rowe'
tp4404
a(S'Gill'
tp4405
a(S'Celina'
tp4406
a(S'Lorilee'
tp4407
a(S'Trudy'
tp4408
a(S'Brook'
tp4409
a(S'Dosi'
tp4410
a(S'Gwenni'
tp4411
a(S'Arlana'
tp4412
a(S'Ronna'
tp4413
a(S'Kathy'
tp4414
a(S'Eugine'
tp4415
a(S'Parwane'
tp4416
a(S'Viviene'
tp4417
a(S'Tiena'
tp4418
a(S'Rosaline'
tp4419
a(S'Rasla'
tp4420
a(S'Edie'
tp4421
a(S'Verla'
tp4422
a(S'Carola'
tp4423
a(S'Lori'
tp4424
a(S'Datha'
tp4425
a(S'Diana'
tp4426
a(S'Vonny'
tp4427
a(S'Francyne'
tp4428
a(S'Maisie'
tp4429
a(S'Dael'
tp4430
a(S'Phyllys'
tp4431
a(S'Jan'
tp4432
a(S'Vannie'
tp4433
a(S'Toby'
tp4434
a(S'Sheelagh'
tp4435
a(S'Cappella'
tp4436
a(S'Kesley'
tp4437
a(S'Saudra'
tp4438
a(S'Lynde'
tp4439
a(S'Maud'
tp4440
a(S'Bethany'
tp4441
a(S'Thia'
tp4442
a(S'Gilbertina'
tp4443
a(S'Adelaide'
tp4444
a(S'Annabel'
tp4445
a(S'Malena'
tp4446
a(S'Dora'
tp4447
a(S'Jonell'
tp4448
a(S'Eliza'
tp4449
a(S'Allyn'
tp4450
a(S'Marin'
tp4451
a(S'Terri-Jo'
tp4452
a(S'Joanne'
tp4453
a(S'Flory'
tp4454
a(S'Beverly'
tp4455
a(S'Maressa'
tp4456
a(S'Abigail'
tp4457
a(S'Ursa'
tp4458
a(S'Gratia'
tp4459
a(S'Tommy'
tp4460
a(S'Tiffanie'
tp4461
a(S'Clarie'
tp4462
a(S'Eryn'
tp4463
a(S'Sinead'
tp4464
a(S'Goldia'
tp4465
a(S'Rebeka'
tp4466
a(S'Oona'
tp4467
a(S'Barbara'
tp4468
a(S'Yettie'
tp4469
a(S'Hedwig'
tp4470
a(S'Keeley'
tp4471
a(S'Annmarie'
tp4472
a(S'Lanette'
tp4473
a(S'Kellen'
tp4474
a(S'Brett'
tp4475
a(S'Alissa'
tp4476
a(S'Laney'
tp4477
a(S'Darb'
tp4478
a(S'Neille'
tp4479
a(S'Giorgia'
tp4480
a(S'Marris'
tp4481
a(S'Margaret'
tp4482
a(S'Codie'
tp4483
a(S'Luise'
tp4484
a(S'Tatiania'
tp4485
a(S'Doralin'
tp4486
a(S'Eileen'
tp4487
a(S'Poppy'
tp4488
a(S'Dela'
tp4489
a(S'Jackquelin'
tp4490
a(S'Angil'
tp4491
a(S'Velvet'
tp4492
a(S'Trixie'
tp4493
a(S'Cybill'
tp4494
a(S'Leandra'
tp4495
a(S'Nettie'
tp4496
a(S'Holly-Anne'
tp4497
a(S'Fania'
tp4498
a(S'Mina'
tp4499
a(S'Gaylene'
tp4500
a(S'Cariotta'
tp4501
a(S'Agata'
tp4502
a(S'Perry'
tp4503
a(S'Robbie'
tp4504
a(S'Merrill'
tp4505
a(S'Moyra'
tp4506
a(S'Kelsy'
tp4507
a(S'Adora'
tp4508
a(S'Elvera'
tp4509
a(S'Ertha'
tp4510
a(S'Twila'
tp4511
a(S'Benedetta'
tp4512
a(S'Jeanine'
tp4513
a(S'Cosetta'
tp4514
a(S'Danice'
tp4515
a(S'Phyllis'
tp4516
a(S'Lenka'
tp4517
a(S'Raina'
tp4518
a(S'Angelina'
tp4519
a(S'Cristina'
tp4520
a(S'Nonie'
tp4521
a(S'Tara'
tp4522
a(S'Grethel'
tp4523
a(S'Jaclin'
tp4524
a(S'Mandy'
tp4525
a(S'Astrix'
tp4526
a(S'Dalila'
tp4527
a(S'Mareah'
tp4528
a(S'Lilah'
tp4529
a(S'Linda'
tp4530
a(S'Dionne'
tp4531
a(S'Bernadene'
tp4532
a(S'Trisha'
tp4533
a(S'Tatiana'
tp4534
a(S'Micaela'
tp4535
a(S'Cleva'
tp4536
a(S'Petronella'
tp4537
a(S'Nonna'
tp4538
a(S'Candi'
tp4539
a(S'Kai'
tp4540
a(S'Freddy'
tp4541
a(S'Tamarra'
tp4542
a(S'Deni'
tp4543
a(S'Jaimie'
tp4544
a(S'Fina'
tp4545
a(S'Anjela'
tp4546
a(S'Karil'
tp4547
a(S'Ricca'
tp4548
a(S'Ellen'
tp4549
a(S'Jewell'
tp4550
a(S'Rafaelita'
tp4551
a(S'Shel'
tp4552
a(S'Holli'
tp4553
a(S'Gerty'
tp4554
a(S'Denise'
tp4555
a(S'Elonore'
tp4556
a(S'Ingaberg'
tp4557
a(S'Bella'
tp4558
a(S'Zaria'
tp4559
a(S'Stace'
tp4560
a(S'Zulema'
tp4561
a(S'Jacquelynn'
tp4562
a(S'Elinore'
tp4563
a(S'Neile'
tp4564
a(S'Danita'
tp4565
a(S'Damara'
tp4566
a(S'Delinda'
tp4567
a(S'Lonnie'
tp4568
a(S'Mariann'
tp4569
a(S'Corabelle'
tp4570
a(S'Denni'
tp4571
a(S'Etta'
tp4572
a(S'Hazel'
tp4573
a(S'Jenny'
tp4574
a(S'Krissy'
tp4575
a(S'Barbie'
tp4576
a(S'Kristan'
tp4577
a(S'Nariko'
tp4578
a(S'Mathilde'
tp4579
a(S'Donella'
tp4580
a(S'Lyndsay'
tp4581
a(S'Camel'
tp4582
a(S'Tedi'
tp4583
a(S'Shelley'
tp4584
a(S'Anabella'
tp4585
a(S'Minerva'
tp4586
a(S'Bobbette'
tp4587
a(S'Blinni'
tp4588
a(S'Ina'
tp4589
a(S'Scotty'
tp4590
a(S'Leanora'
tp4591
a(S'Ariadne'
tp4592
a(S'Magdalene'
tp4593
a(S'Juliet'
tp4594
a(S'Lanni'
tp4595
a(S'Florie'
tp4596
a(S'Izabel'
tp4597
a(S'Mitzi'
tp4598
a(S'Hillary'
tp4599
a(S'Shoshana'
tp4600
a(S'Sallie'
tp4601
a(S'Kora'
tp4602
a(S'Cassy'
tp4603
a(S'Fredelia'
tp4604
a(S'Cat'
tp4605
a(S'Gabriellia'
tp4606
a(S'Helene'
tp4607
a(S'Guenna'
tp4608
a(S'Katusha'
tp4609
a(S'Maribel'
tp4610
a(S'Elane'
tp4611
a(S'Lynnell'
tp4612
a(S'Audrye'
tp4613
a(S'Tabina'
tp4614
a(S'Linea'
tp4615
a(S'Theodosia'
tp4616
a(S'Danyelle'
tp4617
a(S'Teryl'
tp4618
a(S'Georgianne'
tp4619
a(S'Moreen'
tp4620
a(S'Miran'
tp4621
a(S'Marybelle'
tp4622
a(S'Bertina'
tp4623
a(S'Elmira'
tp4624
a(S'Jorey'
tp4625
a(S'Lyssa'
tp4626
a(S'Eilis'
tp4627
a(S'Renelle'
tp4628
a(S'Neely'
tp4629
a(S'Deeanne'
tp4630
a(S'Belia'
tp4631
a(S'Arlena'
tp4632
a(S'Bridgette'
tp4633
a(S'Reena'
tp4634
a(S'Maxie'
tp4635
a(S'Minette'
tp4636
a(S'Trudi'
tp4637
a(S'Bernadina'
tp4638
a(S'Maryangelyn'
tp4639
a(S'Myrtie'
tp4640
a(S'Janot'
tp4641
a(S'Fanchette'
tp4642
a(S'Andria'
tp4643
a(S'Alis'
tp4644
a(S'Amelina'
tp4645
a(S'Fidela'
tp4646
a(S'Carolee'
tp4647
a(S'Ajay'
tp4648
a(S'Elsy'
tp4649
a(S'Bettine'
tp4650
a(S'Adelice'
tp4651
a(S'Mel'
tp4652
a(S'Robbin'
tp4653
a(S'Lindsay'
tp4654
a(S'Cindie'
tp4655
a(S'Nina'
tp4656
a(S'Rhodie'
tp4657
a(S'Joannes'
tp4658
a(S'Clara'
tp4659
a(S'Danit'
tp4660
a(S'Allianora'
tp4661
a(S'Lorilyn'
tp4662
a(S'Marline'
tp4663
a(S'Camilla'
tp4664
a(S'Melloney'
tp4665
a(S'Pamella'
tp4666
a(S'Pavia'
tp4667
a(S'Cristal'
tp4668
a(S'Jenica'
tp4669
a(S'Cherish'
tp4670
a(S'Crista'
tp4671
a(S'Randee'
tp4672
a(S'Claude'
tp4673
a(S'Mellicent'
tp4674
a(S'Phylis'
tp4675
a(S'Ethelda'
tp4676
a(S'Cammy'
tp4677
a(S'Annissa'
tp4678
a(S'Gypsy'
tp4679
a(S'Nan'
tp4680
a(S'Angeline'
tp4681
a(S'Donny'
tp4682
a(S'Natka'
tp4683
a(S'Sorcha'
tp4684
a(S'Andra'
tp4685
a(S'Genny'
tp4686
a(S'Kim'
tp4687
a(S'Billi'
tp4688
a(S'Sarena'
tp4689
a(S'Blake'
tp4690
a(S'Greta'
tp4691
a(S'Carlie'
tp4692
a(S'Vi'
tp4693
a(S'Pat'
tp4694
a(S'Joye'
tp4695
a(S'Arabella'
tp4696
a(S'Lenna'
tp4697
a(S'Robinette'
tp4698
a(S'Regine'
tp4699
a(S'Bendite'
tp4700
a(S'Amalia'
tp4701
a(S'Idaline'
tp4702
a(S'Roanne'
tp4703
a(S'Kellsie'
tp4704
a(S'Nessie'
tp4705
a(S'Chiarra'
tp4706
a(S'Aurel'
tp4707
a(S'Marylynne'
tp4708
a(S'Margret'
tp4709
a(S'Cathi'
tp4710
a(S'Arlen'
tp4711
a(S'Malynda'
tp4712
a(S'Rosaleen'
tp4713
a(S'Abbie'
tp4714
a(S'Loren'
tp4715
a(S'Mirilla'
tp4716
a(S'Fred'
tp4717
a(S'Garland'
tp4718
a(S'Georgine'
tp4719
a(S'Charlott'
tp4720
a(S'Winni'
tp4721
a(S'Lisa'
tp4722
a(S'Marion'
tp4723
a(S'Tandie'
tp4724
a(S'Leoline'
tp4725
a(S'Orelee'
tp4726
a(S'Laure'
tp4727
a(S'Karole'
tp4728
a(S'Jasmin'
tp4729
a(S'Shellie'
tp4730
a(S'Neilla'
tp4731
a(S'Andee'
tp4732
a(S'Starlene'
tp4733
a(S'Lia'
tp4734
a(S'Maryrose'
tp4735
a(S'Jerrie'
tp4736
a(S'Audie'
tp4737
a(S'Cherrita'
tp4738
a(S'Addis'
tp4739
a(S'Madonna'
tp4740
a(S'Clovis'
tp4741
a(S'Else'
tp4742
a(S'Diannne'
tp4743
a(S'Berry'
tp4744
a(S'Greer'
tp4745
a(S'Rosemonde'
tp4746
a(S'Brigid'
tp4747
a(S'Jessy'
tp4748
a(S'Marys'
tp4749
a(S'Vallie'
tp4750
a(S'Marnie'
tp4751
a(S'Lorena'
tp4752
a(S'Mahala'
tp4753
a(S'Paulie'
tp4754
a(S'Chad'
tp4755
a(S'Wenda'
tp4756
a(S'Camellia'
tp4757
a(S'Mora'
tp4758
a(S'Wynne'
tp4759
a(S'Evanne'
tp4760
a(S'Carin'
tp4761
a(S'Canada'
tp4762
a(S'Melania'
tp4763
a(S'Lynn'
tp4764
a(S'Marne'
tp4765
a(S'Vilhelmina'
tp4766
a(S'Lind'
tp4767
a(S'Shanna'
tp4768
a(S'Albertina'
tp4769
a(S'Gwenette'
tp4770
a(S'Lenee'
tp4771
a(S'Christabella'
tp4772
a(S'Estrellita'
tp4773
a(S'Bonnie'
tp4774
a(S'Bari'
tp4775
a(S'Jocelin'
tp4776
a(S'Pris'
tp4777
a(S'Ladonna'
tp4778
a(S'Ernesta'
tp4779
a(S'Jennine'
tp4780
a(S'Ola'
tp4781
a(S'Nerti'
tp4782
a(S'Emmey'
tp4783
a(S'Tiertza'
tp4784
a(S'Emalee'
tp4785
a(S'Lorette'
tp4786
a(S'Pietra'
tp4787
a(S'Estell'
tp4788
a(S'Noreen'
tp4789
a(S'Trista'
tp4790
a(S'Inesita'
tp4791
a(S'Eddie'
tp4792
a(S'Kania'
tp4793
a(S'Jody'
tp4794
a(S'Netta'
tp4795
a(S'Elinor'
tp4796
a(S'Millie'
tp4797
a(S'Marinna'
tp4798
a(S'Florry'
tp4799
a(S'Joyan'
tp4800
a(S'Tybi'
tp4801
a(S'Vina'
tp4802
a(S'Sioux'
tp4803
a(S'Theada'
tp4804
a(S'Eulalie'
tp4805
a(S'Glenda'
tp4806
a(S'Carie'
tp4807
a(S'Libbi'
tp4808
a(S'Milena'
tp4809
a(S'Ginni'
tp4810
a(S'Shannen'
tp4811
a(S'Ilse'
tp4812
a(S'Lilyan'
tp4813
a(S'Darline'
tp4814
a(S'Gigi'
tp4815
a(S'Suzette'
tp4816
a(S'Dara'
tp4817
a(S'Jacklin'
tp4818
a(S'Jessa'
tp4819
a(S'Romola'
tp4820
a(S'Shela'
tp4821
a(S'Maxine'
tp4822
a(S'Tate'
tp4823
a(S'Berrie'
tp4824
a(S'Lissa'
tp4825
a(S'Ninette'
tp4826
a(S'Geeta'
tp4827
a(S'Ellyn'
tp4828
a(S'Simone'
tp4829
a(S'Dacey'
tp4830
a(S'Aurea'
tp4831
a(S'Sharleen'
tp4832
a(S'Asia'
tp4833
a(S'Juline'
tp4834
a(S'Emogene'
tp4835
a(S'Joly'
tp4836
a(S'Daniele'
tp4837
a(S'Linnie'
tp4838
a(S'Adara'
tp4839
a(S'Desaree'
tp4840
a(S'Wenona'
tp4841
a(S'Phelia'
tp4842
a(S'Nada'
tp4843
a(S'Koo'
tp4844
a(S'Berni'
tp4845
a(S'Thomasa'
tp4846
a(S'Dianemarie'
tp4847
a(S'Florette'
tp4848
a(S'Laurie'
tp4849
a(S'Arleta'
tp4850
a(S'Ariana'
tp4851
a(S'Chloe'
tp4852
a(S'Camille'
tp4853
a(S'Corene'
tp4854
a(S'Aile'
tp4855
a(S'Tania'
tp4856
a(S'Farand'
tp4857
a(S'Meghann'
tp4858
a(S'Adena'
tp4859
a(S'Pamelina'
tp4860
a(S'Carol-Jean'
tp4861
a(S'Liza'
tp4862
a(S'Raquel'
tp4863
a(S'Vitoria'
tp4864
a(S'Yelena'
tp4865
a(S'Kathye'
tp4866
a(S'Laetitia'
tp4867
a(S'Libby'
tp4868
a(S'Misha'
tp4869
a(S'Raychel'
tp4870
a(S'Dorit'
tp4871
a(S'Ardenia'
tp4872
a(S'Whitney'
tp4873
a(S'Kimberli'
tp4874
a(S'Maible'
tp4875
a(S'Katrina'
tp4876
a(S'Sheilah'
tp4877
a(S'Jobye'
tp4878
a(S'Blondell'
tp4879
a(S'Sibella'
tp4880
a(S'Ortensia'
tp4881
a(S'Gilly'
tp4882
a(S'Selle'
tp4883
a(S'Alison'
tp4884
a(S'Sunshine'
tp4885
a(S'Chris'
tp4886
a(S'Coletta'
tp4887
a(S'Teane'
tp4888
a(S'Shanie'
tp4889
a(S'Cathrine'
tp4890
a(S'Lizzy'
tp4891
a(S'Emalia'
tp4892
a(S'Gena'
tp4893
a(S'Gabi'
tp4894
a(S'Teodora'
tp4895
a(S'Ruthe'
tp4896
a(S'Kaylyn'
tp4897
a(S'Shirah'
tp4898
a(S'Fredra'
tp4899
a(S'Barbi'
tp4900
a(S'Dixie'
tp4901
a(S'Angele'
tp4902
a(S'Philippa'
tp4903
a(S'Barry'
tp4904
a(S'Janel'
tp4905
a(S'Dolorita'
tp4906
a(S'Candra'
tp4907
a(S'Seka'
tp4908
a(S'Camila'
tp4909
a(S'Anallese'
tp4910
a(S'Tessa'
tp4911
a(S'Blondelle'
tp4912
a(S'Nessy'
tp4913
a(S'Antonia'
tp4914
a(S'Kip'
tp4915
a(S'Astrid'
tp4916
a(S'Calli'
tp4917
a(S'Carlena'
tp4918
a(S'Thomasin'
tp4919
a(S'Stephie'
tp4920
a(S'Kailey'
tp4921
a(S'Estele'
tp4922
a(S'Aliza'
tp4923
a(S'Gianina'
tp4924
a(S'Jolene'
tp4925
a(S'Sonni'
tp4926
a(S'Merola'
tp4927
a(S'Brande'
tp4928
a(S'Avivah'
tp4929
a(S'Kalli'
tp4930
a(S'Tracey'
tp4931
a(S'Charlotte'
tp4932
a(S'Vernice'
tp4933
a(S'Karlotta'
tp4934
a(S'Darla'
tp4935
a(S'Alyda'
tp4936
a(S'Stefania'
tp4937
a(S'Demetris'
tp4938
a(S'Alvira'
tp4939
a(S'Cheri'
tp4940
a(S'Melly'
tp4941
a(S'Ana'
tp4942
a(S'Darcey'
tp4943
a(S'Benita'
tp4944
a(S'Ambrosia'
tp4945
a(S'Guendolen'
tp4946
a(S'Perl'
tp4947
a(S'Prudi'
tp4948
a(S'Mirabelle'
tp4949
a(S'Shaina'
tp4950
a(S'Jennie'
tp4951
a(S'Malia'
tp4952
a(S'Louisa'
tp4953
a(S'Chelsey'
tp4954
a(S'Con'
tp4955
a(S'Benedikta'
tp4956
a(S'Catrina'
tp4957
a(S'Crystal'
tp4958
a(S'Ariella'
tp4959
a(S'Germaine'
tp4960
a(S'Dorette'
tp4961
a(S'Binni'
tp4962
a(S'Melba'
tp4963
a(S'Loria'
tp4964
a(S'Keri'
tp4965
a(S'Sherilyn'
tp4966
a(S'Olympe'
tp4967
a(S'Nanny'
tp4968
a(S'Kyla'
tp4969
a(S'Atlante'
tp4970
a(S'Gwendolen'
tp4971
a(S'Izzi'
tp4972
a(S'Ronnica'
tp4973
a(S'Minta'
tp4974
a(S'Irma'
tp4975
a(S'Valery'
tp4976
a(S'Cordelia'
tp4977
a(S'Fredrika'
tp4978
a(S'Endora'
tp4979
a(S'Verine'
tp4980
a(S'Lanita'
tp4981
a(S'Goldy'
tp4982
a(S'Bonny'
tp4983
a(S'Ruth'
tp4984
a(S'Charo'
tp4985
a(S'Bren'
tp4986
a(S'Gerrie'
tp4987
a(S'Abagael'
tp4988
a(S'Faydra'
tp4989
a(S'Jana'
tp4990
a(S'Eada'
tp4991
a(S'Noella'
tp4992
a(S'Shelba'
tp4993
a(S'Terry'
tp4994
a(S'Betteann'
tp4995
a(S'Kizzee'
tp4996
a(S'Norene'
tp4997
a(S'Jilleen'
tp4998
a(S'June'
tp4999
a(S'Xylia'
tp5000
a(S'Sissy'
tp5001
a(S'Tommie'
tp5002
a(S'Thea'
tp5003
a(S'Philis'
tp5004
atRp5005
.