c__builtin__
set
p1
((lp2
(VJeane
tp3
a(VLeyla
tp4
a(VLurlene
tp5
a(VLind
tp6
a(VRoobbie
tp7
a(VRozalin
tp8
a(VKelli
tp9
a(VPaulina
tp10
a(VCarmon
tp11
a(VMargette
tp12
a(VLauree
tp13
a(VJoletta
tp14
a(VAdriena
tp15
a(VAurelea
tp16
a(VLark
tp17
a(VRora
tp18
a(VNissie
tp19
a(VLuciana
tp20
a(VMichelina
tp21
a(VGerry
tp22
a(VElinor
tp23
a(VOthilia
tp24
a(VVittoria
tp25
a(VMaurise
tp26
a(VMeta
tp27
a(VAlexine
tp28
a(VLinell
tp29
a(VViole
tp30
a(VAlly
tp31
a(VOphelia
tp32
a(VAmandy
tp33
a(VAiley
tp34
a(VEalasaid
tp35
a(VBlair
tp36
a(VMarni
tp37
a(VJuanita
tp38
a(VHendrika
tp39
a(VKris
tp40
a(VKaster
tp41
a(VMegan
tp42
a(VCaron
tp43
a(VGwenny
tp44
a(VGerrilee
tp45
a(VChickie
tp46
a(VRochella
tp47
a(VNonnah
tp48
a(VGinnifer
tp49
a(VGus
tp50
a(VJunia
tp51
a(VJenni
tp52
a(VLurline
tp53
a(VMin
tp54
a(VFreda
tp55
a(VEstrella
tp56
a(VChrystal
tp57
a(VMaurene
tp58
a(VKara
tp59
a(VDoralyn
tp60
a(VCherise
tp61
a(VJenine
tp62
a(VReggi
tp63
a(VLeola
tp64
a(VCarmita
tp65
a(VBrynn
tp66
a(VStarla
tp67
a(VBrenna
tp68
a(VJackelyn
tp69
a(VSophronia
tp70
a(VLib
tp71
a(VMarcelle
tp72
a(VJennine
tp73
a(VPierrette
tp74
a(VDeane
tp75
a(VMaria
tp76
a(VCatlee
tp77
a(VCaitlin
tp78
a(VRhoda
tp79
a(VSashenka
tp80
a(VFrieda
tp81
a(VAllyce
tp82
a(VGeraldine
tp83
a(VSena
tp84
a(VOdelia
tp85
a(VCybal
tp86
a(VNicoli
tp87
a(VDelphine
tp88
a(VTera
tp89
a(VAlexandra
tp90
a(VLesli
tp91
a(VBobinette
tp92
a(VVanda
tp93
a(VDulce
tp94
a(VEmilie
tp95
a(VGael
tp96
a(VRosette
tp97
a(VAurie
tp98
a(VMelessa
tp99
a(VBride
tp100
a(VIsador
tp101
a(VJaquenetta
tp102
a(VDanni
tp103
a(VFenelia
tp104
a(VAnissa
tp105
a(VHildegaard
tp106
a(VAdriana
tp107
a(VJodee
tp108
a(VLorrie
tp109
a(VStorm
tp110
a(VJacqueline
tp111
a(VMarylou
tp112
a(VTiphanie
tp113
a(VLeone
tp114
a(VLil
tp115
a(VMarleah
tp116
a(VLeah
tp117
a(VLee
tp118
a(VJanaye
tp119
a(VCathlene
tp120
a(VSarena
tp121
a(VHelsa
tp122
a(VAlexandrina
tp123
a(VAilee
tp124
a(VFan
tp125
a(VGretta
tp126
a(VIsadora
tp127
a(VDenice
tp128
a(VGabrila
tp129
a(VMarylinda
tp130
a(VGita
tp131
a(VFannie
tp132
a(VPetra
tp133
a(VLynett
tp134
a(VValera
tp135
a(VJanet
tp136
a(VTamra
tp137
a(VLydie
tp138
a(VFanechka
tp139
a(VTheodora
tp140
a(VBellina
tp141
a(VConstance
tp142
a(VStepha
tp143
a(VSonnie
tp144
a(VMargaretha
tp145
a(VModesta
tp146
a(VRosy
tp147
a(VTonia
tp148
a(VSarajane
tp149
a(VLorna
tp150
a(VGlorianna
tp151
a(VTeddi
tp152
a(VShaun
tp153
a(VDorie
tp154
a(VKlarrisa
tp155
a(VAubine
tp156
a(VGrata
tp157
a(VCarrissa
tp158
a(VAdina
tp159
a(VKathryn
tp160
a(VLizzie
tp161
a(VJennette
tp162
a(VSharline
tp163
a(VAmelita
tp164
a(VAndromeda
tp165
a(VCandy
tp166
a(VGwenore
tp167
a(VWilli
tp168
a(VBeulah
tp169
a(VFreddi
tp170
a(VKylynn
tp171
a(VAnnetta
tp172
a(VDeny
tp173
a(VLeonelle
tp174
a(VKore
tp175
a(VDanyette
tp176
a(VMara
tp177
a(VJerrine
tp178
a(VClarisse
tp179
a(VValencia
tp180
a(VArlene
tp181
a(VTeresa
tp182
a(VMargalo
tp183
a(VViki
tp184
a(VBritney
tp185
a(VKirsteni
tp186
a(VTildi
tp187
a(VLaurena
tp188
a(VDayle
tp189
a(VMilissent
tp190
a(VJoelynn
tp191
a(VTiffany
tp192
a(VGabbi
tp193
a(VEmily
tp194
a(VCelestia
tp195
a(VLonni
tp196
a(VJanifer
tp197
a(VPhil
tp198
a(VAidan
tp199
a(VAra
tp200
a(VCoriss
tp201
a(VAnn-Marie
tp202
a(VCeciley
tp203
a(VDenny
tp204
a(VLoretta
tp205
a(VKaterine
tp206
a(VRuella
tp207
a(VRafaelia
tp208
a(VCarmelle
tp209
a(VCarlyn
tp210
a(VLelah
tp211
a(VRica
tp212
a(VLilith
tp213
a(VNettle
tp214
a(VAdrienne
tp215
a(VMeredithe
tp216
a(VMattie
tp217
a(VCherie
tp218
a(VChandra
tp219
a(VCharlena
tp220
a(VHyacinth
tp221
a(VLoreen
tp222
a(VSapphire
tp223
a(VDelaney
tp224
a(VJemimah
tp225
a(VGinevra
tp226
a(VCorinna
tp227
a(VDonnamarie
tp228
a(VMarie-Jeanne
tp229
a(VBrita
tp230
a(VGeri
tp231
a(VMargarethe
tp232
a(VRosanne
tp233
a(VPaola
tp234
a(VElke
tp235
a(VClea
tp236
a(VArliene
tp237
a(VUrsola
tp238
a(VLeeAnn
tp239
a(VGeorgetta
tp240
a(VCeline
tp241
a(VGay
tp242
a(VAdriaens
tp243
a(VCissie
tp244
a(VBerenice
tp245
a(VRosalia
tp246
a(VRuby
tp247
a(VBrandea
tp248
a(VPerla
tp249
a(VHalley
tp250
a(VDemeter
tp251
a(VBernette
tp252
a(VBriteny
tp253
a(VEsma
tp254
a(VRheba
tp255
a(VJerrylee
tp256
a(VNatassia
tp257
a(VArleyne
tp258
a(VPenni
tp259
a(VRoxanne
tp260
a(VFederica
tp261
a(VElsa
tp262
a(VTova
tp263
a(VDiamond
tp264
a(VJuliann
tp265
a(VDasie
tp266
a(VMirelle
tp267
a(VMerle
tp268
a(VJillian
tp269
a(VEllynn
tp270
a(VNanete
tp271
a(VOlia
tp272
a(VCacilie
tp273
a(VEolanda
tp274
a(VZuzana
tp275
a(VHeddie
tp276
a(VKerri
tp277
a(VMyrta
tp278
a(VAmalea
tp279
a(VDeloria
tp280
a(VAnalise
tp281
a(VSilva
tp282
a(VShelli
tp283
a(VHeda
tp284
a(VAnnamarie
tp285
a(VChristalle
tp286
a(VZabrina
tp287
a(VJazmin
tp288
a(VShana
tp289
a(VDaisi
tp290
a(VEttie
tp291
a(VJorrie
tp292
a(VSonya
tp293
a(VSuzie
tp294
a(VMilicent
tp295
a(VFlossy
tp296
a(VJoline
tp297
a(VViolette
tp298
a(VMadel
tp299
a(VMickie
tp300
a(VCassie
tp301
a(VChelsy
tp302
a(VAridatha
tp303
a(VNil
tp304
a(VIlsa
tp305
a(VLisha
tp306
a(VGillan
tp307
a(VRenee
tp308
a(VMatilde
tp309
a(VArdelia
tp310
a(VMarcelline
tp311
a(VNatalya
tp312
a(VNikolia
tp313
a(VCathrin
tp314
a(VClo
tp315
a(VColly
tp316
a(VKellie
tp317
a(VMeridel
tp318
a(VMicky
tp319
a(VJunette
tp320
a(VAshlen
tp321
a(VAdrianne
tp322
a(VAnsley
tp323
a(VFelicle
tp324
a(VSimonne
tp325
a(VIdalina
tp326
a(VSophie
tp327
a(VElli
tp328
a(VGeorge
tp329
a(VSharia
tp330
a(VOlympie
tp331
a(VHolley
tp332
a(VKerrie
tp333
a(VOralla
tp334
a(VIndira
tp335
a(VKassi
tp336
a(VBryna
tp337
a(VEstelle
tp338
a(VKalindi
tp339
a(VNorean
tp340
a(VJorry
tp341
a(VKariotta
tp342
a(VSabra
tp343
a(VLynnelle
tp344
a(VCiara
tp345
a(VHelge
tp346
a(VLorry
tp347
a(VHannah
tp348
a(VTheresita
tp349
a(VKlara
tp350
a(VRicki
tp351
a(VBerri
tp352
a(VKath
tp353
a(VJennifer
tp354
a(VJillie
tp355
a(VMarylee
tp356
a(VKarissa
tp357
a(VFranni
tp358
a(VRenata
tp359
a(VCordy
tp360
a(VKimbra
tp361
a(VCloe
tp362
a(VPhilly
tp363
a(VIkey
tp364
a(VMarilyn
tp365
a(VNoellyn
tp366
a(VBernice
tp367
a(VChanna
tp368
a(VMeggie
tp369
a(VJulianne
tp370
a(VJohnette
tp371
a(VDea
tp372
a(VRobinet
tp373
a(VAthena
tp374
a(VBriana
tp375
a(VDorene
tp376
a(VBarbabra
tp377
a(VMab
tp378
a(VAngy
tp379
a(VJehanna
tp380
a(VKeren
tp381
a(VMala
tp382
a(VIngrid
tp383
a(VRonda
tp384
a(VMoya
tp385
a(VCherye
tp386
a(VLa
tp387
a(VNita
tp388
a(VWrennie
tp389
a(VCarlynne
tp390
a(VStorey
tp391
a(VWinna
tp392
a(VOthella
tp393
a(VBetty
tp394
a(VDarice
tp395
a(VCassandre
tp396
a(VFerdinande
tp397
a(VNickie
tp398
a(VMaryellen
tp399
a(VJoete
tp400
a(VLenore
tp401
a(VJodi
tp402
a(VFay
tp403
a(VKaralynn
tp404
a(VMonah
tp405
a(VAgretha
tp406
a(VDelly
tp407
a(VKoral
tp408
a(VKatie
tp409
a(VJulieta
tp410
a(VHeather
tp411
a(VMarjorie
tp412
a(VPierette
tp413
a(VIra
tp414
a(VDulcine
tp415
a(VUlla
tp416
a(VEleonora
tp417
a(VLilly
tp418
a(VMaureen
tp419
a(VGlenna
tp420
a(VElysha
tp421
a(VHarriette
tp422
a(VMarti
tp423
a(VChloette
tp424
a(VXenia
tp425
a(VNert
tp426
a(VDix
tp427
a(VHester
tp428
a(VTracie
tp429
a(VKaycee
tp430
a(VAnnemarie
tp431
a(VGenovera
tp432
a(VSelena
tp433
a(VLilia
tp434
a(VCelia
tp435
a(VMarcie
tp436
a(VCandide
tp437
a(VVinnie
tp438
a(VSibley
tp439
a(VAnnabell
tp440
a(VRosemaria
tp441
a(VBernadette
tp442
a(VViviyan
tp443
a(VElwira
tp444
a(VMartica
tp445
a(VIsis
tp446
a(VNorry
tp447
a(VJolynn
tp448
a(VElissa
tp449
a(VTheresa-Marie
tp450
a(VViva
tp451
a(VQuinn
tp452
a(VJessie
tp453
a(VMitra
tp454
a(VVivianna
tp455
a(VNevsa
tp456
a(VJacinthe
tp457
a(VRaine
tp458
a(VKrista
tp459
a(VIvie
tp460
a(VKiah
tp461
a(VNell
tp462
a(VMariejeanne
tp463
a(VCaressa
tp464
a(VMarijo
tp465
a(VMead
tp466
a(VMeredith
tp467
a(VBobbi
tp468
a(VAndreana
tp469
a(VWaly
tp470
a(VJobi
tp471
a(VDodie
tp472
a(VAlana
tp473
a(VKalila
tp474
a(VDoralia
tp475
a(VArlyn
tp476
a(VMerl
tp477
a(VMellicent
tp478
a(VDorian
tp479
a(VNova
tp480
a(VJoselyn
tp481
a(VCatharina
tp482
a(VGilli
tp483
a(VNerte
tp484
a(VDorthea
tp485
a(VDianna
tp486
a(VLara
tp487
a(VFlora
tp488
a(VTanya
tp489
a(VKessia
tp490
a(VPhaidra
tp491
a(VDorcas
tp492
a(VCynthia
tp493
a(VTrina
tp494
a(VGaby
tp495
a(VDasya
tp496
a(VIrena
tp497
a(VBrooks
tp498
a(VCindra
tp499
a(VMelody
tp500
a(VKirby
tp501
a(VClarisa
tp502
a(VClaudetta
tp503
a(VKirstin
tp504
a(VOrelia
tp505
a(VPhaedra
tp506
a(VDorolisa
tp507
a(VTomasina
tp508
a(VPiper
tp509
a(VAmabelle
tp510
a(VLucienne
tp511
a(VAllsun
tp512
a(VShandy
tp513
a(VMelinde
tp514
a(VRhea
tp515
a(VConchita
tp516
a(VColetta
tp517
a(VElisha
tp518
a(VShamit
tp519
a(VAlmire
tp520
a(VWilma
tp521
a(VSheena
tp522
a(VDevin
tp523
a(VJuli
tp524
a(VUrsulina
tp525
a(VAnnalisa
tp526
a(VRosario
tp527
a(VMerlina
tp528
a(VKally
tp529
a(VJoey
tp530
a(VKaitlin
tp531
a(VArlyne
tp532
a(VJamie
tp533
a(VWendy
tp534
a(VSheryl
tp535
a(VSibeal
tp536
a(VDevina
tp537
a(VDell
tp538
a(VKitty
tp539
a(VRoana
tp540
a(VMarylynne
tp541
a(VAllissa
tp542
a(VClaudine
tp543
a(VClaribel
tp544
a(VAnne
tp545
a(VJacquette
tp546
a(VArlette
tp547
a(VAlexi
tp548
a(VGlad
tp549
a(VDareen
tp550
a(VAlejandra
tp551
a(VYalonda
tp552
a(VKaile
tp553
a(VLeena
tp554
a(VPrudy
tp555
a(VDasi
tp556
a(VAnais
tp557
a(VEmmeline
tp558
a(VMerrile
tp559
a(VAlaine
tp560
a(VGabriell
tp561
a(VBrier
tp562
a(VLydia
tp563
a(VGlennie
tp564
a(VYvette
tp565
a(VGlen
tp566
a(VAili
tp567
a(VRoda
tp568
a(VMichelle
tp569
a(VMamie
tp570
a(VAshleigh
tp571
a(VCollette
tp572
a(VSuzanne
tp573
a(VRubina
tp574
a(VDion
tp575
a(VOlivie
tp576
a(VMellissa
tp577
a(VKorry
tp578
a(VLeeann
tp579
a(VKatheleen
tp580
a(VMoina
tp581
a(VKass
tp582
a(VAlisa
tp583
a(VSharity
tp584
a(VDarda
tp585
a(VTobey
tp586
a(VAllison
tp587
a(VMargalit
tp588
a(VMorgen
tp589
a(VSabrina
tp590
a(VSharie
tp591
a(VJohnna
tp592
a(VGustie
tp593
a(VShay
tp594
a(VNela
tp595
a(VCally
tp596
a(VDonielle
tp597
a(VLani
tp598
a(VKaria
tp599
a(VChere
tp600
a(VWillette
tp601
a(VMireielle
tp602
a(VJen
tp603
a(VBeitris
tp604
a(VKenna
tp605
a(VGunvor
tp606
a(VLiane
tp607
a(VAmbur
tp608
a(VLavinie
tp609
a(VRani
tp610
a(VKaitlyn
tp611
a(VPen
tp612
a(VMiriam
tp613
a(VRosene
tp614
a(VEricha
tp615
a(VKriste
tp616
a(VChrista
tp617
a(VElsie
tp618
a(VGrazia
tp619
a(VHetty
tp620
a(VMelli
tp621
a(VMarilee
tp622
a(VMabelle
tp623
a(VChristean
tp624
a(VGizela
tp625
a(VCarlisle
tp626
a(VLeisha
tp627
a(VCora
tp628
a(VMalva
tp629
a(VAuguste
tp630
a(VPatience
tp631
a(VBrandy
tp632
a(VJanene
tp633
a(VLatrena
tp634
a(VAlli
tp635
a(VVeronika
tp636
a(VClementina
tp637
a(VTisha
tp638
a(VFelita
tp639
a(VPhillis
tp640
a(VEllyn
tp641
a(VNatty
tp642
a(VStarr
tp643
a(VPetronia
tp644
a(VNerita
tp645
a(VRosamond
tp646
a(VDotti
tp647
a(VDarcee
tp648
a(VSibylla
tp649
a(VClio
tp650
a(VRubi
tp651
a(VGeorgie
tp652
a(VTorie
tp653
a(VEartha
tp654
a(VMadalena
tp655
a(VRamona
tp656
a(VJustina
tp657
a(VBria
tp658
a(VMorissa
tp659
a(VJoanie
tp660
a(VReiko
tp661
a(VShirlene
tp662
a(VJemie
tp663
a(VVikky
tp664
a(VPattie
tp665
a(VMathilda
tp666
a(VMargo
tp667
a(VShandie
tp668
a(VErin
tp669
a(VWylma
tp670
a(VFarrand
tp671
a(VOllie
tp672
a(VGlenn
tp673
a(VJill
tp674
a(VNoni
tp675
a(VCorabel
tp676
a(VUlrica
tp677
a(VLari
tp678
a(VKayle
tp679
a(VLurette
tp680
a(VMalissa
tp681
a(VHarlie
tp682
a(VIsidora
tp683
a(VEmmye
tp684
a(VShalne
tp685
a(VAdeline
tp686
a(VMalka
tp687
a(VAdah
tp688
a(VEnya
tp689
a(VDaria
tp690
a(VTandy
tp691
a(VGuillema
tp692
a(VBennie
tp693
a(VClari
tp694
a(VAmberly
tp695
a(VMeade
tp696
a(VJoane
tp697
a(VPepita
tp698
a(VCarol
tp699
a(VVally
tp700
a(VAmber
tp701
a(VMorgana
tp702
a(VJermaine
tp703
a(VDorita
tp704
a(VTerza
tp705
a(VDonica
tp706
a(VFlor
tp707
a(VKaryl
tp708
a(VAloisia
tp709
a(VKarla
tp710
a(VElizabeth
tp711
a(VFanya
tp712
a(VSam
tp713
a(VNaoma
tp714
a(VBarbaraanne
tp715
a(VKarolina
tp716
a(VAlice
tp717
a(VRoxy
tp718
a(VConcordia
tp719
a(VAlyson
tp720
a(VDora
tp721
a(VSalome
tp722
a(VDeb
tp723
a(VSharai
tp724
a(VTamarah
tp725
a(VErda
tp726
a(VSeana
tp727
a(VJyoti
tp728
a(VShawn
tp729
a(VDanny
tp730
a(VMiranda
tp731
a(VCharyl
tp732
a(VCaprice
tp733
a(VEmelda
tp734
a(VDeina
tp735
a(VRivy
tp736
a(VLetitia
tp737
a(VWynnie
tp738
a(VCoralie
tp739
a(VAliza
tp740
a(VJeanie
tp741
a(VFrancoise
tp742
a(VAnallise
tp743
a(VDorelle
tp744
a(VMadelene
tp745
a(VOnlea
tp746
a(VAmalle
tp747
a(VCarma
tp748
a(VTaffy
tp749
a(VIlla
tp750
a(VMelamie
tp751
a(VAubrie
tp752
a(VAlicea
tp753
a(VDevi
tp754
a(VJudye
tp755
a(VCristy
tp756
a(VTrude
tp757
a(VCarlota
tp758
a(VIleane
tp759
a(VKarlene
tp760
a(VDamaris
tp761
a(VGloriana
tp762
a(VBeatriz
tp763
a(VNisse
tp764
a(VChristina
tp765
a(VArlee
tp766
a(VTilly
tp767
a(VCarole
tp768
a(VFarrah
tp769
a(VBryn
tp770
a(VArdath
tp771
a(VLuana
tp772
a(VTeddy
tp773
a(VChristyna
tp774
a(VLouella
tp775
a(VElena
tp776
a(VBarbette
tp777
a(VDavina
tp778
a(VRos
tp779
a(VPortia
tp780
a(VMolli
tp781
a(VAlanna
tp782
a(VDaveen
tp783
a(VMartguerita
tp784
a(VRoseanne
tp785
a(VCappella
tp786
a(VHayley
tp787
a(VLin
tp788
a(VVera
tp789
a(VAg
tp790
a(VNalani
tp791
a(VMadeline
tp792
a(VDarci
tp793
a(VDaniela
tp794
a(VJoanna
tp795
a(VAggie
tp796
a(VKandy
tp797
a(VChrissy
tp798
a(VSalli
tp799
a(VBird
tp800
a(VAnnice
tp801
a(VOttilie
tp802
a(VPeta
tp803
a(VAnnamari
tp804
a(VLaverne
tp805
a(VTildy
tp806
a(VVioletta
tp807
a(VRhianna
tp808
a(VLonee
tp809
a(VGennie
tp810
a(VDavida
tp811
a(VBambie
tp812
a(VSamara
tp813
a(VMeghan
tp814
a(VBeth
tp815
a(VSallyanne
tp816
a(VEnriqueta
tp817
a(VAlessandra
tp818
a(VNatalie
tp819
a(VMalissia
tp820
a(VNinnette
tp821
a(VElicia
tp822
a(VElyse
tp823
a(VCarla
tp824
a(VAlexis
tp825
a(VNellie
tp826
a(VAngelita
tp827
a(VKeely
tp828
a(VMariya
tp829
a(VLora
tp830
a(VKarena
tp831
a(VEdna
tp832
a(VKristal
tp833
a(VLindie
tp834
a(VTybie
tp835
a(VGarnette
tp836
a(VConny
tp837
a(VGretal
tp838
a(VPrissie
tp839
a(VCarlye
tp840
a(VKirbie
tp841
a(VAura
tp842
a(VRena
tp843
a(VPaloma
tp844
a(VSheree
tp845
a(VNessi
tp846
a(VAnastassia
tp847
a(VLona
tp848
a(VRyann
tp849
a(VMelantha
tp850
a(VErminie
tp851
a(VKathi
tp852
a(VCharmian
tp853
a(VKiersten
tp854
a(VJess
tp855
a(VTawsha
tp856
a(VEvie
tp857
a(VRanice
tp858
a(VAntonietta
tp859
a(VRana
tp860
a(VHedda
tp861
a(VMilka
tp862
a(VMagdalen
tp863
a(VCornelle
tp864
a(VMarieann
tp865
a(VKarlie
tp866
a(VOnida
tp867
a(VEvelyn
tp868
a(VRiane
tp869
a(VRhetta
tp870
a(VMalinda
tp871
a(VAtalanta
tp872
a(VBrena
tp873
a(VHollie
tp874
a(VMeagan
tp875
a(VJacinta
tp876
a(VZena
tp877
a(VLyda
tp878
a(VGenvieve
tp879
a(VMichaela
tp880
a(VRae
tp881
a(VCharleen
tp882
a(VKerry
tp883
a(VRowena
tp884
a(VThomasina
tp885
a(VLianna
tp886
a(VWaneta
tp887
a(VBell
tp888
a(VBurta
tp889
a(VShelly
tp890
a(VKacey
tp891
a(VKatine
tp892
a(VNancee
tp893
a(VSophi
tp894
a(VAgnella
tp895
a(VWally
tp896
a(VHannibal
tp897
a(VSissie
tp898
a(VDarelle
tp899
a(VDulcie
tp900
a(VLynette
tp901
a(VEricka
tp902
a(VHope
tp903
a(VNeila
tp904
a(VFlossi
tp905
a(VCate
tp906
a(VBel
tp907
a(VIrina
tp908
a(VHali
tp909
a(VMable
tp910
a(VMinetta
tp911
a(VDusty
tp912
a(VNorina
tp913
a(VTalya
tp914
a(VHortensia
tp915
a(VCelestyn
tp916
a(VEbony
tp917
a(VAgneta
tp918
a(VPerrine
tp919
a(VTrish
tp920
a(VAlvera
tp921
a(VEyde
tp922
a(VLayla
tp923
a(VKatina
tp924
a(VJanessa
tp925
a(VMarja
tp926
a(VEuphemia
tp927
a(VSusanetta
tp928
a(VHildy
tp929
a(VMaude
tp930
a(VTasha
tp931
a(VCarolie
tp932
a(VEudora
tp933
a(VMercie
tp934
a(VViolet
tp935
a(VViviana
tp936
a(VTobe
tp937
a(VEdi
tp938
a(VLeora
tp939
a(VIlana
tp940
a(VGayla
tp941
a(VVale
tp942
a(VMavis
tp943
a(VBernardina
tp944
a(VVinny
tp945
a(VBertine
tp946
a(VLoise
tp947
a(VKarita
tp948
a(VWilone
tp949
a(VSascha
tp950
a(VMarje
tp951
a(VBrynne
tp952
a(VDido
tp953
a(VAlethea
tp954
a(VKarel
tp955
a(VFidelia
tp956
a(VShea
tp957
a(VChryste
tp958
a(VLorri
tp959
a(VLynelle
tp960
a(VLynnea
tp961
a(VAnni
tp962
a(VRicky
tp963
a(VAnya
tp964
a(VNataline
tp965
a(VCherida
tp966
a(VMame
tp967
a(VFleurette
tp968
a(VMasha
tp969
a(VHelaina
tp970
a(VFranny
tp971
a(VAnn
tp972
a(VStephana
tp973
a(VRosalinda
tp974
a(VSondra
tp975
a(VBettina
tp976
a(VGermain
tp977
a(VVeronique
tp978
a(VWilie
tp979
a(VSimonette
tp980
a(VRagnhild
tp981
a(VElana
tp982
a(VJoleen
tp983
a(VTracy
tp984
a(VArline
tp985
a(VJo-Anne
tp986
a(VMirna
tp987
a(VLizbeth
tp988
a(VPollyanna
tp989
a(VKanya
tp990
a(VSayre
tp991
a(VAnn-Mari
tp992
a(VLina
tp993
a(VFaustina
tp994
a(VCameo
tp995
a(VSuzanna
tp996
a(VEbba
tp997
a(VLynea
tp998
a(VAudre
tp999
a(VEmili
tp1000
a(VCarley
tp1001
a(VLizabeth
tp1002
a(VJoana
tp1003
a(VJudie
tp1004
a(VRaf
tp1005
a(VSiobhan
tp1006
a(VCaty
tp1007
a(VOdette
tp1008
a(VAlecia
tp1009
a(VLaurella
tp1010
a(VCleo
tp1011
a(VConnie
tp1012
a(VPolly
tp1013
a(VAnnalena
tp1014
a(VTina
tp1015
a(VDoretta
tp1016
a(VFanny
tp1017
a(VHortense
tp1018
a(VEmlyn
tp1019
a(VSybil
tp1020
a(VBetti
tp1021
a(VDevonne
tp1022
a(VNena
tp1023
a(VAnstice
tp1024
a(VAdorne
tp1025
a(VBenetta
tp1026
a(VEssie
tp1027
a(VLauryn
tp1028
a(VSammy
tp1029
a(VMarlee
tp1030
a(VHatti
tp1031
a(VRoanna
tp1032
a(VHarriot
tp1033
a(VHoney
tp1034
a(VLilli
tp1035
a(VDinnie
tp1036
a(VSal
tp1037
a(VNanette
tp1038
a(VAlex
tp1039
a(VDevon
tp1040
a(VLisbeth
tp1041
a(VAuberta
tp1042
a(VRebbecca
tp1043
a(VMarty
tp1044
a(VFerne
tp1045
a(VJudith
tp1046
a(VGeorgianna
tp1047
a(VLise
tp1048
a(VMandie
tp1049
a(VBrear
tp1050
a(VFlorella
tp1051
a(VKaroly
tp1052
a(VInger
tp1053
a(VElysia
tp1054
a(VVerene
tp1055
a(VUna
tp1056
a(VZorina
tp1057
a(VEllie
tp1058
a(VLucky
tp1059
a(VCelesta
tp1060
a(VLorine
tp1061
a(VAnnadiane
tp1062
a(VMaryjane
tp1063
a(VHavivah
tp1064
a(VKerrill
tp1065
a(VKorella
tp1066
a(VDede
tp1067
a(VCarolann
tp1068
a(VNorri
tp1069
a(VLanie
tp1070
a(VTresa
tp1071
a(VEthyl
tp1072
a(VAshly
tp1073
a(VMyrna
tp1074
a(VJoyann
tp1075
a(VRochell
tp1076
a(VKaja
tp1077
a(VLorene
tp1078
a(VDeeann
tp1079
a(VJoela
tp1080
a(VErnaline
tp1081
a(VMarrilee
tp1082
a(VZelma
tp1083
a(VNadean
tp1084
a(VAngelica
tp1085
a(VAndriana
tp1086
a(VCollete
tp1087
a(VJoyce
tp1088
a(VCarleen
tp1089
a(VEditha
tp1090
a(VSharl
tp1091
a(VOdelle
tp1092
a(VStefa
tp1093
a(VFaythe
tp1094
a(VEvvy
tp1095
a(VCathleen
tp1096
a(VAilyn
tp1097
a(VDacy
tp1098
a(VOriana
tp1099
a(VBobby
tp1100
a(VValry
tp1101
a(VAlbertine
tp1102
a(VTammara
tp1103
a(VJoby
tp1104
a(VOrsa
tp1105
a(VCarlee
tp1106
a(VKrystyna
tp1107
a(VSamuella
tp1108
a(VBinnie
tp1109
a(VLillian
tp1110
a(VRebekah
tp1111
a(VAilina
tp1112
a(VVirginie
tp1113
a(VTabbie
tp1114
a(VAudrey
tp1115
a(VSara
tp1116
a(VMoselle
tp1117
a(VAshlie
tp1118
a(VGenna
tp1119
a(VGuinevere
tp1120
a(VMadeleine
tp1121
a(VTabbitha
tp1122
a(VRonny
tp1123
a(VElsinore
tp1124
a(VKaron
tp1125
a(VCarline
tp1126
a(VMinnie
tp1127
a(VMarglerite
tp1128
a(VTalyah
tp1129
a(VLorita
tp1130
a(VTani
tp1131
a(VVin
tp1132
a(VJessamine
tp1133
a(VAngelle
tp1134
a(VLeslie
tp1135
a(VSteffie
tp1136
a(VJulissa
tp1137
a(VVal
tp1138
a(VMarla
tp1139
a(VFlorrie
tp1140
a(VAlbina
tp1141
a(VLaila
tp1142
a(VBeverlee
tp1143
a(VRycca
tp1144
a(VTarah
tp1145
a(VCesya
tp1146
a(VShena
tp1147
a(VSandye
tp1148
a(VSelia
tp1149
a(VHailee
tp1150
a(VAime
tp1151
a(VNinetta
tp1152
a(VNedda
tp1153
a(VSelinda
tp1154
a(VSimona
tp1155
a(VIke
tp1156
a(VMiguelita
tp1157
a(VCharla
tp1158
a(VLorianna
tp1159
a(VBunny
tp1160
a(VValaria
tp1161
a(VHanna
tp1162
a(VBerta
tp1163
a(VKettie
tp1164
a(VBrittan
tp1165
a(VZahara
tp1166
a(VMelissa
tp1167
a(VFlo
tp1168
a(VJanna
tp1169
a(VBernardine
tp1170
a(VGillian
tp1171
a(VElectra
tp1172
a(VAlexa
tp1173
a(VEsta
tp1174
a(VDanika
tp1175
a(VDorena
tp1176
a(VRenae
tp1177
a(VBertha
tp1178
a(VJobie
tp1179
a(VDamita
tp1180
a(VGenevieve
tp1181
a(VTammy
tp1182
a(VWillie
tp1183
a(VAlvinia
tp1184
a(VJenelle
tp1185
a(VGenia
tp1186
a(VJoellyn
tp1187
a(VLacee
tp1188
a(VKara-Lynn
tp1189
a(VMelisande
tp1190
a(VJulie
tp1191
a(VNonah
tp1192
a(VArdis
tp1193
a(VRosamund
tp1194
a(VErina
tp1195
a(VJaime
tp1196
a(VMyrtice
tp1197
a(VDode
tp1198
a(VJosee
tp1199
a(VSheila
tp1200
a(VImogene
tp1201
a(VArlina
tp1202
a(VAugustina
tp1203
a(VKiri
tp1204
a(VValida
tp1205
a(VMeggy
tp1206
a(VRianon
tp1207
a(VHerminia
tp1208
a(VMeara
tp1209
a(VPacifica
tp1210
a(VKristien
tp1211
a(VJulianna
tp1212
a(VGrissel
tp1213
a(VHarli
tp1214
a(VKourtney
tp1215
a(VVilma
tp1216
a(VSuzann
tp1217
a(VWilly
tp1218
a(VFaith
tp1219
a(VLucretia
tp1220
a(VMyriam
tp1221
a(VAustin
tp1222
a(VZola
tp1223
a(VLulita
tp1224
a(VElla
tp1225
a(VKerstin
tp1226
a(VAgathe
tp1227
a(VSofia
tp1228
a(VKaree
tp1229
a(VCarlene
tp1230
a(VAndriette
tp1231
a(VAnnadiana
tp1232
a(VDarbie
tp1233
a(VErmengarde
tp1234
a(VArleen
tp1235
a(VRhodia
tp1236
a(VDolly
tp1237
a(VBonnee
tp1238
a(VBrandi
tp1239
a(VDebora
tp1240
a(VClarita
tp1241
a(VPersis
tp1242
a(VJemmie
tp1243
a(VAleda
tp1244
a(VNomi
tp1245
a(VAnne-Mar
tp1246
a(VIssi
tp1247
a(VStefanie
tp1248
a(VMarlo
tp1249
a(VEbonee
tp1250
a(VCarmelina
tp1251
a(VRee
tp1252
a(VEsmaria
tp1253
a(VNorma
tp1254
a(VValenka
tp1255
a(VNissa
tp1256
a(VAlida
tp1257
a(VMargareta
tp1258
a(VClotilda
tp1259
a(VRonalda
tp1260
a(VPatty
tp1261
a(VElsbeth
tp1262
a(VElaina
tp1263
a(VYolande
tp1264
a(VGoldarina
tp1265
a(VFayth
tp1266
a(VBatsheva
tp1267
a(VLouise
tp1268
a(VDaphne
tp1269
a(VNidia
tp1270
a(VChery
tp1271
a(VEloisa
tp1272
a(VArdys
tp1273
a(VCaralie
tp1274
a(VLorelei
tp1275
a(VKippy
tp1276
a(VBeverlie
tp1277
a(VJelene
tp1278
a(VShauna
tp1279
a(VKyle
tp1280
a(VMadella
tp1281
a(VAretha
tp1282
a(VJenda
tp1283
a(VBobina
tp1284
a(VLeia
tp1285
a(VBenoite
tp1286
a(VMaritsa
tp1287
a(VLolly
tp1288
a(VGusta
tp1289
a(VMalanie
tp1290
a(VMargery
tp1291
a(VElle
tp1292
a(VValli
tp1293
a(VAlix
tp1294
a(VAigneis
tp1295
a(VGillie
tp1296
a(VClaire
tp1297
a(VNoelle
tp1298
a(VElladine
tp1299
a(VBenni
tp1300
a(VReggie
tp1301
a(VJenifer
tp1302
a(VTrescha
tp1303
a(VSofie
tp1304
a(VMillisent
tp1305
a(VAndrea
tp1306
a(VNicolle
tp1307
a(VLeonore
tp1308
a(VFlorence
tp1309
a(VMalvina
tp1310
a(VHilliary
tp1311
a(VDollie
tp1312
a(VJeana
tp1313
a(VCristionna
tp1314
a(VOra
tp1315
a(VRachele
tp1316
a(VJaneczka
tp1317
a(VDanila
tp1318
a(VMarga
tp1319
a(VDesiri
tp1320
a(VPauline
tp1321
a(VCherilyn
tp1322
a(VChristie
tp1323
a(VKristi
tp1324
a(VBecki
tp1325
a(VOrelee
tp1326
a(VZsa
VZsa
tp1327
a(VSidoney
tp1328
a(VPatrizia
tp1329
a(VTimi
tp1330
a(VFelisha
tp1331
a(VShara
tp1332
a(VFernandina
tp1333
a(VSonnnie
tp1334
a(VMaggee
tp1335
a(VMarysa
tp1336
a(VTuesday
tp1337
a(VBethina
tp1338
a(VLucie
tp1339
a(VGlory
tp1340
a(VCarroll
tp1341
a(VRochette
tp1342
a(VOphelie
tp1343
a(VSonja
tp1344
a(VEadith
tp1345
a(VTerra
tp1346
a(VLaurene
tp1347
a(VCristi
tp1348
a(VKelcey
tp1349
a(VLoralyn
tp1350
a(VElyn
tp1351
a(VShanda
tp1352
a(VToby
tp1353
a(VCherice
tp1354
a(VKaryn
tp1355
a(VRoxane
tp1356
a(VJunie
tp1357
a(VAnnalyse
tp1358
a(VPavla
tp1359
a(VAshlee
tp1360
a(VAnthe
tp1361
a(VAimil
tp1362
a(VLoree
tp1363
a(VMorena
tp1364
a(VOralie
tp1365
a(VElenore
tp1366
a(VLarisa
tp1367
a(VKare
tp1368
a(VLynna
tp1369
a(VJuditha
tp1370
a(VDot
tp1371
a(VIngunna
tp1372
a(VBritani
tp1373
a(VLeelah
tp1374
a(VHana
tp1375
a(VAlma
tp1376
a(VMarthena
tp1377
a(VJinny
tp1378
a(VMolly
tp1379
a(VArdeen
tp1380
a(VLucila
tp1381
a(VSusy
tp1382
a(VNicolina
tp1383
a(VOrly
tp1384
a(VDebi
tp1385
a(VSusette
tp1386
a(VMarcella
tp1387
a(VShawna
tp1388
a(VAllyn
tp1389
a(VCass
tp1390
a(VMarlena
tp1391
a(VJemmy
tp1392
a(VRasia
tp1393
a(VDarcy
tp1394
a(VConstancia
tp1395
a(VCharmaine
tp1396
a(VKarina
tp1397
a(VAnitra
tp1398
a(VEde
tp1399
a(VBlondy
tp1400
a(VVerina
tp1401
a(VPeggy
tp1402
a(VAli
tp1403
a(VAgnesse
tp1404
a(VInga
tp1405
a(VToma
tp1406
a(VLesya
tp1407
a(VRhianon
tp1408
a(VTine
tp1409
a(VRosella
tp1410
a(VEaster
tp1411
a(VTrula
tp1412
a(VMargeaux
tp1413
a(VBeatrix
tp1414
a(VTrista
tp1415
a(VIda
tp1416
a(VDebee
tp1417
a(VFrederica
tp1418
a(VElfie
tp1419
a(VLaurianne
tp1420
a(VDrea
tp1421
a(VElianore
tp1422
a(VKate
tp1423
a(VMaia
tp1424
a(VAuria
tp1425
a(VFrance
tp1426
a(VToinette
tp1427
a(VJaquenette
tp1428
a(VJobyna
tp1429
a(VGrete
tp1430
a(VAvril
tp1431
a(VInez
tp1432
a(VNeysa
tp1433
a(VClare
tp1434
a(VMadalyn
tp1435
a(VRozanne
tp1436
a(VDina
tp1437
a(VQuintana
tp1438
a(VStephine
tp1439
a(VCortney
tp1440
a(VBabs
tp1441
a(VAlleen
tp1442
a(VDanette
tp1443
a(VAnnaliese
tp1444
a(VJosepha
tp1445
a(VJanaya
tp1446
a(VHeath
tp1447
a(VHenrietta
tp1448
a(VCarree
tp1449
a(VKira
tp1450
a(VNedi
tp1451
a(VGipsy
tp1452
a(VEmmy
tp1453
a(VIrita
tp1454
a(VConni
tp1455
a(VPam
tp1456
a(VEssy
tp1457
a(VKristyn
tp1458
a(VPearline
tp1459
a(VLorelle
tp1460
a(VLauretta
tp1461
a(VElvina
tp1462
a(VSunny
tp1463
a(VNatalia
tp1464
a(VLinette
tp1465
a(VAryn
tp1466
a(VCarmel
tp1467
a(VRoch
tp1468
a(VAnnecorinne
tp1469
a(VCodee
tp1470
a(VAnnnora
tp1471
a(VJosie
tp1472
a(VGilberte
tp1473
a(VAlica
tp1474
a(VAmara
tp1475
a(VLinnet
tp1476
a(VMichell
tp1477
a(VRose
tp1478
a(VTonie
tp1479
a(VElysee
tp1480
a(VLorne
tp1481
a(VBrandise
tp1482
a(VDulcinea
tp1483
a(VDoria
tp1484
a(VBerget
tp1485
a(VBecka
tp1486
a(VCorella
tp1487
a(VOlivette
tp1488
a(VTabbi
tp1489
a(VInna
tp1490
a(VMarie-Ann
tp1491
a(VLita
tp1492
a(VErinn
tp1493
a(VAllis
tp1494
a(VLiz
tp1495
a(VAudra
tp1496
a(VDamara
tp1497
a(VMalcah
tp1498
a(VAnnalee
tp1499
a(VKala
tp1500
a(VPansie
tp1501
a(VRuperta
tp1502
a(VRickie
tp1503
a(VAlidia
tp1504
a(VBrigida
tp1505
a(VAntonella
tp1506
a(VBillie
tp1507
a(VPhoebe
tp1508
a(VSteffane
tp1509
a(VTiffy
tp1510
a(VCatina
tp1511
a(VAdrian
tp1512
a(VCharline
tp1513
a(VLuelle
tp1514
a(VEtty
tp1515
a(VAlia
tp1516
a(VEirena
tp1517
a(VMargarete
tp1518
a(VSarah
tp1519
a(VAbagail
tp1520
a(VCaril
tp1521
a(VTimothea
tp1522
a(VMarilin
tp1523
a(VCathryn
tp1524
a(VChanda
tp1525
a(VBethanne
tp1526
a(VJilly
tp1527
a(VBerte
tp1528
a(VTeriann
tp1529
a(VMora
tp1530
a(VOlwen
tp1531
a(VSue
tp1532
a(VJulita
tp1533
a(VHildegarde
tp1534
a(VDoris
tp1535
a(VJaynell
tp1536
a(VLatashia
tp1537
a(VCarmella
tp1538
a(VPenelope
tp1539
a(VZarah
tp1540
a(VSharla
tp1541
a(VPhilipa
tp1542
a(VLatisha
tp1543
a(VAmelia
tp1544
a(VFlorenza
tp1545
a(VYolanda
tp1546
a(VHerta
tp1547
a(VTabatha
tp1548
a(VKimmy
tp1549
a(VKirsten
tp1550
a(VKathryne
tp1551
a(VZea
tp1552
a(VCharlene
tp1553
a(VCilka
tp1554
a(VSusie
tp1555
a(VRobbi
tp1556
a(VRozamond
tp1557
a(VAlyda
tp1558
a(VDulcea
tp1559
a(VVerine
tp1560
a(VShoshie
tp1561
a(VJennie
tp1562
a(VLorenza
tp1563
a(VClarabelle
tp1564
a(VKeriann
tp1565
a(VGlenine
tp1566
a(VFaye
tp1567
a(VKalina
tp1568
a(VSuzi
tp1569
a(VGladi
tp1570
a(VGeorgette
tp1571
a(VDianne
tp1572
a(VAnna-Maria
tp1573
a(VElfrida
tp1574
a(VCecilla
tp1575
a(VVinni
tp1576
a(VRosalie
tp1577
a(VKarrie
tp1578
a(VFatima
tp1579
a(VNelle
tp1580
a(VCasie
tp1581
a(VEllene
tp1582
a(VMarchelle
tp1583
a(VGerianna
tp1584
a(VManda
tp1585
a(VSasha
tp1586
a(VCatlin
tp1587
a(VVeda
tp1588
a(VCassi
tp1589
a(VSidonia
tp1590
a(VSteffi
tp1591
a(VCloris
tp1592
a(VWilmette
tp1593
a(VTrixi
tp1594
a(VOdille
tp1595
a(VMyrle
tp1596
a(VKym
tp1597
a(VGale
tp1598
a(VNathalia
tp1599
a(VJenny
tp1600
a(VTheressa
tp1601
a(VRobyn
tp1602
a(VWillamina
tp1603
a(VMerla
tp1604
a(VRosina
tp1605
a(VDena
tp1606
a(VGertrude
tp1607
a(VPhedra
tp1608
a(VGayle
tp1609
a(VEolande
tp1610
a(VMary
tp1611
a(VYolane
tp1612
a(VFredia
tp1613
a(VTraci
tp1614
a(VGertrud
tp1615
a(VCasey
tp1616
a(VKathlin
tp1617
a(VGerta
tp1618
a(VAnnamaria
tp1619
a(VDevan
tp1620
a(VKayley
tp1621
a(VKissee
tp1622
a(VDaisey
tp1623
a(VFawnia
tp1624
a(VAmata
tp1625
a(VKarlotte
tp1626
a(VPetrina
tp1627
a(VJeannette
tp1628
a(VMalina
tp1629
a(VClemmie
tp1630
a(VKeelia
tp1631
a(VCati
tp1632
a(VBetsey
tp1633
a(VAinsley
tp1634
a(VDarby
tp1635
a(VFlossie
tp1636
a(VDidi
tp1637
a(VKaren
tp1638
a(VFanni
tp1639
a(VMei
tp1640
a(VYoshiko
tp1641
a(VJori
tp1642
a(VMuriel
tp1643
a(VDebera
tp1644
a(VLira
tp1645
a(VCarissa
tp1646
a(VGavra
tp1647
a(VGene
tp1648
a(VDannie
tp1649
a(VEmmalee
tp1650
a(VLishe
tp1651
a(VMagna
tp1652
a(VLeann
tp1653
a(VBelicia
tp1654
a(VFlower
tp1655
a(VNydia
tp1656
a(VMarlie
tp1657
a(VMagdalena
tp1658
a(VIsabelita
tp1659
a(VDonia
tp1660
a(VArden
tp1661
a(VMeira
tp1662
a(VMorlee
tp1663
a(VDorothy
tp1664
a(VHatty
tp1665
a(VMagdaia
tp1666
a(VGinnie
tp1667
a(VCarmela
tp1668
a(VLacy
tp1669
a(VMarsha
tp1670
a(VCeil
tp1671
a(VChrysa
tp1672
a(VRobena
tp1673
a(VAbra
tp1674
a(VMinny
tp1675
a(VCal
tp1676
a(VAnna-Diane
tp1677
a(VJenilee
tp1678
a(VMollie
tp1679
a(VAdrianna
tp1680
a(VDoralin
tp1681
a(VNeille
tp1682
a(VHarrie
tp1683
a(VGennifer
tp1684
a(VLesley
tp1685
a(VMarjie
tp1686
a(VDorise
tp1687
a(VMonique
tp1688
a(VMaryann
tp1689
a(VOralle
tp1690
a(VOthelia
tp1691
a(VDorothea
tp1692
a(VJordain
tp1693
a(VBeckie
tp1694
a(VBev
tp1695
a(VClem
tp1696
a(VRachael
tp1697
a(VBriney
tp1698
a(VJolee
tp1699
a(VCristie
tp1700
a(VPia
tp1701
a(VHalli
tp1702
a(VBeatrice
tp1703
a(VHelga
tp1704
a(VMargaret
tp1705
a(VGermana
tp1706
a(VJoelly
tp1707
a(VGabbey
tp1708
a(VTildie
tp1709
a(VVanni
tp1710
a(VGunilla
tp1711
a(VSybille
tp1712
a(VNoemi
tp1713
a(VAshli
tp1714
a(VGladys
tp1715
a(VJennilee
tp1716
a(VVentura
tp1717
a(VLuella
tp1718
a(VCherilynn
tp1719
a(VDesirae
tp1720
a(VDodi
tp1721
a(VLust
tp1722
a(VCelestine
tp1723
a(VMyrah
tp1724
a(VSheeree
tp1725
a(VHelise
tp1726
a(VDelphinia
tp1727
a(VHyacinthia
tp1728
a(VClary
tp1729
a(VRiki
tp1730
a(VCorrine
tp1731
a(VSamuela
tp1732
a(VNannette
tp1733
a(VGinny
tp1734
a(VHelen
tp1735
a(VLaurel
tp1736
a(VDee
tp1737
a(VKathie
tp1738
a(VTami
tp1739
a(VDedra
tp1740
a(VWandie
tp1741
a(VHalette
tp1742
a(VTerrie
tp1743
a(VJanis
tp1744
a(VKamillah
tp1745
a(VCatherine
tp1746
a(VChicky
tp1747
a(VRenell
tp1748
a(VEmmie
tp1749
a(VValene
tp1750
a(VPhilomena
tp1751
a(VKizzie
tp1752
a(VMeggan
tp1753
a(VJonie
tp1754
a(VDonna
tp1755
a(VEmeline
tp1756
a(VDiann
tp1757
a(VLayney
tp1758
a(VPandora
tp1759
a(VElsi
tp1760
a(VLinnea
tp1761
a(VLeese
tp1762
a(VMaya
tp1763
a(VBette
tp1764
a(VDarsie
tp1765
a(VCody
tp1766
a(VHermia
tp1767
a(VMatty
tp1768
a(VWilhelmina
tp1769
a(VYoshi
tp1770
a(VNicolea
tp1771
a(VJerrilyn
tp1772
a(VMyrtia
tp1773
a(VJenette
tp1774
a(VTia
tp1775
a(VChristal
tp1776
a(VOliy
tp1777
a(VCarey
tp1778
a(VReeta
tp1779
a(VMariska
tp1780
a(VKee
tp1781
a(VElna
tp1782
a(VMozelle
tp1783
a(VMyna
tp1784
a(VShaylyn
tp1785
a(VMelitta
tp1786
a(VMaggy
tp1787
a(VKorney
tp1788
a(VClarinda
tp1789
a(VRoselin
tp1790
a(VVikkie
tp1791
a(VZia
tp1792
a(VPerry
tp1793
a(VEthelyn
tp1794
a(VGwen
tp1795
a(VAlmeta
tp1796
a(VRhiamon
tp1797
a(VTrudie
tp1798
a(VJeni
tp1799
a(VMaybelle
tp1800
a(VJewel
tp1801
a(VBunni
tp1802
a(VCarmine
tp1803
a(VThomasa
tp1804
a(VKelcy
tp1805
a(VCalley
tp1806
a(VGretna
tp1807
a(VRayshell
tp1808
a(VKarol
tp1809
a(VAlyssa
tp1810
a(VMaxy
tp1811
a(VXena
tp1812
a(VCamile
tp1813
a(VPegeen
tp1814
a(VAnica
tp1815
a(VShelbi
tp1816
a(VEvangelina
tp1817
a(VKrystal
tp1818
a(VXylina
tp1819
a(VMeaghan
tp1820
a(VAlane
tp1821
a(VFayette
tp1822
a(VKathe
tp1823
a(VThalia
tp1824
a(VAtlanta
tp1825
a(VConcettina
tp1826
a(VCaresse
tp1827
a(VJean
tp1828
a(VBernita
tp1829
a(VClaudie
tp1830
a(VGracie
tp1831
a(VTammi
tp1832
a(VOlimpia
tp1833
a(VKristine
tp1834
a(VLeontine
tp1835
a(VDi
tp1836
a(VTobye
tp1837
a(VElnora
tp1838
a(VMerline
tp1839
a(VLauralee
tp1840
a(VGeorgena
tp1841
a(VMarcelia
tp1842
a(VCatarina
tp1843
a(VSelene
tp1844
a(VStacee
tp1845
a(VAprilette
tp1846
a(VRosita
tp1847
a(VMaddalena
tp1848
a(VManya
tp1849
a(VLeonora
tp1850
a(VGarnet
tp1851
a(VNerta
tp1852
a(VIdell
tp1853
a(VAdoree
tp1854
a(VHyacinthe
tp1855
a(VFlore
tp1856
a(VMarney
tp1857
a(VDarya
tp1858
a(VBrittney
tp1859
a(VBab
tp1860
a(VCynthie
tp1861
a(VMeggi
tp1862
a(VAnet
tp1863
a(VRuthy
tp1864
a(VIrene
tp1865
a(VSerene
tp1866
a(VDulciana
tp1867
a(VSandy
tp1868
a(VRenie
tp1869
a(VJacki
tp1870
a(VCassandry
tp1871
a(VGianna
tp1872
a(VClaudette
tp1873
a(VOrelie
tp1874
a(VKalie
tp1875
a(VAngie
tp1876
a(VAnnora
tp1877
a(VFelicia
tp1878
a(VJo
tp1879
a(VJude
tp1880
a(VRoxi
tp1881
a(VClaudina
tp1882
a(VPaige
tp1883
a(VTillie
tp1884
a(VSheril
tp1885
a(VDanice
tp1886
a(VWilow
tp1887
a(VKristin
tp1888
a(VJami
tp1889
a(VEran
tp1890
a(VTamera
tp1891
a(VMarena
tp1892
a(VBeatrisa
tp1893
a(VIlene
tp1894
a(VCharmane
tp1895
a(VVania
tp1896
a(VArabelle
tp1897
a(VLissy
tp1898
a(VAlene
tp1899
a(VLoralie
tp1900
a(VAppolonia
tp1901
a(VMaxie
tp1902
a(VMalorie
tp1903
a(VMatelda
tp1904
a(VElvera
tp1905
a(VArdra
tp1906
a(VMollee
tp1907
a(VDulsea
tp1908
a(VCindelyn
tp1909
a(VIdelle
tp1910
a(VAbby
tp1911
a(VMichaelina
tp1912
a(VCris
tp1913
a(VMidge
tp1914
a(VKatherina
tp1915
a(VKatee
tp1916
a(VLynda
tp1917
a(VUlrika
tp1918
a(VNady
tp1919
a(VMalory
tp1920
a(VBerna
tp1921
a(VAubrette
tp1922
a(VPatti
tp1923
a(VJacintha
tp1924
a(VDaniel
tp1925
a(VDyna
tp1926
a(VMartie
tp1927
a(VUrsula
tp1928
a(VKorie
tp1929
a(VLorie
tp1930
a(VJanella
tp1931
a(VMariel
tp1932
a(VSusannah
tp1933
a(VMeryl
tp1934
a(VAgace
tp1935
a(VKippie
tp1936
a(VBernelle
tp1937
a(VSari
tp1938
a(VJacqui
tp1939
a(VFlorice
tp1940
a(VMatilda
tp1941
a(VModestia
tp1942
a(VCoralyn
tp1943
a(VPrudence
tp1944
a(VKevina
tp1945
a(VVeronica
tp1946
a(VGisele
tp1947
a(VGrace
tp1948
a(VChiquita
tp1949
a(VDiena
tp1950
a(VIngaborg
tp1951
a(VTessa
tp1952
a(VLeorah
tp1953
a(VAbbey
tp1954
a(VLeiah
tp1955
a(VKatya
tp1956
a(VAline
tp1957
a(VHedwig
tp1958
a(VWileen
tp1959
a(VFrancine
tp1960
a(VMelva
tp1961
a(VSusanne
tp1962
a(VCharil
tp1963
a(VZara
tp1964
a(VVicky
tp1965
a(VMarlane
tp1966
a(VDione
tp1967
a(VRhona
tp1968
a(VMelodee
tp1969
a(VPage
tp1970
a(VRanda
tp1971
a(VMindy
tp1972
a(VJohannah
tp1973
a(VLotta
tp1974
a(VBetsy
tp1975
a(VEydie
tp1976
a(VCelinka
tp1977
a(VKeslie
tp1978
a(VAmargo
tp1979
a(VPhylys
tp1980
a(VRori
tp1981
a(VRonni
tp1982
a(VLavinia
tp1983
a(VDelia
tp1984
a(VSydney
tp1985
a(VMadlin
tp1986
a(VAileen
tp1987
a(VFrances
tp1988
a(VTessi
tp1989
a(VKristy
tp1990
a(VBecky
tp1991
a(VCoretta
tp1992
a(VDeedee
tp1993
a(VCarmelia
tp1994
a(VAinslie
tp1995
a(VBea
tp1996
a(VAlmeda
tp1997
a(VE'Lane
tp1998
a(VMarielle
tp1999
a(VShayla
tp2000
a(VWenda
tp2001
a(VMae
tp2002
a(VRomy
tp2003
a(VOlenka
tp2004
a(VSuki
tp2005
a(VKimberly
tp2006
a(VMalinde
tp2007
a(VConstancy
tp2008
a(VRania
tp2009
a(VBetteanne
tp2010
a(VDeloris
tp2011
a(VVeronike
tp2012
a(VJillene
tp2013
a(VOfella
tp2014
a(VClementine
tp2015
a(VGinger
tp2016
a(VLetti
tp2017
a(VMariam
tp2018
a(VTorey
tp2019
a(VEleanora
tp2020
a(VNadiya
tp2021
a(VDaile
tp2022
a(VElvira
tp2023
a(VGerhardine
tp2024
a(VKevyn
tp2025
a(VSydelle
tp2026
a(VKatti
tp2027
a(VSibylle
tp2028
a(VCarena
tp2029
a(VHeidi
tp2030
a(VQuintina
tp2031
a(VGae
tp2032
a(VGuenevere
tp2033
a(VDafna
tp2034
a(VLisetta
tp2035
a(VShaylah
tp2036
a(VChristian
tp2037
a(VTeresita
tp2038
a(VKellen
tp2039
a(VIsabel
tp2040
a(VCinderella
tp2041
a(VLeonie
tp2042
a(VLinn
tp2043
a(VYovonnda
tp2044
a(VPhillida
tp2045
a(VEdy
tp2046
a(VMyrlene
tp2047
a(VMalkah
tp2048
a(VDoralynne
tp2049
a(VBlinnie
tp2050
a(VJammie
tp2051
a(VColline
tp2052
a(VNelia
tp2053
a(VGwenneth
tp2054
a(VHelli
tp2055
a(VSara-Ann
tp2056
a(VJacenta
tp2057
a(VAllina
tp2058
a(VRosalynd
tp2059
a(VShanon
tp2060
a(VSusi
tp2061
a(VEma
tp2062
a(VAdela
tp2063
a(VFedora
tp2064
a(VHarriett
tp2065
a(VCindi
tp2066
a(VYoko
tp2067
a(VHannis
tp2068
a(VShalna
tp2069
a(VAdelina
tp2070
a(VMarina
tp2071
a(VClareta
tp2072
a(VCarlin
tp2073
a(VLarina
tp2074
a(VShannah
tp2075
a(VPeggi
tp2076
a(VDeirdre
tp2077
a(VKiley
tp2078
a(VMaryl
tp2079
a(VClementia
tp2080
a(VWillow
tp2081
a(VFredericka
tp2082
a(VFrancesmary
tp2083
a(VJacinda
tp2084
a(VBianca
tp2085
a(VRafa
tp2086
a(VCresa
tp2087
a(VMercedes
tp2088
a(VAlanah
tp2089
a(VMuire
tp2090
a(VEugenia
tp2091
a(VAdiana
tp2092
a(VLissie
tp2093
a(VVenus
tp2094
a(VOfilia
tp2095
a(VDael
tp2096
a(VWendeline
tp2097
a(VBrunella
tp2098
a(VRandy
tp2099
a(VTory
tp2100
a(VEmmalyn
tp2101
a(VEvette
tp2102
a(VEstel
tp2103
a(VRayna
tp2104
a(VHarmonie
tp2105
a(VJaclyn
tp2106
a(VDemetria
tp2107
a(VDorolice
tp2108
a(VDorthy
tp2109
a(VKaril
tp2110
a(VEmelita
tp2111
a(VLois
tp2112
a(VLilllie
tp2113
a(VAngelika
tp2114
a(VAlmeria
tp2115
a(VRory
tp2116
a(VMoria
tp2117
a(VGussy
tp2118
a(VWillyt
tp2119
a(VCharisse
tp2120
a(VChastity
tp2121
a(VKarlyn
tp2122
a(VOpal
tp2123
a(VMadelena
tp2124
a(VKylen
tp2125
a(VGeneva
tp2126
a(VEmmi
tp2127
a(VMargarette
tp2128
a(VCaritta
tp2129
a(VMarna
tp2130
a(VChelsie
tp2131
a(VTruda
tp2132
a(VAbigael
tp2133
a(VKordula
tp2134
a(VKassie
tp2135
a(VTressa
tp2136
a(VGail
tp2137
a(VMichal
tp2138
a(VMargret
tp2139
a(VKelcie
tp2140
a(VCamala
tp2141
a(VGloriane
tp2142
a(VSamaria
tp2143
a(VSybilla
tp2144
a(VChristine
tp2145
a(VSelma
tp2146
a(VFredi
tp2147
a(VWini
tp2148
a(VIsobel
tp2149
a(VElise
tp2150
a(VCourtenay
tp2151
a(VDoro
tp2152
a(VKamila
tp2153
a(VKari
tp2154
a(VAdriane
tp2155
a(VTherine
tp2156
a(VMarianna
tp2157
a(VTwyla
tp2158
a(VAlthea
tp2159
a(VElene
tp2160
a(VRow
tp2161
a(VMillicent
tp2162
a(VTabby
tp2163
a(VKiele
tp2164
a(VNicolette
tp2165
a(VRoseanna
tp2166
a(VCabrina
tp2167
a(VDaryn
tp2168
a(VVere
tp2169
a(VErica
tp2170
a(VElisabetta
tp2171
a(VPaulette
tp2172
a(VKellia
tp2173
a(VKatalin
tp2174
a(VCelle
tp2175
a(VHinda
tp2176
a(VDavita
tp2177
a(VLayne
tp2178
a(VTerina
tp2179
a(VTabbatha
tp2180
a(VTiffi
tp2181
a(VMufinella
tp2182
a(VIlysa
tp2183
a(VLatia
tp2184
a(VCarlotta
tp2185
a(VHedi
tp2186
a(VHettie
tp2187
a(VLaverna
tp2188
a(VBrandice
tp2189
a(VNicola
tp2190
a(VMagda
tp2191
a(VAdelind
tp2192
a(VFayre
tp2193
a(VElie
tp2194
a(VJessika
tp2195
a(VDanelle
tp2196
a(VJillayne
tp2197
a(VJilli
tp2198
a(VLilias
tp2199
a(VVivianne
tp2200
a(VNitin
tp2201
a(VGwenora
tp2202
a(VSally
tp2203
a(VNinnetta
tp2204
a(VVivie
tp2205
a(VCandice
tp2206
a(VMadelyn
tp2207
a(VBelita
tp2208
a(VDanna
tp2209
a(VLea
tp2210
a(VJaneva
tp2211
a(VBarrie
tp2212
a(VJosey
tp2213
a(VAnnabella
tp2214
a(VJosephine
tp2215
a(VRey
tp2216
a(VTaryn
tp2217
a(VOneida
tp2218
a(VValaree
tp2219
a(VHyacintha
tp2220
a(VGelya
tp2221
a(VAdelle
tp2222
a(VMelisa
tp2223
a(VKerianne
tp2224
a(VDiane-Marie
tp2225
a(VDel
tp2226
a(VCheryl
tp2227
a(VLeontyne
tp2228
a(VMarsiella
tp2229
a(VCalli
tp2230
a(VCatherin
tp2231
a(VShell
tp2232
a(VMaddi
tp2233
a(VTomasine
tp2234
a(VPatrice
tp2235
a(VNanni
tp2236
a(VEmmey
tp2237
a(VAngel
tp2238
a(VFloria
tp2239
a(VLolande
tp2240
a(VSuzy
tp2241
a(VCandie
tp2242
a(VCorina
tp2243
a(VArabela
tp2244
a(VErminia
tp2245
a(VDarcie
tp2246
a(VBrynna
tp2247
a(VJesse
tp2248
a(VSharon
tp2249
a(VLeland
tp2250
a(VLyndell
tp2251
a(VSonny
tp2252
a(VFernanda
tp2253
a(VTedda
tp2254
a(VHellene
tp2255
a(VNichol
tp2256
a(VJandy
tp2257
a(VSigrid
tp2258
a(VLindi
tp2259
a(VLane
tp2260
a(VMada
tp2261
a(VFiona
tp2262
a(VCordula
tp2263
a(VKarie
tp2264
a(VFrayda
tp2265
a(VAurlie
tp2266
a(VTrixy
tp2267
a(VLynne
tp2268
a(VDelinda
tp2269
a(VErinna
tp2270
a(VGiana
tp2271
a(VCissy
tp2272
a(VCaitrin
tp2273
a(VAnja
tp2274
a(VCordey
tp2275
a(VJoslyn
tp2276
a(VShirline
tp2277
a(VCaren
tp2278
a(VTheresina
tp2279
a(VAubrey
tp2280
a(VEba
tp2281
a(VAntonina
tp2282
a(VMari
tp2283
a(VMelonie
tp2284
a(VCharlot
tp2285
a(VIngeborg
tp2286
a(VRosabelle
tp2287
a(VThomasine
tp2288
a(VVirgie
tp2289
a(VUla
tp2290
a(VMorganne
tp2291
a(VTiphani
tp2292
a(VWinnie
tp2293
a(VGabriela
tp2294
a(VGwenn
tp2295
a(VShina
tp2296
a(VHermine
tp2297
a(VArdyce
tp2298
a(VDallas
tp2299
a(VHazel
tp2300
a(VLynnett
tp2301
a(VBrunhilde
tp2302
a(VBerty
tp2303
a(VRobenia
tp2304
a(VLaraine
tp2305
a(VFawn
tp2306
a(VCybelle
tp2307
a(VShantee
tp2308
a(VDenna
tp2309
a(VEtti
tp2310
a(VSharyl
tp2311
a(VLauraine
tp2312
a(VNorine
tp2313
a(VHenka
tp2314
a(VFreida
tp2315
a(VKirbee
tp2316
a(VCarolyne
tp2317
a(VMaura
tp2318
a(VMaddie
tp2319
a(VSherye
tp2320
a(VEmmalynn
tp2321
a(VInci
tp2322
a(VJordan
tp2323
a(VGoldy
tp2324
a(VJo-Ann
tp2325
a(VGisella
tp2326
a(VBuffy
tp2327
a(VRemy
tp2328
a(VCornelia
tp2329
a(VCarine
tp2330
a(VRanique
tp2331
a(VLanna
tp2332
a(VMarguerite
tp2333
a(VJackqueline
tp2334
a(VShandra
tp2335
a(VLouisette
tp2336
a(VRobbie
tp2337
a(VAdora
tp2338
a(VHilde
tp2339
a(VJo
VAnn
tp2340
a(VBritta
tp2341
a(VMmarianne
tp2342
a(VNancy
tp2343
a(VDanita
tp2344
a(VMaxine
tp2345
a(VChelsae
tp2346
a(VVirgina
tp2347
a(VClair
tp2348
a(VFlorie
tp2349
a(VWilona
tp2350
a(VNelly
tp2351
a(VEvania
tp2352
a(VAlejandrina
tp2353
a(VMarji
tp2354
a(VFanchette
tp2355
a(VAjay
tp2356
a(VFarah
tp2357
a(VMaisey
tp2358
a(VNicol
tp2359
a(VEster
tp2360
a(VPaulita
tp2361
a(VAlicia
tp2362
a(VBabita
tp2363
a(VEimile
tp2364
a(VChelsea
tp2365
a(VMerissa
tp2366
a(VAbbie
tp2367
a(VNatalina
tp2368
a(VNancie
tp2369
a(VShira
tp2370
a(VPhilippine
tp2371
a(VMarian
tp2372
a(VJocelyne
tp2373
a(VHelaine
tp2374
a(VMelita
tp2375
a(VCorey
tp2376
a(VMeridith
tp2377
a(VAubree
tp2378
a(VAndromache
tp2379
a(VNadia
tp2380
a(VRuthann
tp2381
a(VClemmy
tp2382
a(VRamonda
tp2383
a(VClerissa
tp2384
a(VAleece
tp2385
a(VFernande
tp2386
a(VFortuna
tp2387
a(VDinah
tp2388
a(VIbby
tp2389
a(VKarna
tp2390
a(VWallis
tp2391
a(VFaustine
tp2392
a(VKatrina
tp2393
a(VMarketa
tp2394
a(VErmina
tp2395
a(VDoe
tp2396
a(VJanice
tp2397
a(VCarlynn
tp2398
a(VMartha
tp2399
a(VAnge
tp2400
a(VCindy
tp2401
a(VMaxi
tp2402
a(VWinnah
tp2403
a(VVanessa
tp2404
a(VIsabeau
tp2405
a(VMelisse
tp2406
a(VNona
tp2407
a(VDorri
tp2408
a(VDesiree
tp2409
a(VAnny
tp2410
a(VRaynell
tp2411
a(VRubetta
tp2412
a(VCarmelita
tp2413
a(VTony
tp2414
a(VAddie
tp2415
a(VCodi
tp2416
a(VCatherina
tp2417
a(VFrancis
tp2418
a(VClaudelle
tp2419
a(VGates
tp2420
a(VOrelle
tp2421
a(VGilberta
tp2422
a(VFallon
tp2423
a(VBree
tp2424
a(VKarleen
tp2425
a(VRomonda
tp2426
a(VCyb
tp2427
a(VElberta
tp2428
a(VQuintilla
tp2429
a(VPenelopa
tp2430
a(VRebeca
tp2431
a(VGeorgiamay
tp2432
a(VCatha
tp2433
a(VMarleen
tp2434
a(VGratiana
tp2435
a(VImojean
tp2436
a(VRafaela
tp2437
a(VRoberta
tp2438
a(VTobi
tp2439
a(VRoselle
tp2440
a(VMaggi
tp2441
a(VGusella
tp2442
a(VLiana
tp2443
a(VChloris
tp2444
a(VBenedicta
tp2445
a(VStevana
tp2446
a(VTootsie
tp2447
a(VImogen
tp2448
a(VEddy
tp2449
a(VAveryl
tp2450
a(VJulienne
tp2451
a(VJada
tp2452
a(VJanine
tp2453
a(VBliss
tp2454
a(VAugusta
tp2455
a(VKalinda
tp2456
a(VNat
tp2457
a(VRoselyn
tp2458
a(VSheri
tp2459
a(VLegra
tp2460
a(VStacia
tp2461
a(VAudi
tp2462
a(VCicely
tp2463
a(VKelci
tp2464
a(VRoxie
tp2465
a(VJoelle
tp2466
a(VEmelina
tp2467
a(VBenny
tp2468
a(VHestia
tp2469
a(VPatsy
tp2470
a(VPammy
tp2471
a(VJunina
tp2472
a(VIlona
tp2473
a(VJanetta
tp2474
a(VEmelia
tp2475
a(VAleta
tp2476
a(VAphrodite
tp2477
a(VEvaleen
tp2478
a(VJere
tp2479
a(VFiorenze
tp2480
a(VTiff
tp2481
a(VFanchon
tp2482
a(VTierney
tp2483
a(VNaomi
tp2484
a(VClaresta
tp2485
a(VConstanta
tp2486
a(VEdithe
tp2487
a(VEdin
tp2488
a(VOdella
tp2489
a(VMellisent
tp2490
a(VBettye
tp2491
a(VMoyna
tp2492
a(VJaney
tp2493
a(VKia
tp2494
a(VDyann
tp2495
a(VIormina
tp2496
a(VIdette
tp2497
a(VRoselia
tp2498
a(VRuthie
tp2499
a(VCoral
tp2500
a(VGlynnis
tp2501
a(VRebe
tp2502
a(VMerralee
tp2503
a(VTheodosia
tp2504
a(VLucilia
tp2505
a(VMariquilla
tp2506
a(VDorelia
tp2507
a(VRubie
tp2508
a(VRonica
tp2509
a(VTamar
tp2510
a(VFeodora
tp2511
a(VArly
tp2512
a(VMonica
tp2513
a(VLorinda
tp2514
a(VSandra
tp2515
a(VFelicity
tp2516
a(VPetronille
tp2517
a(VRita
tp2518
a(VGleda
tp2519
a(VCarlina
tp2520
a(VMargie
tp2521
a(VFabrice
tp2522
a(VJulia
tp2523
a(VDyanna
tp2524
a(VGerda
tp2525
a(VMerridie
tp2526
a(VJuliana
tp2527
a(VKatharine
tp2528
a(VOpalina
tp2529
a(VSandi
tp2530
a(VBess
tp2531
a(VRoby
tp2532
a(VJacky
tp2533
a(VZondra
tp2534
a(VOfelia
tp2535
a(VDebbi
tp2536
a(VGinelle
tp2537
a(VTeena
tp2538
a(VDavine
tp2539
a(VOlga
tp2540
a(VElizabet
tp2541
a(VSheba
tp2542
a(VNyssa
tp2543
a(VWinona
tp2544
a(VGeorgeta
tp2545
a(VMella
tp2546
a(VDari
tp2547
a(VLethia
tp2548
a(VMarta
tp2549
a(VKynthia
tp2550
a(VMikako
tp2551
a(VCherri
tp2552
a(VElga
tp2553
a(VDarleen
tp2554
a(VSean
tp2555
a(VValentine
tp2556
a(VMela
tp2557
a(VEmylee
tp2558
a(VCarmen
tp2559
a(VReeva
tp2560
a(VMaegan
tp2561
a(VSuzzy
tp2562
a(VKyrstin
tp2563
a(VJany
tp2564
a(VAdi
tp2565
a(VMariellen
tp2566
a(VRachel
tp2567
a(VLorianne
tp2568
a(VMinna
tp2569
a(VSisely
tp2570
a(VKetti
tp2571
a(VSusann
tp2572
a(VCrissy
tp2573
a(VKacy
tp2574
a(VWren
tp2575
a(VJamima
tp2576
a(VDale
tp2577
a(VKendra
tp2578
a(VVivienne
tp2579
a(VTamara
tp2580
a(VVivi
tp2581
a(VMatti
tp2582
a(VDeanne
tp2583
a(VHallie
tp2584
a(VEnrica
tp2585
a(VAindrea
tp2586
a(VFaunie
tp2587
a(VMelosa
tp2588
a(VCara
tp2589
a(VRuthanne
tp2590
a(VTabitha
tp2591
a(VJackie
tp2592
a(VAshely
tp2593
a(VDorry
tp2594
a(VIsahella
tp2595
a(VJesselyn
tp2596
a(VBerthe
tp2597
a(VAmalita
tp2598
a(VKatharyn
tp2599
a(VLuci
tp2600
a(VRandi
tp2601
a(VChristan
tp2602
a(VMaire
tp2603
a(VSibyl
tp2604
a(VMarnie
tp2605
a(VRonna
tp2606
a(VAbbi
tp2607
a(VMairead
tp2608
a(VCorrie
tp2609
a(VTrenna
tp2610
a(VHelyn
tp2611
a(VFaun
tp2612
a(VNadeen
tp2613
a(VPamela
tp2614
a(VHermione
tp2615
a(VChristel
tp2616
a(VTatum
tp2617
a(VGiralda
tp2618
a(VIlyssa
tp2619
a(VIdalia
tp2620
a(VJudy
tp2621
a(VMadelon
tp2622
a(VMarice
tp2623
a(VAugustine
tp2624
a(VJacynth
tp2625
a(VGrayce
tp2626
a(VBlondie
tp2627
a(VShayne
tp2628
a(VSeline
tp2629
a(VMarj
tp2630
a(VCoreen
tp2631
a(VLeona
tp2632
a(VFayina
tp2633
a(VCaryl
tp2634
a(VRhonda
tp2635
a(VCallie
tp2636
a(VKissie
tp2637
a(VNara
tp2638
a(VMarisa
tp2639
a(VRobby
tp2640
a(VJerry
tp2641
a(VDarryl
tp2642
a(VStormie
tp2643
a(VTessy
tp2644
a(VNana
tp2645
a(VOrsola
tp2646
a(VFilide
tp2647
a(VAgatha
tp2648
a(VVinita
tp2649
a(VLyn
tp2650
a(VEkaterina
tp2651
a(VGerladina
tp2652
a(VAlfreda
tp2653
a(VLucina
tp2654
a(VDolli
tp2655
a(VRozina
tp2656
a(VMelany
tp2657
a(VAeriel
tp2658
a(VDorotea
tp2659
a(VJanenna
tp2660
a(VLynnet
tp2661
a(VCallida
tp2662
a(VJane
tp2663
a(VEmyle
tp2664
a(VLulu
tp2665
a(VLisandra
tp2666
a(VLetty
tp2667
a(VHesther
tp2668
a(VMarcille
tp2669
a(VRennie
tp2670
a(VGlyn
tp2671
a(VMorgan
tp2672
a(VBamby
tp2673
a(VLavina
tp2674
a(VSibel
tp2675
a(VCeleste
tp2676
a(VMisti
tp2677
a(VDorree
tp2678
a(VSarine
tp2679
a(VFrancisca
tp2680
a(VRosana
tp2681
a(VGeorgia
tp2682
a(VCheslie
tp2683
a(VAleecia
tp2684
a(VDacie
tp2685
a(VIlka
tp2686
a(VCathee
tp2687
a(VRea
tp2688
a(VBelvia
tp2689
a(VDaphna
tp2690
a(VNolie
tp2691
a(VZilvia
tp2692
a(VPet
tp2693
a(VPenny
tp2694
a(VDaveta
tp2695
a(VDanyelle
tp2696
a(VMaryjo
tp2697
a(VEloise
tp2698
a(VMurial
tp2699
a(VBill
tp2700
a(VBrianna
tp2701
a(VEve
tp2702
a(VMahalia
tp2703
a(VKatinka
tp2704
a(VTrudy
tp2705
a(VPhebe
tp2706
a(VHeidie
tp2707
a(VNancey
tp2708
a(VSibby
tp2709
a(VMag
tp2710
a(VStephanie
tp2711
a(VMadelle
tp2712
a(VKonstanze
tp2713
a(VLilian
tp2714
a(VKaylil
tp2715
a(VLaurette
tp2716
a(VMarita
tp2717
a(VKatheryn
tp2718
a(VBridie
tp2719
a(VCorenda
tp2720
a(VLida
tp2721
a(VAleen
tp2722
a(VNanon
tp2723
a(VLizette
tp2724
a(VShirley
tp2725
a(VCalla
tp2726
a(VGabriella
tp2727
a(VMissie
tp2728
a(VJeanna
tp2729
a(VRuthi
tp2730
a(VCecily
tp2731
a(VMeg
tp2732
a(VBabara
tp2733
a(VTish
tp2734
a(VSileas
tp2735
a(VPriscilla
tp2736
a(VDevondra
tp2737
a(VStar
tp2738
a(VAndree
tp2739
a(VShilpa
tp2740
a(VBritt
tp2741
a(VGeralda
tp2742
a(VPippa
tp2743
a(VWilla
tp2744
a(VMaryanna
tp2745
a(VPeria
tp2746
a(VGabie
tp2747
a(VVena
tp2748
a(VRissa
tp2749
a(VLillis
tp2750
a(VMarge
tp2751
a(VPearla
tp2752
a(VKorrie
tp2753
a(VLeanne
tp2754
a(VFelicdad
tp2755
a(VChristy
tp2756
a(VMarrissa
tp2757
a(VLebbie
tp2758
a(VTammie
tp2759
a(VAngela
tp2760
a(VDeana
tp2761
a(VAda
tp2762
a(VHoratia
tp2763
a(VAlisun
tp2764
a(VBryana
tp2765
a(VMarcile
tp2766
a(VConstantina
tp2767
a(VCori
tp2768
a(VElisabeth
tp2769
a(VRobinetta
tp2770
a(VLucia
tp2771
a(VThekla
tp2772
a(VHarriott
tp2773
a(VCaroleen
tp2774
a(VDaphene
tp2775
a(VClarice
tp2776
a(VClara
tp2777
a(VSada
tp2778
a(VRenel
tp2779
a(VCornie
tp2780
a(VFreddie
tp2781
a(VAilene
tp2782
a(VCorrianne
tp2783
a(VFrancene
tp2784
a(VYonina
tp2785
a(VSherry
tp2786
a(VChristiana
tp2787
a(VJaquelin
tp2788
a(VHeide
tp2789
a(VRoxana
tp2790
a(VFlorencia
tp2791
a(VCaroline
tp2792
a(VSharna
tp2793
a(VColeen
tp2794
a(VVicki
tp2795
a(VReta
tp2796
a(VJasmina
tp2797
a(VGolda
tp2798
a(VRanna
tp2799
a(VOralia
tp2800
a(VLilas
tp2801
a(VOlly
tp2802
a(VKary
tp2803
a(VGussie
tp2804
a(VCatlaina
tp2805
a(VEunice
tp2806
a(VCathy
tp2807
a(VReine
tp2808
a(VBathsheba
tp2809
a(VTeresaAnne
tp2810
a(VLeodora
tp2811
a(VMehetabel
tp2812
a(VCourtney
tp2813
a(VSabine
tp2814
a(VEnid
tp2815
a(VMarlene
tp2816
a(VAveline
tp2817
a(VJoellen
tp2818
a(VLacie
tp2819
a(VRoze
tp2820
a(VRhody
tp2821
a(VLeoine
tp2822
a(VMarietta
tp2823
a(VRosa
tp2824
a(VEmmaline
tp2825
a(VCarilyn
tp2826
a(VBo
tp2827
a(VGusty
tp2828
a(VEllissa
tp2829
a(VArlie
tp2830
a(VNadine
tp2831
a(VElfreda
tp2832
a(VTallia
tp2833
a(VDove
tp2834
a(VJoell
tp2835
a(VAntonie
tp2836
a(VAlysa
tp2837
a(VStarlin
tp2838
a(VDaisy
tp2839
a(VCornela
tp2840
a(VDaniella
tp2841
a(VTeri
tp2842
a(VFlorinda
tp2843
a(VTherese
tp2844
a(VJaneta
tp2845
a(VAurelie
tp2846
a(VTheresa
tp2847
a(VCamella
tp2848
a(VNananne
tp2849
a(VAnestassia
tp2850
a(VColleen
tp2851
a(VAndy
tp2852
a(VLindsy
tp2853
a(VMaggie
tp2854
a(VDotty
tp2855
a(VRivalee
tp2856
a(VDori
tp2857
a(VElianora
tp2858
a(VPhilis
tp2859
a(VSindee
tp2860
a(VCaroljean
tp2861
a(VStoddard
tp2862
a(VEdwina
tp2863
a(VNisa
tp2864
a(VMarquita
tp2865
a(VSapphira
tp2866
a(VRebecka
tp2867
a(VLyndel
tp2868
a(VBrittany
tp2869
a(VCorena
tp2870
a(VKasey
tp2871
a(VElbertine
tp2872
a(VRozanna
tp2873
a(VHarriet
tp2874
a(VChriss
tp2875
a(VDaryl
tp2876
a(VBerny
tp2877
a(VRoslyn
tp2878
a(VLynnette
tp2879
a(VSharra
tp2880
a(VSheila-Kathryn
tp2881
a(VDaisie
tp2882
a(VReyna
tp2883
a(VMarit
tp2884
a(VMignonne
tp2885
a(VMerrielle
tp2886
a(VDeonne
tp2887
a(VEmlynn
tp2888
a(VDorice
tp2889
a(VIsabelle
tp2890
a(VLiliane
tp2891
a(VAdore
tp2892
a(VNicki
tp2893
a(VConsuelo
tp2894
a(VMarabel
tp2895
a(VBriny
tp2896
a(VAlyss
tp2897
a(VPhyllida
tp2898
a(VBobette
tp2899
a(VCherlyn
tp2900
a(VChantal
tp2901
a(VPru
tp2902
a(VStephi
tp2903
a(VBirgitta
tp2904
a(VGeorgeanna
tp2905
a(VZelda
tp2906
a(VAlberta
tp2907
a(VLiorah
tp2908
a(VGoldie
tp2909
a(VChandal
tp2910
a(VDelphina
tp2911
a(VBebe
tp2912
a(VZorah
tp2913
a(VFlori
tp2914
a(VLindy
tp2915
a(VBunnie
tp2916
a(VKristel
tp2917
a(VAcacia
tp2918
a(VNoell
tp2919
a(VHonoria
tp2920
a(VBlisse
tp2921
a(VStephannie
tp2922
a(VMallissa
tp2923
a(VBarbra
tp2924
a(VBekki
tp2925
a(VAnaliese
tp2926
a(VMerrilee
tp2927
a(VLisabeth
tp2928
a(VMommy
tp2929
a(VSherline
tp2930
a(VAnnabelle
tp2931
a(VUlrike
tp2932
a(VMartina
tp2933
a(VKissiah
tp2934
a(VSharron
tp2935
a(VRodi
tp2936
a(VKarine
tp2937
a(VEda
tp2938
a(VAva
tp2939
a(VMaridel
tp2940
a(VLove
tp2941
a(VFawne
tp2942
a(VRona
tp2943
a(VCecilia
tp2944
a(VCami
tp2945
a(VEdith
tp2946
a(VNora
tp2947
a(VMegen
tp2948
a(VTilda
tp2949
a(VSarene
tp2950
a(VTed
tp2951
a(VJanela
tp2952
a(VDeena
tp2953
a(VAnnmaria
tp2954
a(VSecunda
tp2955
a(VGilbertine
tp2956
a(VBerti
tp2957
a(VDulcy
tp2958
a(VShawnee
tp2959
a(VGiselle
tp2960
a(VCherey
tp2961
a(VKata
tp2962
a(VZora
tp2963
a(VDevonna
tp2964
a(VMona
tp2965
a(VFancie
tp2966
a(VAgnese
tp2967
a(VLuisa
tp2968
a(VBrooke
tp2969
a(VMadge
tp2970
a(VCarli
tp2971
a(VAnabel
tp2972
a(VAvrit
tp2973
a(VCarolynn
tp2974
a(VAllegra
tp2975
a(VHeloise
tp2976
a(VSilvana
tp2977
a(VEmma
tp2978
a(VHannie
tp2979
a(VOreste
tp2980
a(VShannon
tp2981
a(VElyssa
tp2982
a(VArdella
tp2983
a(VGoldi
tp2984
a(VClaudia
tp2985
a(VAlysia
tp2986
a(VZita
tp2987
a(VLuna
tp2988
a(VEsmerelda
tp2989
a(VAurilia
tp2990
a(VLiuka
tp2991
a(VKrystalle
tp2992
a(VKirsti
tp2993
a(VPeggie
tp2994
a(VDaloris
tp2995
a(VMelony
tp2996
a(VGera
tp2997
a(VNessa
tp2998
a(VFlorina
tp2999
a(VSavina
tp3000
a(VCosette
tp3001
a(VLavena
tp3002
a(VNanci
tp3003
a(VEleanor
tp3004
a(VEsmeralda
tp3005
a(VKatha
tp3006
a(VIvy
tp3007
a(VCristine
tp3008
a(VNertie
tp3009
a(VAndie
tp3010
a(VHeddi
tp3011
a(VArielle
tp3012
a(VNelli
tp3013
a(VCasia
tp3014
a(VMargurite
tp3015
a(VMarjy
tp3016
a(VGerianne
tp3017
a(VCordie
tp3018
a(VJacquelyn
tp3019
a(VJeannine
tp3020
a(VMaureene
tp3021
a(VValeda
tp3022
a(VJaymee
tp3023
a(VBlakeley
tp3024
a(VAmalia
tp3025
a(VLibbey
tp3026
a(VCookie
tp3027
a(VMaryangelyn
tp3028
a(VTheadora
tp3029
a(VLeigha
tp3030
a(VEdita
tp3031
a(VMaudie
tp3032
a(VJaquith
tp3033
a(VCyndy
tp3034
a(VAudry
tp3035
a(VVivyan
tp3036
a(VAlyce
tp3037
a(VSibbie
tp3038
a(VMurielle
tp3039
a(VAnne-Marie
tp3040
a(VGertruda
tp3041
a(VTess
tp3042
a(VMorganica
tp3043
a(VRaphaela
tp3044
a(VBlithe
tp3045
a(VElva
tp3046
a(VBrit
tp3047
a(VTella
tp3048
a(VVanna
tp3049
a(VMarie
tp3050
a(VSarette
tp3051
a(VJeannie
tp3052
a(VLola
tp3053
a(VHattie
tp3054
a(VBelle
tp3055
a(VShani
tp3056
a(VGenevra
tp3057
a(VMarry
tp3058
a(VJeniece
tp3059
a(VHaleigh
tp3060
a(VBernetta
tp3061
a(VSianna
tp3062
a(VXaviera
tp3063
a(VGlennis
tp3064
a(VAshley
tp3065
a(VValina
tp3066
a(VMiguela
tp3067
a(VAdrea
tp3068
a(VAdella
tp3069
a(VMady
tp3070
a(VCaro
tp3071
a(VBarbee
tp3072
a(VCyndi
tp3073
a(VDarsey
tp3074
a(VRikki
tp3075
a(VGeorgeanne
tp3076
a(VToni
tp3077
a(VTawnya
tp3078
a(VSamantha
tp3079
a(VSilvie
tp3080
a(VGena
tp3081
a(VDonelle
tp3082
a(VChrystel
tp3083
a(VBarbe
tp3084
a(VMarcia
tp3085
a(VDacia
tp3086
a(VEthelin
tp3087
a(VCory
tp3088
a(VCarita
tp3089
a(VJoscelin
tp3090
a(VIseabal
tp3091
a(VGracia
tp3092
a(VSheelah
tp3093
a(VPier
tp3094
a(VLorrayne
tp3095
a(VCarlita
tp3096
a(VAgna
tp3097
a(VJorie
tp3098
a(VCarrie
tp3099
a(VPeri
tp3100
a(VLamb
tp3101
a(VLorain
tp3102
a(VAnna-Diana
tp3103
a(VHelena
tp3104
a(VIvonne
tp3105
a(VNorrie
tp3106
a(VOlivia
tp3107
a(VDew
tp3108
a(VFriederike
tp3109
a(VDiandra
tp3110
a(VPeg
tp3111
a(VValeria
tp3112
a(VMargot
tp3113
a(VSidonnie
tp3114
a(VEddi
tp3115
a(VLela
tp3116
a(VCarolyn
tp3117
a(VAeriela
tp3118
a(VJoelie
tp3119
a(VCybel
tp3120
a(VValma
tp3121
a(VPammie
tp3122
a(VKirstie
tp3123
a(VLauri
tp3124
a(VGiacinta
tp3125
a(VAudy
tp3126
a(VKimmi
tp3127
a(VSybila
tp3128
a(VJanith
tp3129
a(VTimmi
tp3130
a(VBrietta
tp3131
a(VBernadine
tp3132
a(VPammi
tp3133
a(VAngelique
tp3134
a(VMargarita
tp3135
a(VJannel
tp3136
a(VKassandra
tp3137
a(VAmeline
tp3138
a(VDayna
tp3139
a(VSharona
tp3140
a(VCelestina
tp3141
a(VKarlotta
tp3142
a(VValerye
tp3143
a(VFarica
tp3144
a(VHyacinthie
tp3145
a(VJanean
tp3146
a(VRobin
tp3147
a(VAustina
tp3148
a(VLoella
tp3149
a(VBarbara-Anne
tp3150
a(VParwane
tp3151
a(VZitella
tp3152
a(VCorrina
tp3153
a(VKonstance
tp3154
a(VDeerdre
tp3155
a(VKelsey
tp3156
a(VMargit
tp3157
a(VMair
tp3158
a(VLianne
tp3159
a(VGriselda
tp3160
a(VGwyneth
tp3161
a(VKathleen
tp3162
a(VLauren
tp3163
a(VCassondra
tp3164
a(VSylvia
tp3165
a(VMoyra
tp3166
a(VKittie
tp3167
a(VDottie
tp3168
a(VLeela
tp3169
a(VDorrie
tp3170
a(VCher
tp3171
a(VBernadene
tp3172
a(VHulda
tp3173
a(VEva
tp3174
a(VJewell
tp3175
a(VWinny
tp3176
a(VLeesa
tp3177
a(VDelcina
tp3178
a(VBetta
tp3179
a(VVanny
tp3180
a(VSussi
tp3181
a(VArdelle
tp3182
a(VCorabella
tp3183
a(VTiana
tp3184
a(VJoya
tp3185
a(VBelinda
tp3186
a(VNetty
tp3187
a(VWilhelmine
tp3188
a(VAnatola
tp3189
a(VRegina
tp3190
a(VVerena
tp3191
a(VCharlean
tp3192
a(VJania
tp3193
a(VAmalie
tp3194
a(VRaquela
tp3195
a(VKarry
tp3196
a(VBreena
tp3197
a(VAnneliese
tp3198
a(VJewelle
tp3199
a(VSheilakathryn
tp3200
a(VVannie
tp3201
a(VKylie
tp3202
a(VGoldina
tp3203
a(VAina
tp3204
a(VChrysler
tp3205
a(VVita
tp3206
a(VGiovanna
tp3207
a(VStevena
tp3208
a(VNikki
tp3209
a(VGreer
tp3210
a(VGlynda
tp3211
a(VCherry
tp3212
a(VLaurice
tp3213
a(VKi
tp3214
a(VRodie
tp3215
a(VRoz
tp3216
a(VPatricia
tp3217
a(VZandra
tp3218
a(VPhelia
tp3219
a(VSiouxie
tp3220
a(VGuinna
tp3221
a(VAlameda
tp3222
a(VMyrilla
tp3223
a(VBidget
tp3224
a(VCarmina
tp3225
a(VHaily
tp3226
a(VKetty
tp3227
a(VBonita
tp3228
a(VTiffie
tp3229
a(VRici
tp3230
a(VClarine
tp3231
a(VLainey
tp3232
a(VSunshine
tp3233
a(VGray
tp3234
a(VHaley
tp3235
a(VAlys
tp3236
a(VCamila
tp3237
a(VMilly
tp3238
a(VTorrie
tp3239
a(VBevvy
tp3240
a(VEvangeline
tp3241
a(VMichaella
tp3242
a(VTrudey
tp3243
a(VFawna
tp3244
a(VLyndsie
tp3245
a(VPauli
tp3246
a(VDominique
tp3247
a(VLiora
tp3248
a(VEdythe
tp3249
a(VAnnie
tp3250
a(VTobie
tp3251
a(VEsther
tp3252
a(VDominica
tp3253
a(VAllie
tp3254
a(VIanthe
tp3255
a(VKizzee
tp3256
a(VInessa
tp3257
a(VBlanca
tp3258
a(VKati
tp3259
a(VDania
tp3260
a(VMelanie
tp3261
a(VLucy
tp3262
a(VIona
tp3263
a(VDevora
tp3264
a(VDita
tp3265
a(VGretel
tp3266
a(VKristina
tp3267
a(VTandi
tp3268
a(VRebekkah
tp3269
a(VElnore
tp3270
a(VChristabelle
tp3271
a(VArdith
tp3272
a(VWenonah
tp3273
a(VMeriel
tp3274
a(VKatrine
tp3275
a(VVeriee
tp3276
a(VSisile
tp3277
a(VLeila
tp3278
a(VFrannie
tp3279
a(VShirl
tp3280
a(VIoana
tp3281
a(VAnia
tp3282
a(VNathalie
tp3283
a(VMallory
tp3284
a(VFelice
tp3285
a(VZaneta
tp3286
a(VLyndsey
tp3287
a(VElsey
tp3288
a(VCammie
tp3289
a(VRetha
tp3290
a(VJobey
tp3291
a(VFae
tp3292
a(VCharmion
tp3293
a(VEvangelin
tp3294
a(VSerena
tp3295
a(VNola
tp3296
a(VJoyous
tp3297
a(VDinny
tp3298
a(VMadelaine
tp3299
a(VMargaux
tp3300
a(VRivkah
tp3301
a(VTana
tp3302
a(VViv
tp3303
a(VFey
tp3304
a(VSile
tp3305
a(VOrel
tp3306
a(VIolande
tp3307
a(VCaria
tp3308
a(VQuinta
tp3309
a(VJudi
tp3310
a(VLettie
tp3311
a(VNannie
tp3312
a(VFaina
tp3313
a(VFrank
tp3314
a(VBernie
tp3315
a(VMichele
tp3316
a(VAnthea
tp3317
a(VEtheline
tp3318
a(VSuzetta
tp3319
a(VMerci
tp3320
a(VOprah
tp3321
a(VUmeko
tp3322
a(VOlive
tp3323
a(VLindsey
tp3324
a(VBinni
tp3325
a(VBlanch
tp3326
a(VGilda
tp3327
a(VEvonne
tp3328
a(VNanine
tp3329
a(VTessie
tp3330
a(VRebecca
tp3331
a(VKessiah
tp3332
a(VChristen
tp3333
a(VTarra
tp3334
a(VStephenie
tp3335
a(VJulina
tp3336
a(VAlena
tp3337
a(VShirah
tp3338
a(VSydel
tp3339
a(VMichaeline
tp3340
a(VAviva
tp3341
a(VKatherine
tp3342
a(VHanni
tp3343
a(VVivyanne
tp3344
a(VErmentrude
tp3345
a(VPrue
tp3346
a(VMerry
tp3347
a(VMisty
tp3348
a(VMarthe
tp3349
a(VZarla
tp3350
a(VJosy
tp3351
a(VCorrinne
tp3352
a(VCaryn
tp3353
a(VRaven
tp3354
a(VAurora
tp3355
a(VJustin
tp3356
a(VAmaleta
tp3357
a(VVerile
tp3358
a(VJulee
tp3359
a(VDolora
tp3360
a(VAme
tp3361
a(VJoice
tp3362
a(VMorna
tp3363
a(VAila
tp3364
a(VJanelle
tp3365
a(VViola
tp3366
a(VOlva
tp3367
a(VTomiko
tp3368
a(VBernete
tp3369
a(VKelsi
tp3370
a(VAllene
tp3371
a(VDanya
tp3372
a(VMabel
tp3373
a(VGweneth
tp3374
a(VDenys
tp3375
a(VRenelle
tp3376
a(VMinni
tp3377
a(VRobinett
tp3378
a(VFilippa
tp3379
a(VMartelle
tp3380
a(VLatrina
tp3381
a(VMarianne
tp3382
a(VWindy
tp3383
a(VEdee
tp3384
a(VCam
tp3385
a(VLucita
tp3386
a(VSibelle
tp3387
a(VCaresa
tp3388
a(VTersina
tp3389
a(VKat
tp3390
a(VSella
tp3391
a(VSusanna
tp3392
a(VSarita
tp3393
a(VMarybeth
tp3394
a(VGina
tp3395
a(VLana
tp3396
a(VApril
tp3397
a(VShelby
tp3398
a(VBenedikta
tp3399
a(VJulietta
tp3400
a(VCassaundra
tp3401
a(VNissy
tp3402
a(VErnestine
tp3403
a(VCarolin
tp3404
a(VAdria
tp3405
a(VGert
tp3406
a(VPhilippe
tp3407
a(VKarly
tp3408
a(VJocelyn
tp3409
a(VGwendolin
tp3410
a(VJojo
tp3411
a(VAngelia
tp3412
a(VChristi
tp3413
a(VElly
tp3414
a(VCorette
tp3415
a(VLenette
tp3416
a(VDaffy
tp3417
a(VBee
tp3418
a(VGavrielle
tp3419
a(VJannelle
tp3420
a(VAriela
tp3421
a(VYevette
tp3422
a(VGwennie
tp3423
a(VPhillie
tp3424
a(VBrina
tp3425
a(VStesha
tp3426
a(VMay
tp3427
a(VMaribelle
tp3428
a(VLila
tp3429
a(VOdessa
tp3430
a(VWendie
tp3431
a(VCarrol
tp3432
a(VAlla
tp3433
a(VHarri
tp3434
a(VOdelinda
tp3435
a(VBrianne
tp3436
a(VKatrinka
tp3437
a(VRoseann
tp3438
a(VMonika
tp3439
a(VJuliane
tp3440
a(VTiffani
tp3441
a(VKaralee
tp3442
a(VSephira
tp3443
a(VDoti
tp3444
a(VCarolan
tp3445
a(VLeeanne
tp3446
a(VLurleen
tp3447
a(VJessalyn
tp3448
a(VCiel
tp3449
a(VJacklyn
tp3450
a(VJeraldine
tp3451
a(VAlbertina
tp3452
a(VRheta
tp3453
a(VRanee
tp3454
a(VDoll
tp3455
a(VMirabella
tp3456
a(VMilzie
tp3457
a(VLidia
tp3458
a(VJuana
tp3459
a(VMoll
tp3460
a(VLorrin
tp3461
a(VSuzan
tp3462
a(VArda
tp3463
a(VAntonetta
tp3464
a(VGodiva
tp3465
a(VDorisa
tp3466
a(VNatala
tp3467
a(VJoann
tp3468
a(VNelie
tp3469
a(VBeau
tp3470
a(VArdyth
tp3471
a(VKatey
tp3472
a(VTally
tp3473
a(VJayne
tp3474
a(VEvy
tp3475
a(VDarlene
tp3476
a(VErma
tp3477
a(VElayne
tp3478
a(VDebby
tp3479
a(VCynthy
tp3480
a(VStormy
tp3481
a(VManon
tp3482
a(VAlvina
tp3483
a(VFranky
tp3484
a(VCecelia
tp3485
a(VAllyson
tp3486
a(VNeala
tp3487
a(VKassia
tp3488
a(VLeonanie
tp3489
a(VKoren
tp3490
a(VNichole
tp3491
a(VCordelie
tp3492
a(VLarine
tp3493
a(VLaina
tp3494
a(VGusti
tp3495
a(VMaurita
tp3496
a(VIvette
tp3497
a(VRomona
tp3498
a(VChristabel
tp3499
a(VEustacia
tp3500
a(VOralee
tp3501
a(VBrandie
tp3502
a(VRozella
tp3503
a(VCorly
tp3504
a(VMarigold
tp3505
a(VMinda
tp3506
a(VKellyann
tp3507
a(VEugenie
tp3508
a(VKinna
tp3509
a(VHedvig
tp3510
a(VArdene
tp3511
a(VAndi
tp3512
a(VSacha
tp3513
a(VAmanda
tp3514
a(VCassey
tp3515
a(VDory
tp3516
a(VAlpa
tp3517
a(VDennie
tp3518
a(VClarey
tp3519
a(VJemima
tp3520
a(VMargi
tp3521
a(VHarmonia
tp3522
a(VChrissa
tp3523
a(VKerrin
tp3524
a(VDelores
tp3525
a(VHally
tp3526
a(VShayna
tp3527
a(VBobbie
tp3528
a(VGrier
tp3529
a(VVivian
tp3530
a(VFrankie
tp3531
a(VDody
tp3532
a(VMicheline
tp3533
a(VCasi
tp3534
a(VKit
tp3535
a(VJaneen
tp3536
a(VHilary
tp3537
a(VKattie
tp3538
a(VAlta
tp3539
a(VAlexina
tp3540
a(VAdele
tp3541
a(VJacquie
tp3542
a(VNata
tp3543
a(VMarcy
tp3544
a(VJillana
tp3545
a(VNetti
tp3546
a(VMargaretta
tp3547
a(VTrace
tp3548
a(VDionis
tp3549
a(VGuglielma
tp3550
a(VDeva
tp3551
a(VEdeline
tp3552
a(VFifi
tp3553
a(VAyn
tp3554
a(VSylvie
tp3555
a(VJodie
tp3556
a(VDelcine
tp3557
a(VZoe
tp3558
a(VNoami
tp3559
a(VCorinne
tp3560
a(VRochelle
tp3561
a(VIssie
tp3562
a(VVikki
tp3563
a(VAloise
tp3564
a(VNoelani
tp3565
a(VJohanna
tp3566
a(VDoroteya
tp3567
a(VCelene
tp3568
a(VGlynis
tp3569
a(VModesty
tp3570
a(VElisa
tp3571
a(VAriel
tp3572
a(VHalimeda
tp3573
a(VTerrye
tp3574
a(VLaura
tp3575
a(VDannye
tp3576
a(VVida
tp3577
a(VLinnell
tp3578
a(VCarlen
tp3579
a(VDiane
tp3580
a(VEleni
tp3581
a(VMaren
tp3582
a(VBarb
tp3583
a(VCele
tp3584
a(VPepi
tp3585
a(VAthene
tp3586
a(VCharlotta
tp3587
a(VQueenie
tp3588
a(VElwina
tp3589
a(VKelsy
tp3590
a(VMarcela
tp3591
a(VPauletta
tp3592
a(VBellanca
tp3593
a(VMoira
tp3594
a(VTiphany
tp3595
a(VBeret
tp3596
a(VLula
tp3597
a(VCorri
tp3598
a(VIlyse
tp3599
a(VConsuela
tp3600
a(VSadie
tp3601
a(VYetty
tp3602
a(VMarley
tp3603
a(VBridgett
tp3604
a(VAmie
tp3605
a(VMadona
tp3606
a(VNicole
tp3607
a(VKipp
tp3608
a(VCandis
tp3609
a(VGayleen
tp3610
a(VMarillin
tp3611
a(VLaureen
tp3612
a(VRorie
tp3613
a(VDanella
tp3614
a(VMelodie
tp3615
a(VElfrieda
tp3616
a(VKarola
tp3617
a(VDulci
tp3618
a(VEmilia
tp3619
a(VAbigale
tp3620
a(VDebra
tp3621
a(VJoni
tp3622
a(VDorris
tp3623
a(VCrystie
tp3624
a(VElita
tp3625
a(VRosetta
tp3626
a(VDyane
tp3627
a(VKarin
tp3628
a(VAlayne
tp3629
a(VAvie
tp3630
a(VDawna
tp3631
a(VLucille
tp3632
a(VKristen
tp3633
a(VCarly
tp3634
a(VMadlen
tp3635
a(VBlancha
tp3636
a(VStella
tp3637
a(VJosephina
tp3638
a(VIvett
tp3639
a(VLeticia
tp3640
a(VCrysta
tp3641
a(VNesta
tp3642
a(VEngracia
tp3643
a(VBrana
tp3644
a(VHedy
tp3645
a(VDoreen
tp3646
a(VSusana
tp3647
a(VCorrena
tp3648
a(VKellina
tp3649
a(VConstantia
tp3650
a(VAtlante
tp3651
a(VRobbyn
tp3652
a(VDyana
tp3653
a(VKaye
tp3654
a(VEssa
tp3655
a(VEstella
tp3656
a(VRandie
tp3657
a(VJillane
tp3658
a(VLynsey
tp3659
a(VSaba
tp3660
a(VMerilee
tp3661
a(VGeorgiana
tp3662
a(VImelda
tp3663
a(VGuillemette
tp3664
a(VLotty
tp3665
a(VJerrilee
tp3666
a(VCorine
tp3667
a(VArabele
tp3668
a(VGisela
tp3669
a(VCorliss
tp3670
a(VKaia
tp3671
a(VKirstyn
tp3672
a(VKandace
tp3673
a(VCatriona
tp3674
a(VArabella
tp3675
a(VDonnie
tp3676
a(VGwynne
tp3677
a(VEthelind
tp3678
a(VEmanuela
tp3679
a(VBlakelee
tp3680
a(VJanka
tp3681
a(VVonni
tp3682
a(VBellamy
tp3683
a(VEmelyne
tp3684
a(VDani
tp3685
a(VLelia
tp3686
a(VAvis
tp3687
a(VCarri
tp3688
a(VCharin
tp3689
a(VScarlet
tp3690
a(VDedie
tp3691
a(VBeverie
tp3692
a(VSophey
tp3693
a(VIngeberg
tp3694
a(VLeshia
tp3695
a(VKimberley
tp3696
a(VDona
tp3697
a(VLura
tp3698
a(VKimberlee
tp3699
a(VKakalina
tp3700
a(VAnnette
tp3701
a(VLaryssa
tp3702
a(VNinette
tp3703
a(VBianka
tp3704
a(VDalia
tp3705
a(VHilarie
tp3706
a(VHonor
tp3707
a(VTerese
tp3708
a(VConney
tp3709
a(VEveleen
tp3710
a(VElora
tp3711
a(VTommi
tp3712
a(VGloria
tp3713
a(VNollie
tp3714
a(VTricia
tp3715
a(VMarissa
tp3716
a(VAlisha
tp3717
a(VMelicent
tp3718
a(VMarya
tp3719
a(VNari
tp3720
a(VStacy
tp3721
a(VPooh
tp3722
a(VFelipa
tp3723
a(VGladis
tp3724
a(VCharmain
tp3725
a(VDaffie
tp3726
a(VBiddy
tp3727
a(VBrunhilda
tp3728
a(VSherie
tp3729
a(VBettie
tp3730
a(VViolante
tp3731
a(VCathe
tp3732
a(VHenrie
tp3733
a(VVivia
tp3734
a(VBessy
tp3735
a(VKarlen
tp3736
a(VKaterina
tp3737
a(VJobina
tp3738
a(VFara
tp3739
a(VJoycelin
tp3740
a(VSherri
tp3741
a(VPrunella
tp3742
a(VRahel
tp3743
a(VStaci
tp3744
a(VMaure
tp3745
a(VNani
tp3746
a(VStafani
tp3747
a(VPennie
tp3748
a(VKarlee
tp3749
a(VAveril
tp3750
a(VMildrid
tp3751
a(VDelora
tp3752
a(VAnita
tp3753
a(VMuffin
tp3754
a(VCharis
tp3755
a(VNoelyn
tp3756
a(VBethany
tp3757
a(VCarina
tp3758
a(VCathyleen
tp3759
a(VNiki
tp3760
a(VAmandie
tp3761
a(VPerri
tp3762
a(VDonetta
tp3763
a(VCybil
tp3764
a(VHilda
tp3765
a(VDeidre
tp3766
a(VBasia
tp3767
a(VMaye
tp3768
a(VMirabel
tp3769
a(VBritte
tp3770
a(VKatuscha
tp3771
a(VMarylin
tp3772
a(VElka
tp3773
a(VInge
tp3774
a(VWallie
tp3775
a(VNance
tp3776
a(VCorrey
tp3777
a(VBlanche
tp3778
a(VShaylynn
tp3779
a(VFionna
tp3780
a(VEvita
tp3781
a(VJeniffer
tp3782
a(VRakel
tp3783
a(VTansy
tp3784
a(VSherrie
tp3785
a(VRegan
tp3786
a(VLoleta
tp3787
a(VCorie
tp3788
a(VNettie
tp3789
a(VPerle
tp3790
a(VMandi
tp3791
a(VKathlene
tp3792
a(VFilia
tp3793
a(VMax
tp3794
a(VCindee
tp3795
a(VCelestyna
tp3796
a(VEsme
tp3797
a(VSheela
tp3798
a(VNadya
tp3799
a(VLeanor
tp3800
a(VHertha
tp3801
a(VRoxanna
tp3802
a(VTimmy
tp3803
a(VNanice
tp3804
a(VBessie
tp3805
a(VBethena
tp3806
a(VKay
tp3807
a(VGlori
tp3808
a(VHenryetta
tp3809
a(VRodina
tp3810
a(VSelie
tp3811
a(VLarissa
tp3812
a(VMia
tp3813
a(VCacilia
tp3814
a(VSelestina
tp3815
a(VRay
tp3816
a(VPaula-Grace
tp3817
a(VShanie
tp3818
a(VRosabella
tp3819
a(VCharita
tp3820
a(VDolley
tp3821
a(VRene
tp3822
a(VNikkie
tp3823
a(VKaleena
tp3824
a(VHolly
tp3825
a(VZsazsa
tp3826
a(VGerti
tp3827
a(VTrix
tp3828
a(VLeta
tp3829
a(VAnnelise
tp3830
a(VLotte
tp3831
a(VAnette
tp3832
a(VEllette
tp3833
a(VRozalie
tp3834
a(VShane
tp3835
a(VBobine
tp3836
a(VKimmie
tp3837
a(VChad
tp3838
a(VCharissa
tp3839
a(VFloris
tp3840
a(VYvonne
tp3841
a(VJeanelle
tp3842
a(VBridget
tp3843
a(VBlythe
tp3844
a(VEffie
tp3845
a(VAimee
tp3846
a(VHynda
tp3847
a(VGretchen
tp3848
a(VDawn
tp3849
a(VTeddie
tp3850
a(VFianna
tp3851
a(VMerrili
tp3852
a(VBrandais
tp3853
a(VLou
tp3854
a(VEnrika
tp3855
a(VJoceline
tp3856
a(VDelilah
tp3857
a(VOthilie
tp3858
a(VJoAnn
tp3859
a(VSophia
tp3860
a(VBlinny
tp3861
a(VXylia
tp3862
a(VBrea
tp3863
a(VRoxine
tp3864
a(VRina
tp3865
a(VNatasha
tp3866
a(VAlfie
tp3867
a(VLanny
tp3868
a(VRozie
tp3869
a(VMufi
tp3870
a(VDebbra
tp3871
a(VLilla
tp3872
a(VDeborah
tp3873
a(VCarin
tp3874
a(VTonya
tp3875
a(VIlse
tp3876
a(VKimberlyn
tp3877
a(VBrigitte
tp3878
a(VTracee
tp3879
a(VEm
tp3880
a(VRosalinde
tp3881
a(VMissy
tp3882
a(VRisa
tp3883
a(VWillabella
tp3884
a(VOlympia
tp3885
a(VHildagarde
tp3886
a(VLetisha
tp3887
a(VNatalee
tp3888
a(VJanina
tp3889
a(VRosie
tp3890
a(VHenrieta
tp3891
a(VYehudit
tp3892
a(VSukey
tp3893
a(VCelinda
tp3894
a(VEden
tp3895
a(VGaynor
tp3896
a(VJessi
tp3897
a(VAnabelle
tp3898
a(VStacie
tp3899
a(VAmabel
tp3900
a(VHarley
tp3901
a(VJoella
tp3902
a(VDian
tp3903
a(VCasandra
tp3904
a(VRosabel
tp3905
a(VAloysia
tp3906
a(VTim
tp3907
a(VKelila
tp3908
a(VStefania
tp3909
a(VRosemary
tp3910
a(VPatrica
tp3911
a(VJanette
tp3912
a(VLibbie
tp3913
a(VClaretta
tp3914
a(VEmlynne
tp3915
a(VRenate
tp3916
a(VPauly
tp3917
a(VDarell
tp3918
a(VMyranda
tp3919
a(VRalina
tp3920
a(VJaleh
tp3921
a(VWynny
tp3922
a(VKaty
tp3923
a(VJoan
tp3924
a(VEthel
tp3925
a(VJacquenette
tp3926
a(VTove
tp3927
a(VBarbey
tp3928
a(VCleopatra
tp3929
a(VMechelle
tp3930
a(VJordana
tp3931
a(VMarika
tp3932
a(VJolyn
tp3933
a(VOdilia
tp3934
a(VMaiga
tp3935
a(VReba
tp3936
a(VMallorie
tp3937
a(VCammi
tp3938
a(VFranciska
tp3939
a(VCristin
tp3940
a(VZonnya
tp3941
a(VRubia
tp3942
a(VOdele
tp3943
a(VDonni
tp3944
a(VNerty
tp3945
a(VKatlin
tp3946
a(VAnna
tp3947
a(VJeralee
tp3948
a(VGeraldina
tp3949
a(VGermaine
tp3950
a(VKikelia
tp3951
a(VWinne
tp3952
a(VVivien
tp3953
a(VTallie
tp3954
a(VEdiva
tp3955
a(VPetronilla
tp3956
a(VChristiane
tp3957
a(VFerdinanda
tp3958
a(VMaris
tp3959
a(VRosyzie
tp3960
a(VDagmar
tp3961
a(VKoo
tp3962
a(VVictoria
tp3963
a(VFleur
tp3964
a(VCinnamon
tp3965
a(VLesly
tp3966
a(VNicoline
tp3967
a(VSib
tp3968
a(VVonnie
tp3969
a(VKatharina
tp3970
a(VOpaline
tp3971
a(VBritni
tp3972
a(VShelia
tp3973
a(VMarlyn
tp3974
a(VSusan
tp3975
a(VJeanine
tp3976
a(VEleonore
tp3977
a(VCorissa
tp3978
a(VRosalind
tp3979
a(VWinonah
tp3980
a(VWynn
tp3981
a(VTeressa
tp3982
a(VDoloritas
tp3983
a(VSibilla
tp3984
a(VHarrietta
tp3985
a(VMildred
tp3986
a(VMireille
tp3987
a(VCollie
tp3988
a(VMarjory
tp3989
a(VAlmira
tp3990
a(VAnthia
tp3991
a(VBinny
tp3992
a(VAurore
tp3993
a(VAnnalise
tp3994
a(VJanie
tp3995
a(VKoressa
tp3996
a(VHephzibah
tp3997
a(VMadelina
tp3998
a(VErena
tp3999
a(VMayda
tp4000
a(VGilligan
tp4001
a(VJena
tp4002
a(VCelie
tp4003
a(VMyra
tp4004
a(VDaune
tp4005
a(VBambi
tp4006
a(VRobina
tp4007
a(VRosemarie
tp4008
a(VVelma
tp4009
a(VNovelia
tp4010
a(VNorah
tp4011
a(VGen
tp4012
a(VYolanthe
tp4013
a(VKendre
tp4014
a(VGalina
tp4015
a(VAmi
tp4016
a(VAnjanette
tp4017
a(VJoy
tp4018
a(VTeresina
tp4019
a(VFlorida
tp4020
a(VTrixie
tp4021
a(VKoralle
tp4022
a(VQueada
tp4023
a(VDenyse
tp4024
a(VJeri
tp4025
a(VShandee
tp4026
a(VEmiline
tp4027
a(VWanda
tp4028
a(VStacey
tp4029
a(VKial
tp4030
a(VRozelle
tp4031
a(VLysandra
tp4032
a(VDella
tp4033
a(VEvey
tp4034
a(VPaula
tp4035
a(VGenni
tp4036
a(VLuce
tp4037
a(VScotty
tp4038
a(VTamma
tp4039
a(VAmalee
tp4040
a(VTamiko
tp4041
a(VHelen-Elizabeth
tp4042
a(VBabette
tp4043
a(VReeba
tp4044
a(VJourdan
tp4045
a(VJosselyn
tp4046
a(VLicha
tp4047
a(VLottie
tp4048
a(VBilly
tp4049
a(VJosefina
tp4050
a(VColene
tp4051
a(VBert
tp4052
a(VMarget
tp4053
a(VArdine
tp4054
a(VAnnabela
tp4055
a(VFran
tp4056
a(VBrenn
tp4057
a(VSilvia
tp4058
a(VGabbie
tp4059
a(VTimmie
tp4060
a(VFionnula
tp4061
a(VTarrah
tp4062
a(VEmmalynne
tp4063
a(VJade
tp4064
a(VCherin
tp4065
a(VKylila
tp4066
a(VLorraine
tp4067
a(VIsa
tp4068
a(VLaural
tp4069
a(VKathrine
tp4070
a(VSaundra
tp4071
a(VArabel
tp4072
a(VShanta
tp4073
a(VMureil
tp4074
a(VDalenna
tp4075
a(VTybi
tp4076
a(VNolana
tp4077
a(VFlorri
tp4078
a(VAida
tp4079
a(VLenora
tp4080
a(VAmmamaria
tp4081
a(VCoraline
tp4082
a(VIssy
tp4083
a(VCarry
tp4084
a(VErna
tp4085
a(VLoralee
tp4086
a(VLaurie
tp4087
a(VThelma
tp4088
a(VKarmen
tp4089
a(VBrenda
tp4090
a(VWendi
tp4091
a(VSuellen
tp4092
a(VKelley
tp4093
a(VIleana
tp4094
a(VDoralynn
tp4095
a(VDaffi
tp4096
a(VDyanne
tp4097
a(VMelinda
tp4098
a(VJaquelyn
tp4099
a(VCatharine
tp4100
a(VJeanette
tp4101
a(VMariana
tp4102
a(VDorine
tp4103
a(VLucine
tp4104
a(VDebbie
tp4105
a(VDorothee
tp4106
a(VUrsuline
tp4107
a(VKarisa
tp4108
a(VTedra
tp4109
a(VJaine
tp4110
a(VZenia
tp4111
a(VWynne
tp4112
a(VGabey
tp4113
a(VSolange
tp4114
a(VGwyn
tp4115
a(VRoshelle
tp4116
a(VKitti
tp4117
a(VNixie
tp4118
a(VAgnes
tp4119
a(VArianne
tp4120
a(VJoli
tp4121
a(VLeilah
tp4122
a(VValentia
tp4123
a(VLyndy
tp4124
a(VSande
tp4125
a(VCatie
tp4126
a(VAllys
tp4127
a(VJacquetta
tp4128
a(VFrancesca
tp4129
a(VJacquenetta
tp4130
a(VArdenia
tp4131
a(VCelisse
tp4132
a(VSarina
tp4133
a(VKaila
tp4134
a(VCandace
tp4135
a(VSula
tp4136
a(VMaurine
tp4137
a(VBette-Ann
tp4138
a(VJessica
tp4139
a(VAmy
tp4140
a(VLinet
tp4141
a(VMelina
tp4142
a(VTerrianne
tp4143
a(VJessalin
tp4144
a(VBlaire
tp4145
a(VWandis
tp4146
a(VLuanna
tp4147
a(VBelva
tp4148
a(VAudrie
tp4149
a(VSallyann
tp4150
a(VIris
tp4151
a(VMyrtle
tp4152
a(VKrissie
tp4153
a(VFifine
tp4154
a(VPamella
tp4155
a(VLacey
tp4156
a(VBeryle
tp4157
a(VLisette
tp4158
a(VBeryl
tp4159
a(VCalypso
tp4160
a(VKatleen
tp4161
a(VHarmony
tp4162
a(VJennica
tp4163
a(VHalie
tp4164
a(VJenna
tp4165
a(VJennee
tp4166
a(VZorana
tp4167
a(VVerna
tp4168
a(VKacie
tp4169
a(VHadria
tp4170
a(VPaolina
tp4171
a(VMirella
tp4172
a(VMelisenda
tp4173
a(VChantalle
tp4174
a(VGabrielle
tp4175
a(VJeanne
tp4176
a(VGui
tp4177
a(VLusa
tp4178
a(VSelina
tp4179
a(VCecile
tp4180
a(VBertie
tp4181
a(VGussi
tp4182
a(VWilletta
tp4183
a(VLotti
tp4184
a(VBreanne
tp4185
a(VAndrei
tp4186
a(VAdey
tp4187
a(VBarby
tp4188
a(VMignon
tp4189
a(VCynthea
tp4190
a(VVeradis
tp4191
a(VKlarika
tp4192
a(VJordanna
tp4193
a(VMira
tp4194
a(VMaryanne
tp4195
a(VTyne
tp4196
a(VCorilla
tp4197
a(VMelisandra
tp4198
a(VShirlee
tp4199
a(VScarlett
tp4200
a(VMargy
tp4201
a(VDevinne
tp4202
a(VPearle
tp4203
a(VClarette
tp4204
a(VLeanna
tp4205
a(VArlinda
tp4206
a(VJosefa
tp4207
a(VMelesa
tp4208
a(VStephie
tp4209
a(VJessamyn
tp4210
a(VFancy
tp4211
a(VDulcia
tp4212
a(VConstantine
tp4213
a(VShari
tp4214
a(VDesdemona
tp4215
a(VMilli
tp4216
a(VLezlie
tp4217
a(VEula
tp4218
a(VLolita
tp4219
a(VTalia
tp4220
a(VAstra
tp4221
a(VMerilyn
tp4222
a(VHenriette
tp4223
a(VModestine
tp4224
a(VNike
tp4225
a(VMarci
tp4226
a(VDorette
tp4227
a(VConsolata
tp4228
a(VIolanthe
tp4229
a(VRosanna
tp4230
a(VTerri
tp4231
a(VHollyanne
tp4232
a(VElisabet
tp4233
a(VArdelis
tp4234
a(VLonna
tp4235
a(VMartynne
tp4236
a(VLoni
tp4237
a(VEveline
tp4238
a(VHarlene
tp4239
a(VMercy
tp4240
a(VIlise
tp4241
a(VMerrie
tp4242
a(VRevkah
tp4243
a(VRonnie
tp4244
a(VMarybelle
tp4245
a(VUta
tp4246
a(VHeida
tp4247
a(VCayla
tp4248
a(VRiannon
tp4249
a(VHetti
tp4250
a(VKarylin
tp4251
a(VDyan
tp4252
a(VJustine
tp4253
a(VPearl
tp4254
a(VJasmine
tp4255
a(VMartita
tp4256
a(VCorny
tp4257
a(VShir
tp4258
a(VBecca
tp4259
a(VDrew
tp4260
a(VDahlia
tp4261
a(VAnastasia
tp4262
a(VFidelity
tp4263
a(VRaye
tp4264
a(VKrysta
tp4265
a(VEvelina
tp4266
a(VAggi
tp4267
a(VIsabella
tp4268
a(VOtha
tp4269
a(VReina
tp4270
a(VAeriell
tp4271
a(VIsadore
tp4272
a(VKrystle
tp4273
a(VBirgit
tp4274
a(VMariele
tp4275
a(VSabina
tp4276
a(VKayla
tp4277
a(VSallee
tp4278
a(VAnne-Corinne
tp4279
a(VAdaline
tp4280
a(VCinda
tp4281
a(VSher
tp4282
a(VRoseline
tp4283
a(VValerie
tp4284
a(VDemetra
tp4285
a(VStephani
tp4286
a(VHermina
tp4287
a(VKarilynn
tp4288
a(VBritaney
tp4289
a(VMariette
tp4290
a(VDasha
tp4291
a(VAinslee
tp4292
a(VWinnifred
tp4293
a(VTheda
tp4294
a(VFortune
tp4295
a(VBonni
tp4296
a(VCorry
tp4297
a(VRobinia
tp4298
a(VTomi
tp4299
a(VOctavia
tp4300
a(VOrella
tp4301
a(VAlyse
tp4302
a(VMimi
tp4303
a(VDanell
tp4304
a(VDanielle
tp4305
a(VDorey
tp4306
a(VCassandra
tp4307
a(VAurelia
tp4308
a(VRivi
tp4309
a(VBrigitta
tp4310
a(VOdetta
tp4311
a(VKaroline
tp4312
a(VSherill
tp4313
a(VGabriel
tp4314
a(VMavra
tp4315
a(VPippy
tp4316
a(VNessy
tp4317
a(VDore
tp4318
a(VTori
tp4319
a(VMerna
tp4320
a(VKelly
tp4321
a(VKarrah
tp4322
a(VSharlene
tp4323
a(VSosanna
tp4324
a(VLorettalorna
tp4325
a(VJosi
tp4326
a(VAmity
tp4327
a(VDebor
tp4328
a(VShoshanna
tp4329
a(VNicky
tp4330
a(VJenn
tp4331
a(VElbertina
tp4332
a(VFlorance
tp4333
a(VMiquela
tp4334
a(VMichel
tp4335
a(VMeris
tp4336
a(VLory
tp4337
a(VAubry
tp4338
a(VBirdie
tp4339
a(VGerri
tp4340
a(VTasia
tp4341
a(VCandida
tp4342
a(VLucinda
tp4343
a(VDorella
tp4344
a(VElspeth
tp4345
a(VJacquelin
tp4346
a(VMaddy
tp4347
a(VLian
tp4348
a(VAmandi
tp4349
a(VEvangelia
tp4350
a(VRowe
tp4351
a(VGill
tp4352
a(VCelina
tp4353
a(VLorilee
tp4354
a(VEleanore
tp4355
a(VBrook
tp4356
a(VDosi
tp4357
a(VGwenni
tp4358
a(VArlana
tp4359
a(VDolores
tp4360
a(VKathy
tp4361
a(VEugine
tp4362
a(VCaterina
tp4363
a(VViviene
tp4364
a(VBarry
tp4365
a(VTiena
tp4366
a(VRosaline
tp4367
a(VRasla
tp4368
a(VEdie
tp4369
a(VAriadne
tp4370
a(VVerla
tp4371
a(VCarola
tp4372
a(VZorine
tp4373
a(VGertie
tp4374
a(VDatha
tp4375
a(VCecil
tp4376
a(VDiana
tp4377
a(VVonny
tp4378
a(VFrancyne
tp4379
a(VMaisie
tp4380
a(VCathie
tp4381
a(VPhyllys
tp4382
a(VJan
tp4383
a(VMersey
tp4384
a(VAbbe
tp4385
a(VSheelagh
tp4386
a(VSonia
tp4387
a(VKesley
tp4388
a(VSaudra
tp4389
a(VLynde
tp4390
a(VMaud
tp4391
a(VVan
tp4392
a(VThia
tp4393
a(VGilbertina
tp4394
a(VAdelaide
tp4395
a(VAnnabel
tp4396
a(VAmelie
tp4397
a(VMalena
tp4398
a(VKellsie
tp4399
a(VJonell
tp4400
a(VEliza
tp4401
a(VKori
tp4402
a(VMarin
tp4403
a(VTerri-Jo
tp4404
a(VJoanne
tp4405
a(VFlory
tp4406
a(VBeverly
tp4407
a(VMaressa
tp4408
a(VAbigail
tp4409
a(VUrsa
tp4410
a(VGratia
tp4411
a(VTommy
tp4412
a(VTiffanie
tp4413
a(VClarie
tp4414
a(VEryn
tp4415
a(VSinead
tp4416
a(VGoldia
tp4417
a(VRebeka
tp4418
a(VOona
tp4419
a(VBarbara
tp4420
a(VClemence
tp4421
a(VYettie
tp4422
a(VKeeley
tp4423
a(VAnnmarie
tp4424
a(VLanette
tp4425
a(VKaari
tp4426
a(VJayme
tp4427
a(VFern
tp4428
a(VBrett
tp4429
a(VFlorentia
tp4430
a(VAlissa
tp4431
a(VLaney
tp4432
a(VDarb
tp4433
a(VGiorgia
tp4434
a(VJolie
tp4435
a(VAggy
tp4436
a(VUrsala
tp4437
a(VCodie
tp4438
a(VLuise
tp4439
a(VTatiania
tp4440
a(VDehlia
tp4441
a(VGredel
tp4442
a(VEileen
tp4443
a(VPoppy
tp4444
a(VDela
tp4445
a(VJackquelin
tp4446
a(VAngil
tp4447
a(VVelvet
tp4448
a(VDeanna
tp4449
a(VCybill
tp4450
a(VLeandra
tp4451
a(VPrisca
tp4452
a(VHolly-Anne
tp4453
a(VFania
tp4454
a(VAnastasie
tp4455
a(VMina
tp4456
a(VGaylene
tp4457
a(VCariotta
tp4458
a(VAgata
tp4459
a(VIbbie
tp4460
a(VFabrianne
tp4461
a(VRosmunda
tp4462
a(VPansy
tp4463
a(VAlina
tp4464
a(VErtha
tp4465
a(VBrigit
tp4466
a(VTwila
tp4467
a(VBenedetta
tp4468
a(VKassey
tp4469
a(VCosetta
tp4470
a(VLena
tp4471
a(VPhyllis
tp4472
a(VLenka
tp4473
a(VPaule
tp4474
a(VFeliza
tp4475
a(VCristina
tp4476
a(VGianina
tp4477
a(VNonie
tp4478
a(VTara
tp4479
a(VGrethel
tp4480
a(VJaclin
tp4481
a(VMandy
tp4482
a(VAstrix
tp4483
a(VRahal
tp4484
a(VMareah
tp4485
a(VLilah
tp4486
a(VLinda
tp4487
a(VDionne
tp4488
a(VAntoinette
tp4489
a(VTrisha
tp4490
a(VTatiana
tp4491
a(VMicaela
tp4492
a(VCleva
tp4493
a(VNicholle
tp4494
a(VPetronella
tp4495
a(VNonna
tp4496
a(VCandi
tp4497
a(VKai
tp4498
a(VLissi
tp4499
a(VFreddy
tp4500
a(VTamarra
tp4501
a(VMaribeth
tp4502
a(VDeni
tp4503
a(VJaimie
tp4504
a(VFina
tp4505
a(VEvanne
tp4506
a(VAnjela
tp4507
a(VKaitlynn
tp4508
a(VRicca
tp4509
a(VNeda
tp4510
a(VEllen
tp4511
a(VMerrily
tp4512
a(VCrissie
tp4513
a(VRafaelita
tp4514
a(VKameko
tp4515
a(VShel
tp4516
a(VHolli
tp4517
a(VGerty
tp4518
a(VDenise
tp4519
a(VElonore
tp4520
a(VIngaberg
tp4521
a(VBella
tp4522
a(VZaria
tp4523
a(VStace
tp4524
a(VSadella
tp4525
a(VTracey
tp4526
a(VJacquelynn
tp4527
a(VElinore
tp4528
a(VNeile
tp4529
a(VAnetta
tp4530
a(VQuerida
tp4531
a(VJoAnne
tp4532
a(VLonnie
tp4533
a(VMariann
tp4534
a(VCorabelle
tp4535
a(VDenni
tp4536
a(VEtta
tp4537
a(VEadie
tp4538
a(VNerissa
tp4539
a(VRachelle
tp4540
a(VKrissy
tp4541
a(VBarbie
tp4542
a(VKristan
tp4543
a(VNariko
tp4544
a(VMathilde
tp4545
a(VDonella
tp4546
a(VLyndsay
tp4547
a(VCamel
tp4548
a(VTedi
tp4549
a(VShelley
tp4550
a(VAnabella
tp4551
a(VMinerva
tp4552
a(VBobbette
tp4553
a(VBlinni
tp4554
a(VIna
tp4555
a(VMellisa
tp4556
a(VLeanora
tp4557
a(VGwendolyn
tp4558
a(VHildagard
tp4559
a(VMagdalene
tp4560
a(VJuliet
tp4561
a(VLanni
tp4562
a(VVickie
tp4563
a(VIzabel
tp4564
a(VMitzi
tp4565
a(VHillary
tp4566
a(VShoshana
tp4567
a(VSallie
tp4568
a(VKora
tp4569
a(VCassy
tp4570
a(VFredelia
tp4571
a(VCat
tp4572
a(VGabriellia
tp4573
a(VShirleen
tp4574
a(VGuenna
tp4575
a(VKatusha
tp4576
a(VMaribel
tp4577
a(VElane
tp4578
a(VLynnell
tp4579
a(VAudrye
tp4580
a(VTabina
tp4581
a(VLinea
tp4582
a(VKali
tp4583
a(VMarnia
tp4584
a(VTeryl
tp4585
a(VGeorgianne
tp4586
a(VMoreen
tp4587
a(VMiran
tp4588
a(VChristin
tp4589
a(VBertina
tp4590
a(VElmira
tp4591
a(VJorey
tp4592
a(VLyssa
tp4593
a(VEilis
tp4594
a(VMadelin
tp4595
a(VElsy
tp4596
a(VNeely
tp4597
a(VDeeanne
tp4598
a(VBelia
tp4599
a(VMellie
tp4600
a(VArlena
tp4601
a(VBridgette
tp4602
a(VDalila
tp4603
a(VReena
tp4604
a(VNinon
tp4605
a(VAngelina
tp4606
a(VMinette
tp4607
a(VTrudi
tp4608
a(VBernadina
tp4609
a(VCristabel
tp4610
a(VMyrtie
tp4611
a(VJanot
tp4612
a(VMelisent
tp4613
a(VStormi
tp4614
a(VAndria
tp4615
a(VAlis
tp4616
a(VAmelina
tp4617
a(VFidela
tp4618
a(VCarolee
tp4619
a(VDynah
tp4620
a(VCari
tp4621
a(VClarissa
tp4622
a(VBettine
tp4623
a(VAdelice
tp4624
a(VMel
tp4625
a(VRobbin
tp4626
a(VLindsay
tp4627
a(VCindie
tp4628
a(VNina
tp4629
a(VRhodie
tp4630
a(VRaina
tp4631
a(VJoannes
tp4632
a(VAustine
tp4633
a(VDanit
tp4634
a(VAllianora
tp4635
a(VLorilyn
tp4636
a(VMarline
tp4637
a(VCamilla
tp4638
a(VMelloney
tp4639
a(VPetunia
tp4640
a(VPavia
tp4641
a(VCristal
tp4642
a(VJenica
tp4643
a(VCherish
tp4644
a(VCrista
tp4645
a(VRandee
tp4646
a(VClaude
tp4647
a(VPhylis
tp4648
a(VEthelda
tp4649
a(VCammy
tp4650
a(VAnnissa
tp4651
a(VGypsy
tp4652
a(VNan
tp4653
a(VAngeline
tp4654
a(VDonny
tp4655
a(VNatka
tp4656
a(VDiahann
tp4657
a(VColette
tp4658
a(VSorcha
tp4659
a(VAndra
tp4660
a(VGenny
tp4661
a(VKim
tp4662
a(VBilli
tp4663
a(VSandie
tp4664
a(VBlake
tp4665
a(VGreta
tp4666
a(VCarlie
tp4667
a(VVi
tp4668
a(VPat
tp4669
a(VJoye
tp4670
a(VDee
VDee
tp4671
a(VLenna
tp4672
a(VRobinette
tp4673
a(VRegine
tp4674
a(VBendite
tp4675
a(VCharity
tp4676
a(VIdaline
tp4677
a(VMalia
tp4678
a(VRoanne
tp4679
a(VLeigh
tp4680
a(VDelila
tp4681
a(VNessie
tp4682
a(VChiarra
tp4683
a(VAurel
tp4684
a(VMicki
tp4685
a(VTeane
tp4686
a(VCathi
tp4687
a(VArlen
tp4688
a(VShanna
tp4689
a(VRosaleen
tp4690
a(VLoren
tp4691
a(VMirilla
tp4692
a(VFred
tp4693
a(VGertrudis
tp4694
a(VGeorgine
tp4695
a(VCharlott
tp4696
a(VChelsey
tp4697
a(VWinni
tp4698
a(VLisa
tp4699
a(VMarion
tp4700
a(VTandie
tp4701
a(VLeoline
tp4702
a(VAdel
tp4703
a(VLaure
tp4704
a(VKarole
tp4705
a(VJasmin
tp4706
a(VShellie
tp4707
a(VEvvie
tp4708
a(VNeilla
tp4709
a(VDana
tp4710
a(VHappy
tp4711
a(VIvory
tp4712
a(VStarlene
tp4713
a(VLia
tp4714
a(VMaryrose
tp4715
a(VJerrie
tp4716
a(VAudie
tp4717
a(VCherrita
tp4718
a(VPriscella
tp4719
a(VAddis
tp4720
a(VFulvia
tp4721
a(VMadonna
tp4722
a(VClovis
tp4723
a(VElse
tp4724
a(VDiannne
tp4725
a(VBerry
tp4726
a(VGeorgina
tp4727
a(VRosemonde
tp4728
a(VBrigid
tp4729
a(VJessy
tp4730
a(VMarys
tp4731
a(VVallie
tp4732
a(VLorena
tp4733
a(VMahala
tp4734
a(VSiana
tp4735
a(VEnrichetta
tp4736
a(VNoel
tp4737
a(VCamellia
tp4738
a(VRandene
tp4739
a(VFiann
tp4740
a(VLoraine
tp4741
a(VHanny
tp4742
a(VCanada
tp4743
a(VMelania
tp4744
a(VLynn
tp4745
a(VMarne
tp4746
a(VVilhelmina
tp4747
a(VMalynda
tp4748
a(VBeilul
tp4749
a(VGwenette
tp4750
a(VLenee
tp4751
a(VChristabella
tp4752
a(VEstrellita
tp4753
a(VAndee
tp4754
a(VBonnie
tp4755
a(VBari
tp4756
a(VJocelin
tp4757
a(VPris
tp4758
a(VLadonna
tp4759
a(VErnesta
tp4760
a(VRiva
tp4761
a(VOla
tp4762
a(VInes
tp4763
a(VNerti
tp4764
a(VRosalyn
tp4765
a(VTiertza
tp4766
a(VCary
tp4767
a(VEmalee
tp4768
a(VLorette
tp4769
a(VPietra
tp4770
a(VEstell
tp4771
a(VNoreen
tp4772
a(VInesita
tp4773
a(VEddie
tp4774
a(VKania
tp4775
a(VAnnabal
tp4776
a(VNetta
tp4777
a(VMillie
tp4778
a(VMarinna
tp4779
a(VFlorry
tp4780
a(VJoyan
tp4781
a(VLivia
tp4782
a(VVina
tp4783
a(VSioux
tp4784
a(VTheada
tp4785
a(VEulalie
tp4786
a(VGlenda
tp4787
a(VCristen
tp4788
a(VCarie
tp4789
a(VLibbi
tp4790
a(VMilena
tp4791
a(VGinni
tp4792
a(VShannen
tp4793
a(VCherianne
tp4794
a(VLilyan
tp4795
a(VDarline
tp4796
a(VGigi
tp4797
a(VSuzette
tp4798
a(VDara
tp4799
a(VJacklin
tp4800
a(VJessa
tp4801
a(VRomola
tp4802
a(VShela
tp4803
a(VPaulie
tp4804
a(VTate
tp4805
a(VBerrie
tp4806
a(VLissa
tp4807
a(VDierdre
tp4808
a(VCicily
tp4809
a(VYetta
tp4810
a(VGeeta
tp4811
a(VRozele
tp4812
a(VSimone
tp4813
a(VDacey
tp4814
a(VAurea
tp4815
a(VSharleen
tp4816
a(VAsia
tp4817
a(VJuline
tp4818
a(VEmogene
tp4819
a(VJoly
tp4820
a(VDaniele
tp4821
a(VLinnie
tp4822
a(VShelagh
tp4823
a(VDesaree
tp4824
a(VJody
tp4825
a(VWenona
tp4826
a(VAuroora
tp4827
a(VNada
tp4828
a(VCalida
tp4829
a(VBerni
tp4830
a(VSaree
tp4831
a(VDianemarie
tp4832
a(VFlorette
tp4833
a(VElaine
tp4834
a(VArleta
tp4835
a(VAriana
tp4836
a(VAlexia
tp4837
a(VCamille
tp4838
a(VErika
tp4839
a(VCorene
tp4840
a(VShaine
tp4841
a(VAile
tp4842
a(VTania
tp4843
a(VFarand
tp4844
a(VMeghann
tp4845
a(VAdena
tp4846
a(VPamelina
tp4847
a(VCarol-Jean
tp4848
a(VLiza
tp4849
a(VRaquel
tp4850
a(VVitoria
tp4851
a(VYelena
tp4852
a(VKathye
tp4853
a(VLaetitia
tp4854
a(VLibby
tp4855
a(VMisha
tp4856
a(VRaychel
tp4857
a(VDorit
tp4858
a(VSybyl
tp4859
a(VWhitney
tp4860
a(VKimberli
tp4861
a(VMaible
tp4862
a(VKaylee
tp4863
a(VSheilah
tp4864
a(VJobye
tp4865
a(VBlondell
tp4866
a(VSibella
tp4867
a(VOrtensia
tp4868
a(VNikoletta
tp4869
a(VSelle
tp4870
a(VAlison
tp4871
a(VQuentin
tp4872
a(VChris
tp4873
a(VChloe
tp4874
a(VVirginia
tp4875
a(VLori
tp4876
a(VCathrine
tp4877
a(VLizzy
tp4878
a(VEmalia
tp4879
a(VDonnajean
tp4880
a(VGabi
tp4881
a(VTeodora
tp4882
a(VRuthe
tp4883
a(VKaylyn
tp4884
a(VEmera
tp4885
a(VFredra
tp4886
a(VBarbi
tp4887
a(VDixie
tp4888
a(VAngele
tp4889
a(VPhilippa
tp4890
a(VAgnola
tp4891
a(VGilly
tp4892
a(VJanel
tp4893
a(VDolorita
tp4894
a(VCandra
tp4895
a(VVanya
tp4896
a(VSeka
tp4897
a(VZonda
tp4898
a(VAnallese
tp4899
a(VOndrea
tp4900
a(VBlondelle
tp4901
a(VAntonia
tp4902
a(VKip
tp4903
a(VValentina
tp4904
a(VAstrid
tp4905
a(VMarris
tp4906
a(VCarlena
tp4907
a(VHelene
tp4908
a(VThomasin
tp4909
a(VCarolina
tp4910
a(VKailey
tp4911
a(VEstele
tp4912
a(VSaraann
tp4913
a(VWinifred
tp4914
a(VVitia
tp4915
a(VJolene
tp4916
a(VSonni
tp4917
a(VMerola
tp4918
a(VBrande
tp4919
a(VAvivah
tp4920
a(VKalli
tp4921
a(VAnett
tp4922
a(VGarland
tp4923
a(VZulema
tp4924
a(VCharlotte
tp4925
a(VLetta
tp4926
a(VFelecia
tp4927
a(VDarla
tp4928
a(VChrissie
tp4929
a(VKamilah
tp4930
a(VDemetris
tp4931
a(VAlvira
tp4932
a(VCheri
tp4933
a(VMelly
tp4934
a(VAna
tp4935
a(VDarcey
tp4936
a(VBenita
tp4937
a(VAmbrosia
tp4938
a(VJonis
tp4939
a(VGuendolen
tp4940
a(VPerl
tp4941
a(VPrudi
tp4942
a(VMirabelle
tp4943
a(VShaina
tp4944
a(VVernice
tp4945
a(VFarra
tp4946
a(VLouisa
tp4947
a(VDanica
tp4948
a(VAnselma
tp4949
a(VCon
tp4950
a(VEdyth
tp4951
a(VLeda
tp4952
a(VCatrina
tp4953
a(VCrystal
tp4954
a(VAriella
tp4955
a(VSue-elle
tp4956
a(VCharmine
tp4957
a(VVenita
tp4958
a(VEmilee
tp4959
a(VLily
tp4960
a(VMelba
tp4961
a(VLoria
tp4962
a(VKeri
tp4963
a(VSherilyn
tp4964
a(VSela
tp4965
a(VOlympe
tp4966
a(VNanny
tp4967
a(VKyla
tp4968
a(VMerrill
tp4969
a(VLinzy
tp4970
a(VGwendolen
tp4971
a(VIzzi
tp4972
a(VRonnica
tp4973
a(VMinta
tp4974
a(VIrma
tp4975
a(VValery
tp4976
a(VCordelia
tp4977
a(VFredrika
tp4978
a(VEndora
tp4979
a(VAdara
tp4980
a(VLanita
tp4981
a(VAdrien
tp4982
a(VBonny
tp4983
a(VRuth
tp4984
a(VCharo
tp4985
a(VBren
tp4986
a(VGerrie
tp4987
a(VAbagael
tp4988
a(VFaydra
tp4989
a(VJana
tp4990
a(VEada
tp4991
a(VNoella
tp4992
a(VShelba
tp4993
a(VTerry
tp4994
a(VBetteann
tp4995
a(VJuliette
tp4996
a(VNorene
tp4997
a(VJilleen
tp4998
a(VJune
tp4999
a(VMarcellina
tp5000
a(VSissy
tp5001
a(VTommie
tp5002
a(VThea
tp5003
a(VTheo
tp5004
atRp5005
.