c__builtin__
set
p1
((lp2
V['Bonfire', 'Night']
p3
aV['Eastertide']
p4
aV['Pentecost']
p5
aV['Ascension', 'Sunday']
p6
aV['Festival', 'of', 'Wesak']
p7
aV['St.', 'Nicholas', "'s", 'Day']
p8
aV['St', 'David', "'s", 'Day']
p9
aV['Tabernacles']
p10
aV['Burns', 'night']
p11
aV['Mehragan']
p12
aV['Hana', 'Matsuri']
p13
aV['D-day']
p14
aV['Advent']
p15
aV['Feast', 'Of', 'Pesach']
p16
aV['Jewish', 'New', 'Year']
p17
aV['Remembrance', 'Day']
p18
aV['VE', 'Day']
p19
aV['Coronation']
p20
aV['Easter', 'Sunday']
p21
aV['All', 'Hallows', 'Eve']
p22
aV['D-Day']
p23
aV['Katik']
p24
aV['Saint', 'Nicholas', "'s", 'Day']
p25
aV['Lent']
p26
aV['Holy', 'Week']
p27
aV['Day', 'Of', 'Atonement']
p28
aV['Ashadha']
p29
aV['All', "Saints'"]
p30
aV['Feast', 'of', 'Passover']
p31
aV['Magha']
p32
aV['Mother', "'s", 'Day']
p33
aV['Quadragesima', 'Sunday']
p34
aV['Fathers', "'", 'Day']
p35
aV['Remembrance', 'Sunday']
p36
aV['Asvina']
p37
aV['St.', 'Patrick', "'s", 'Day']
p38
aV['Shici-go-san']
p39
aV['St.', 'Nicholas', "'", 'Day']
p40
aV['Father', "'s", 'Day']
p41
aV['St', 'Nicholas', "'s", 'Day']
p42
aV['Feast', 'Of', 'Passover']
p43
aV['Succoth']
p44
aV['V.E.', 'Day']
p45
aV['Noruz']
p46
aV['Yom', 'Kippur']
p47
aV['Feast', 'Of', 'Stephen']
p48
aV['Advent', 'Sunday']
p49
aV['New', 'Year', "'s", 'Eve']
p50
aV['Ash', 'Wednesday']
p51
aV['Assumption']
p52
aV['All', 'Hallows']
p53
aV['Spring', 'Festival']
p54
aV['Commonwealth', 'Day']
p55
aV['Saint', 'David', "'s", 'Day']
p56
aV['Hogmanay']
p57
aV['Corpus', 'Christi']
p58
aV['Feast', 'Of', 'Weeks']
p59
aV['Mothering', 'Sunday']
p60
aV['Saga', 'dawa']
p61
aV['Day', 'of', 'Atonement']
p62
aV['V.J', '.']
p63
aV['Independence', 'Day']
p64
aV['St', 'Andrew', "'s", 'Day']
p65
aV['Fathering', 'Sunday']
p66
aV['Silver', 'Jubilee']
p67
aV['Jubilee']
p68
aV['Magar']
p69
aV['Vaisakha']
p70
aV['Phagan']
p71
aV['Pesach']
p72
aV['May']
p73
aV['Saint', 'Andrew', "'s", 'Day']
p74
aV['Festival', 'Of', 'Wesak']
p75
aV['Burns', 'Night']
p76
aV['Quinquagesima', 'Sunday']
p77
aV['karttika']
p78
aV['St', 'Nicholas', "'", 'Day']
p79
aV['Saint', 'Stephen', "'s", 'Day']
p80
aV['Rabi', 'I']
p81
aV['Shrove', 'Tuesday']
p82
aV['Assumption', 'Sunday']
p83
aV['Bastille']
p84
aV['Saint', 'Nicholas', "'", 'Day']
p85
aV['Easter', 'Monday']
p86
aV['Palm', 'Sunday']
p87
aV['Good', 'Fri']
p88
aV['Rajab']
p89
aV['Rosh', 'Hashanah']
p90
aV['St', 'Basil', "'s", 'Day']
p91
aV['Feast', 'of', 'Stephen']
p92
aV['Asun']
p93
aV['Pajjusana']
p94
aV['Guy', 'Fawkes', "'", 'night']
p95
aV['Whit', 'Sunday']
p96
aV['Ramadan']
p97
aV['Islamic', 'New', 'Year']
p98
aV['St.', 'Swithun', "'s", 'Day']
p99
aV['Saraswati', 'Puja']
p100
aV['St.', 'George', "'s", 'Day']
p101
aV['Feast', 'of', 'Weeks']
p102
aV['Yuletide']
p103
aV['Epiphany']
p104
aV['St.', 'David', "'s", 'Day']
p105
aV['St', 'George', "'s", 'Day']
p106
aV['Saint', 'Swithun', "'s", 'Day']
p107
aV['Bonfire', 'night']
p108
aV['All', "Souls'"]
p109
aV['Low', 'Sunday']
p110
aV['Saint', 'Valentine', "'s", 'Day']
p111
aV['Shawwal']
p112
aV['VJ']
p113
aV['Thanksgiving']
p114
aV['Diwali']
p115
aV['Bhadrapada']
p116
aV['Xmas', 'Eve']
p117
aV['St', 'Valentine', "'s", 'Day']
p118
aV['Chinese', 'New', 'Year']
p119
aV['Oli']
p120
aV['St.', 'Andrew', "'s", 'Day']
p121
aV['St', 'Stephen', "'s", 'Day']
p122
aV['Golden', 'Jubilee']
p123
aV["Hallowe'en"]
p124
aV['Christmas', 'Eve']
p125
aV['Guy', 'Fawkes', "'", 'Night']
p126
aV['Halloween']
p127
aV['April', 'Fool', "'s"]
p128
aV['New', 'Year']
p129
aV['Xmas']
p130
aV['Hanukkah']
p131
aV['Chaitra']
p132
aV['Ramadam']
p133
aV['Saint', 'Basil', "'s", 'Day']
p134
aV['Phalguna']
p135
aV['Grandparent', "'s"]
p136
aV['Easter']
p137
aV['Septuagesima', 'Sunday']
p138
aV['Muharram']
p139
aV['Saint', 'Patrick', "'s", 'Day']
p140
aV['Christmas']
p141
aV['Spring', 'festival']
p142
aV['St', 'Swithun', "'s", 'Day']
p143
aV['Christmastide']
p144
aV['Boxing', 'Day']
p145
aV['Dhu-i-Hijja']
p146
aV['Good', 'Friday']
p147
aV['St.', 'Stephen', "'s", 'Day']
p148
aV['Saga', 'Dawa']
p149
aV['St.', 'Basil', "'s", 'Day']
p150
aV['Trinity', 'Sunday']
p151
aV['Whitsun']
p152
aV['Feast', 'of', 'Pesach']
p153
aV['Passover']
p154
aV['Saint', 'George', "'s", 'Day']
p155
aV['St', 'Patrick', "'s", 'Day']
p156
aV['Rogation', 'Sunday']
p157
atRp158
.