c__builtin__
set
p1
((lp2
(VBhadrapada
tp3
a(VWhitsun
tp4
a(VDay
Vof
VAtonement
tp5
a(VSilver
VJubilee
tp6
a(VCorpus
VChristi
tp7
a(VAssumption
VSunday
tp8
a(VXmas
tp9
a(VV.J
V.
tp10
a(VBonfire
VNight
tp11
a(VSaint
VGeorge
V's
VDay
tp12
a(VFestival
Vof
VWesak
tp13
a(VCommonwealth
VDay
tp14
a(VNoruz
tp15
a(VNew
VYear
tp16
a(VGrandparent
V's
tp17
a(VBastille
tp18
a(VSpring
Vfestival
tp19
a(VDay
VOf
VAtonement
tp20
a(VPajjusana
tp21
a(VSaint
VPatrick
V's
VDay
tp22
a(VVE
VDay
tp23
a(VFathers
V'
VDay
tp24
a(VShawwal
tp25
a(VSpring
VFestival
tp26
a(VMay
tp27
a(VOli
tp28
a(VShrove
VTuesday
tp29
a(VFathering
VSunday
tp30
a(VSt
VDavid
V's
VDay
tp31
a(VAssumption
tp32
a(VRogation
VSunday
tp33
a(VSt.
VNicholas
V's
VDay
tp34
a(VSt.
VBasil
V's
VDay
tp35
a(VRemembrance
VSunday
tp36
a(VSt.
VNicholas
V'
VDay
tp37
a(VEaster
VMonday
tp38
a(VVJ
tp39
a(VRabi
VI
tp40
a(VPalm
VSunday
tp41
a(VGolden
VJubilee
tp42
a(VMehragan
tp43
a(VSaint
VNicholas
V'
VDay
tp44
a(VFeast
VOf
VPassover
tp45
a(VMagha
tp46
a(VLent
tp47
a(VTabernacles
tp48
a(VAll
VSaints'
tp49
a(VQuadragesima
VSunday
tp50
a(VIndependence
VDay
tp51
a(VKatik
tp52
a(Vkarttika
tp53
a(VSt.
VPatrick
V's
VDay
tp54
a(VAll
VHallows
tp55
a(VSaint
VStephen
V's
VDay
tp56
a(VSt.
VSwithun
V's
VDay
tp57
a(VGood
VFri
tp58
a(VSaga
VDawa
tp59
a(VGood
VFriday
tp60
a(VAll
VHallows
VEve
tp61
a(VAll
VSouls'
tp62
a(VSt
VValentine
V's
VDay
tp63
a(VMagar
tp64
a(VPentecost
tp65
a(VGuy
VFawkes
V'
VNight
tp66
a(VRemembrance
VDay
tp67
a(VSt
VSwithun
V's
VDay
tp68
a(VCoronation
tp69
a(VSt.
VGeorge
V's
VDay
tp70
a(VAsun
tp71
a(VSt
VBasil
V's
VDay
tp72
a(VEpiphany
tp73
a(VRamadan
tp74
a(VGuy
VFawkes
V'
Vnight
tp75
a(VAscension
VSunday
tp76
a(VEastertide
tp77
a(VRosh
VHashanah
tp78
a(VDhu-i-Hijja
tp79
a(VBoxing
VDay
tp80
a(VVaisakha
tp81
a(VXmas
VEve
tp82
a(VFeast
Vof
VStephen
tp83
a(VAdvent
tp84
a(VChristmastide
tp85
a(VTrinity
VSunday
tp86
a(VThanksgiving
tp87
a(VSuccoth
tp88
a(VBurns
VNight
tp89
a(VFeast
Vof
VWeeks
tp90
a(VSt.
VDavid
V's
VDay
tp91
a(VFather
V's
VDay
tp92
a(VSaga
Vdawa
tp93
a(VSt.
VAndrew
V's
VDay
tp94
a(VShici-go-san
tp95
a(VHalloween
tp96
a(VChaitra
tp97
a(VJewish
VNew
VYear
tp98
a(VRamadam
tp99
a(VSt
VPatrick
V's
VDay
tp100
a(VWhit
VSunday
tp101
a(VMuharram
tp102
a(VHana
VMatsuri
tp103
a(VYuletide
tp104
a(VChristmas
VEve
tp105
a(VLow
VSunday
tp106
a(VD-Day
tp107
a(VSeptuagesima
VSunday
tp108
a(VAdvent
VSunday
tp109
a(VPhagan
tp110
a(VSt
VAndrew
V's
VDay
tp111
a(VApril
VFool
V's
tp112
a(VHanukkah
tp113
a(VHallowe'en
tp114
a(VIslamic
VNew
VYear
tp115
a(VEaster
VSunday
tp116
a(VSt
VGeorge
V's
VDay
tp117
a(VSt.
VStephen
V's
VDay
tp118
a(VBonfire
Vnight
tp119
a(VHoly
VWeek
tp120
a(VV.E.
VDay
tp121
a(VFestival
VOf
VWesak
tp122
a(VChinese
VNew
VYear
tp123
a(VNew
VYear
V's
VEve
tp124
a(VSaint
VDavid
V's
VDay
tp125
a(VSaint
VAndrew
V's
VDay
tp126
a(VEaster
tp127
a(VSt
VNicholas
V'
VDay
tp128
a(VAsh
VWednesday
tp129
a(VDiwali
tp130
a(VHogmanay
tp131
a(VAshadha
tp132
a(VFeast
VOf
VStephen
tp133
a(VPhalguna
tp134
a(VFeast
Vof
VPesach
tp135
a(VSaint
VValentine
V's
VDay
tp136
a(VSaint
VNicholas
V's
VDay
tp137
a(VSaint
VBasil
V's
VDay
tp138
a(VBurns
Vnight
tp139
a(VD-day
tp140
a(VYom
VKippur
tp141
a(VFeast
Vof
VPassover
tp142
a(VRajab
tp143
a(VSaint
VSwithun
V's
VDay
tp144
a(VFeast
VOf
VPesach
tp145
a(VMother
V's
VDay
tp146
a(VFeast
VOf
VWeeks
tp147
a(VAsvina
tp148
a(VJubilee
tp149
a(VChristmas
tp150
a(VMothering
VSunday
tp151
a(VQuinquagesima
VSunday
tp152
a(VPesach
tp153
a(VPassover
tp154
a(VSt
VStephen
V's
VDay
tp155
a(VSt
VNicholas
V's
VDay
tp156
a(VSaraswati
VPuja
tp157
atRp158
.