c__builtin__
set
p1
((lp2
V['Guam']
p3
aV['Myanmar']
p4
aV['Greece']
p5
aV['Cameroon']
p6
aV['Hungary']
p7
aV['Bhutan']
p8
aV['Singapore']
p9
aV['Mayotte']
p10
aV['Comoros']
p11
aV['Iraq']
p12
aV['Italy']
p13
aV['C', '\u005cxf4', 'te', "d'Ivoire"]
p14
aV['Netherlands']
p15
aV['Israel']
p16
aV['Brunei', 'Darussalam']
p17
aV['Australia']
p18
aV['Turks', 'and', 'Caicos', 'Islands']
p19
aV['Russian', 'Federation']
p20
aV['Lesotho']
p21
aV['Venezuela']
p22
aV['Cocos', '(', 'Keeling', ')', 'Islands']
p23
aV['Pitcairn']
p24
aV['Guinea-Bissau']
p25
aV['Greenland']
p26
aV['Kiribati']
p27
aV['Dominican', 'Republic']
p28
aV['Burkina', 'Faso']
p29
aV['Maldives']
p30
aV['Canada']
p31
aV['Slovenia']
p32
aV['Puerto', 'Rico']
p33
aV['Lebanon']
p34
aV['Papua', 'New', 'Guinea']
p35
aV['Iceland']
p36
aV['Finland']
p37
aV['Saint', 'Kitts', 'and', 'Nevis']
p38
aV['Micronesia', ',', 'Federated', 'States', 'of']
p39
aV['Ecuador']
p40
aV['Kyrgyzstan']
p41
aV['Guadeloupe']
p42
aV['Djibouti']
p43
aV['Ethiopia']
p44
aV['Equatorial', 'Guinea']
p45
aV['French', 'Southern', 'Territories']
p46
aV['Mexico']
p47
aV['Suriname']
p48
aV['Nicaragua']
p49
aV['Monaco']
p50
aV['New', 'Caledonia']
p51
aV['Mali']
p52
aV['Yemen']
p53
aV['French', 'Polynesia']
p54
aV['Tunisia']
p55
aV['Ireland']
p56
aV['Togo']
p57
aV['Argentina']
p58
aV['Albania']
p59
aV['Uruguay']
p60
aV['Guyana']
p61
aV['Samoa']
p62
aV['Trinidad', 'and', 'Tobago']
p63
aV['Bosnia', 'and', 'Herzegovina']
p64
aV['Guatemala']
p65
aV['Central', 'African', 'Republic']
p66
aV['Seychelles']
p67
aV['New', 'Zealand']
p68
aV['Christmas', 'Island']
p69
aV['Croatia']
p70
aV['Svalbard', 'and', 'Jan', 'Mayen']
p71
aV['Anguilla']
p72
aV['El', 'Salvador']
p73
aV['Saint', 'Lucia']
p74
aV['Cook', 'Islands']
p75
aV['Marshall', 'Islands']
p76
aV['Azerbaijan']
p77
aV['Haiti']
p78
aV['Sri', 'Lanka']
p79
aV['Saudi', 'Arabia']
p80
aV['Serbia']
p81
aV['Niue']
p82
aV['Benin']
p83
aV['Turkmenistan']
p84
aV['Armenia']
p85
aV['Mozambique']
p86
aV['Saint', 'Vincent', 'and', 'the', 'Grenadines']
p87
aV['San', 'Marino']
p88
aV['Uzbekistan']
p89
aV['Eritrea']
p90
aV['Tokelau']
p91
aV['Norfolk', 'Island']
p92
aV['Libyan', 'Arab', 'Jamahiriya']
p93
aV['Sudan']
p94
aV['Aruba']
p95
aV['Tanzania', ',', 'United', 'Republic', 'of']
p96
aV['Austria']
p97
aV['Fiji']
p98
aV['Morocco']
p99
aV['Taiwan', ',', 'Province', 'of', 'China']
p100
aV['Kazakhstan']
p101
aV['Mauritania']
p102
aV['Northern', 'Mariana', 'Islands']
p103
aV['Martinique']
p104
aV['Liberia']
p105
aV['Tonga']
p106
aV['China']
p107
aV['Kuwait']
p108
aV['Colombia']
p109
aV['Bermuda']
p110
aV['Cyprus']
p111
aV['Sweden']
p112
aV['Jordan']
p113
aV['Lao', 'People', "'s", 'Democratic', 'Republic']
p114
aV['Vanuatu']
p115
aV['Botswana']
p116
aV['Chad']
p117
aV['Korea', ',', 'Republic', 'of']
p118
aV['Burundi']
p119
aV['France']
p120
aV['South', 'Africa']
p121
aV['Costa', 'Rica']
p122
aV['Slovakia']
p123
aV['Senegal']
p124
aV['Turkey']
p125
aV['Cape', 'Verde']
p126
aV['Zambia']
p127
aV['Montenegro']
p128
aV['United', 'Kingdom']
p129
aV['Sierra', 'Leone']
p130
aV['Macedonia', ',', 'the', 'former', 'Yugoslav', 'Republic', 'of']
p131
aV['Nigeria']
p132
aV['Paraguay']
p133
aV['Guernsey']
p134
aV['Iran', ',', 'Islamic', 'Republic', 'of']
p135
aV['Jersey']
p136
aV['Moldova', ',', 'Republic', 'of']
p137
aV['Spain']
p138
aV['Angola']
p139
aV['Guinea']
p140
aV['Barbados']
p141
aV['Somalia']
p142
aV['Cayman', 'Islands']
p143
aV['Tuvalu']
p144
aV['Qatar']
p145
aV['Ukraine']
p146
aV['Nauru']
p147
aV['Holy', 'See', '(', 'Vatican', 'City', 'State', ')']
p148
aV['Andorra']
p149
aV['Bangladesh']
p150
aV['Syrian', 'Arab', 'Republic']
p151
aV['Zimbabwe']
p152
aV['Egypt']
p153
aV['Faroe', 'Islands']
p154
aV['Dominica']
p155
aV['Bolivia']
p156
aV['Gabon']
p157
aV['South', 'Georgia', 'and', 'the', 'South', 'Sandwich', 'Islands']
p158
aV['Liechtenstein']
p159
aV['Madagascar']
p160
aV['Lithuania']
p161
aV['Swaziland']
p162
aV['Switzerland']
p163
aV['Grenada']
p164
aV['Bouvet', 'Island']
p165
aV['Ghana']
p166
aV['Isle', 'of', 'Man']
p167
aV['Sao', 'Tome', 'and', 'Principe']
p168
aV['Mauritius']
p169
aV['Saint', 'Pierre', 'and', 'Miquelon']
p170
aV['Pakistan']
p171
aV['Niger']
p172
aV['American', 'Samoa']
p173
aV['Hong', 'Kong']
p174
aV['Netherlands', 'Antilles']
p175
aV['Brazil']
p176
aV['Afghanistan']
p177
aV['Chile']
p178
aV['Georgia']
p179
aV['Kenya']
p180
aV['Nepal']
p181
aV['Palau']
p182
aV['Korea', ',', 'Democratic', 'People', "'s", 'Republic', 'of']
p183
aV['Bulgaria']
p184
aV['Mongolia']
p185
aV['Virgin', 'Islands', ',', 'U.S', '.']
p186
aV['Thailand']
p187
aV['Malawi']
p188
aV['Saint', 'Helena']
p189
aV['Virgin', 'Islands', ',', 'British']
p190
aV['Saint', 'Martin', '(', 'French', 'part', ')']
p191
aV['Indonesia']
p192
aV['Belgium']
p193
aV['Wallis', 'and', 'Futuna']
p194
aV['R', '\u005cxe9', 'union']
p195
aV['Bahamas']
p196
aV['Czech', 'Republic']
p197
aV['Luxembourg']
p198
aV['Belize']
p199
aV['Falkland', 'Islands', '(', 'Malvinas', ')']
p200
aV['Cambodia']
p201
aV['Belarus']
p202
aV['Latvia']
p203
aV['Algeria']
p204
aV['India']
p205
aV['Antigua', 'and', 'Barbuda']
p206
aV['Saint', 'Barth', '\u005cxe9', 'lemy']
p207
aV['Cuba']
p208
aV['Norway']
p209
aV['Rwanda']
p210
aV['Palestinian', 'Territory', ',', 'Occupied']
p211
aV['Poland']
p212
aV['\u005cxc5', 'land', 'Islands']
p213
aV['United', 'Arab', 'Emirates']
p214
aV['Montserrat']
p215
aV['Honduras']
p216
aV['United', 'States']
p217
aV['Gibraltar']
p218
aV['Philippines']
p219
aV['Viet', 'Nam']
p220
aV['Namibia']
p221
aV['Solomon', 'Islands']
p222
aV['United', 'States', 'Minor', 'Outlying', 'Islands']
p223
aV['Congo', ',', 'Democratic', 'Republic', 'of', 'the']
p224
aV['Estonia']
p225
aV['Japan']
p226
aV['Peru']
p227
aV['Panama']
p228
aV['Malaysia']
p229
aV['Malta']
p230
aV['Germany']
p231
aV['Oman']
p232
aV['French', 'Guiana']
p233
aV['Timor-Leste']
p234
aV['British', 'Indian', 'Ocean', 'Territory']
p235
aV['Portugal']
p236
aV['Congo']
p237
atRp238
.