c__builtin__
set
p1
((lp2
(S'Bosnia'
S'and'
S'Herzegovina'
tp3
a(S'Saint'
S'Vincent'
S'and'
S'the'
S'Grenadines'
tp4
a(S'Guinea-Bissau'
tp5
a(S'Bahamas'
tp6
a(S'South'
S'Georgia'
S'and'
S'the'
S'South'
S'Sandwich'
S'Islands'
tp7
a(S'Mayotte'
tp8
a(S'Greenland'
tp9
a(S'Marshall'
S'Islands'
tp10
a(S'Czech'
S'Republic'
tp11
a(S'Northern'
S'Mariana'
S'Islands'
tp12
a(S'Saint'
S'Barth'
S'\xe9'
S'lemy'
tp13
a(S'Uzbekistan'
tp14
a(S'Slovenia'
tp15
a(S'Uruguay'
tp16
a(S'Guernsey'
tp17
a(S'Ghana'
tp18
a(S'Nauru'
tp19
a(S'Yemen'
tp20
a(S'Afghanistan'
tp21
a(S'Brunei'
S'Darussalam'
tp22
a(S'Martinique'
tp23
a(S'Virgin'
S'Islands'
S','
S'U.S'
S'.'
tp24
a(S'Saint'
S'Martin'
S'('
S'French'
S'part'
S')'
tp25
a(S'Fiji'
tp26
a(S'Turkmenistan'
tp27
a(S'Mongolia'
tp28
a(S'Saint'
S'Pierre'
S'and'
S'Miquelon'
tp29
a(S'Bouvet'
S'Island'
tp30
a(S'India'
tp31
a(S'El'
S'Salvador'
tp32
a(S'Germany'
tp33
a(S'Libyan'
S'Arab'
S'Jamahiriya'
tp34
a(S'Suriname'
tp35
a(S'C'
S'\xf4'
S'te'
S"d'Ivoire"
tp36
a(S'Falkland'
S'Islands'
S'('
S'Malvinas'
S')'
tp37
a(S'Albania'
tp38
a(S'Japan'
tp39
a(S'\xc5'
S'land'
S'Islands'
tp40
a(S'Samoa'
tp41
a(S'Chad'
tp42
a(S'Lao'
S'People'
S"'s"
S'Democratic'
S'Republic'
tp43
a(S'Isle'
S'of'
S'Man'
tp44
a(S'Guatemala'
tp45
a(S'Switzerland'
tp46
a(S'Congo'
tp47
a(S'Malta'
tp48
a(S'China'
tp49
a(S'South'
S'Africa'
tp50
a(S'R'
S'\xe9'
S'union'
tp51
a(S'Canada'
tp52
a(S'Mauritania'
tp53
a(S'Eritrea'
tp54
a(S'Philippines'
tp55
a(S'Latvia'
tp56
a(S'Maldives'
tp57
a(S'American'
S'Samoa'
tp58
a(S'United'
S'Arab'
S'Emirates'
tp59
a(S'United'
S'Kingdom'
tp60
a(S'Bhutan'
tp61
a(S'Ethiopia'
tp62
a(S'Montenegro'
tp63
a(S'Azerbaijan'
tp64
a(S'Bermuda'
tp65
a(S'Chile'
tp66
a(S'Gabon'
tp67
a(S'Algeria'
tp68
a(S'Gibraltar'
tp69
a(S'Virgin'
S'Islands'
S','
S'British'
tp70
a(S'Netherlands'
tp71
a(S'Trinidad'
S'and'
S'Tobago'
tp72
a(S'Saint'
S'Lucia'
tp73
a(S'Hong'
S'Kong'
tp74
a(S'Wallis'
S'and'
S'Futuna'
tp75
a(S'Equatorial'
S'Guinea'
tp76
a(S'Senegal'
tp77
a(S'Djibouti'
tp78
a(S'Central'
S'African'
S'Republic'
tp79
a(S'Egypt'
tp80
a(S'Grenada'
tp81
a(S'Palestinian'
S'Territory'
S','
S'Occupied'
tp82
a(S'Argentina'
tp83
a(S'Guadeloupe'
tp84
a(S'Norway'
tp85
a(S'Kyrgyzstan'
tp86
a(S'Saint'
S'Helena'
tp87
a(S'Tokelau'
tp88
a(S'Ecuador'
tp89
a(S'Iceland'
tp90
a(S'Madagascar'
tp91
a(S'Bulgaria'
tp92
a(S'Sao'
S'Tome'
S'and'
S'Principe'
tp93
a(S'Morocco'
tp94
a(S'Serbia'
tp95
a(S'San'
S'Marino'
tp96
a(S'Faroe'
S'Islands'
tp97
a(S'Belgium'
tp98
a(S'Tanzania'
S','
S'United'
S'Republic'
S'of'
tp99
a(S'Botswana'
tp100
a(S'Hungary'
tp101
a(S'Slovakia'
tp102
a(S'Niue'
tp103
a(S'Svalbard'
S'and'
S'Jan'
S'Mayen'
tp104
a(S'Ireland'
tp105
a(S'Mali'
tp106
a(S'Christmas'
S'Island'
tp107
a(S'Comoros'
tp108
a(S'Sudan'
tp109
a(S'Honduras'
tp110
a(S'Cook'
S'Islands'
tp111
a(S'Montserrat'
tp112
a(S'Malaysia'
tp113
a(S'Liechtenstein'
tp114
a(S'Luxembourg'
tp115
a(S'Burkina'
S'Faso'
tp116
a(S'Bolivia'
tp117
a(S'Armenia'
tp118
a(S'Solomon'
S'Islands'
tp119
a(S'Rwanda'
tp120
a(S'Malawi'
tp121
a(S'Cape'
S'Verde'
tp122
a(S'Russian'
S'Federation'
tp123
a(S'Jersey'
tp124
a(S'Zambia'
tp125
a(S'Cuba'
tp126
a(S'Mauritius'
tp127
a(S'Netherlands'
S'Antilles'
tp128
a(S'Korea'
S','
S'Democratic'
S'People'
S"'s"
S'Republic'
S'of'
tp129
a(S'Indonesia'
tp130
a(S'Namibia'
tp131
a(S'Cayman'
S'Islands'
tp132
a(S'Kiribati'
tp133
a(S'Niger'
tp134
a(S'Somalia'
tp135
a(S'Nicaragua'
tp136
a(S'Israel'
tp137
a(S'Seychelles'
tp138
a(S'Cyprus'
tp139
a(S'Poland'
tp140
a(S'United'
S'States'
S'Minor'
S'Outlying'
S'Islands'
tp141
a(S'Austria'
tp142
a(S'Zimbabwe'
tp143
a(S'Viet'
S'Nam'
tp144
a(S'Timor-Leste'
tp145
a(S'Ukraine'
tp146
a(S'Norfolk'
S'Island'
tp147
a(S'Guinea'
tp148
a(S'Cameroon'
tp149
a(S'Antigua'
S'and'
S'Barbuda'
tp150
a(S'Bangladesh'
tp151
a(S'Tuvalu'
tp152
a(S'Turks'
S'and'
S'Caicos'
S'Islands'
tp153
a(S'Dominican'
S'Republic'
tp154
a(S'Andorra'
tp155
a(S'Lebanon'
tp156
a(S'United'
S'States'
tp157
a(S'Kenya'
tp158
a(S'Aruba'
tp159
a(S'Haiti'
tp160
a(S'Peru'
tp161
a(S'Kazakhstan'
tp162
a(S'Monaco'
tp163
a(S'Pitcairn'
tp164
a(S'Spain'
tp165
a(S'Belize'
tp166
a(S'Turkey'
tp167
a(S'Myanmar'
tp168
a(S'Lesotho'
tp169
a(S'Lithuania'
tp170
a(S'Singapore'
tp171
a(S'Belarus'
tp172
a(S'Cocos'
S'('
S'Keeling'
S')'
S'Islands'
tp173
a(S'Jordan'
tp174
a(S'Brazil'
tp175
a(S'Anguilla'
tp176
a(S'Liberia'
tp177
a(S'Greece'
tp178
a(S'Qatar'
tp179
a(S'Georgia'
tp180
a(S'Benin'
tp181
a(S'New'
S'Zealand'
tp182
a(S'Sweden'
tp183
a(S'Paraguay'
tp184
a(S'Croatia'
tp185
a(S'Papua'
S'New'
S'Guinea'
tp186
a(S'Iraq'
tp187
a(S'Pakistan'
tp188
a(S'Sierra'
S'Leone'
tp189
a(S'Vanuatu'
tp190
a(S'French'
S'Guiana'
tp191
a(S'Barbados'
tp192
a(S'Kuwait'
tp193
a(S'Nepal'
tp194
a(S'Togo'
tp195
a(S'Mexico'
tp196
a(S'Congo'
S','
S'Democratic'
S'Republic'
S'of'
S'the'
tp197
a(S'Micronesia'
S','
S'Federated'
S'States'
S'of'
tp198
a(S'Palau'
tp199
a(S'Saudi'
S'Arabia'
tp200
a(S'Mozambique'
tp201
a(S'France'
tp202
a(S'Nigeria'
tp203
a(S'Iran'
S','
S'Islamic'
S'Republic'
S'of'
tp204
a(S'Colombia'
tp205
a(S'Venezuela'
tp206
a(S'Tonga'
tp207
a(S'Tunisia'
tp208
a(S'Moldova'
S','
S'Republic'
S'of'
tp209
a(S'Guam'
tp210
a(S'Korea'
S','
S'Republic'
S'of'
tp211
a(S'French'
S'Polynesia'
tp212
a(S'Dominica'
tp213
a(S'Costa'
S'Rica'
tp214
a(S'Holy'
S'See'
S'('
S'Vatican'
S'City'
S'State'
S')'
tp215
a(S'Swaziland'
tp216
a(S'Guyana'
tp217
a(S'Australia'
tp218
a(S'Oman'
tp219
a(S'Angola'
tp220
a(S'Panama'
tp221
a(S'Finland'
tp222
a(S'Estonia'
tp223
a(S'Cambodia'
tp224
a(S'Taiwan'
S','
S'Province'
S'of'
S'China'
tp225
a(S'Burundi'
tp226
a(S'Puerto'
S'Rico'
tp227
a(S'French'
S'Southern'
S'Territories'
tp228
a(S'Sri'
S'Lanka'
tp229
a(S'British'
S'Indian'
S'Ocean'
S'Territory'
tp230
a(S'Macedonia'
S','
S'the'
S'former'
S'Yugoslav'
S'Republic'
S'of'
tp231
a(S'Italy'
tp232
a(S'New'
S'Caledonia'
tp233
a(S'Thailand'
tp234
a(S'Syrian'
S'Arab'
S'Republic'
tp235
a(S'Saint'
S'Kitts'
S'and'
S'Nevis'
tp236
a(S'Portugal'
tp237
atRp238
.