c__builtin__
set
p1
((lp2
(VBosnia
Vand
VHerzegovina
tp3
a(VSaint
VVincent
Vand
Vthe
VGrenadines
tp4
a(VGuinea-Bissau
tp5
a(VSouth
VGeorgia
Vand
Vthe
VSouth
VSandwich
VIslands
tp6
a(VMayotte
tp7
a(VGreenland
tp8
a(VMarshall
VIslands
tp9
a(VCzech
VRepublic
tp10
a(VNorthern
VMariana
VIslands
tp11
a(VUnited
VStates
tp12
a(VGhana
tp13
a(VSlovenia
tp14
a(VUruguay
tp15
a(VGuernsey
tp16
a(VNauru
tp17
a(VIsrael
tp18
a(VYemen
tp19
a(VAfghanistan
tp20
a(VBrunei
VDarussalam
tp21
a(VMartinique
tp22
a(VVirgin
VIslands
V,
VU.S
V.
tp23
a(VSaint
VMartin
V(
VFrench
Vpart
V)
tp24
a(VFiji
tp25
a(VViet
VNam
tp26
a(VMongolia
tp27
a(VSaint
VPierre
Vand
VMiquelon
tp28
a(VBouvet
VIsland
tp29
a(VIndia
tp30
a(VEl
VSalvador
tp31
a(VGermany
tp32
a(VSuriname
tp33
a(VFalkland
VIslands
V(
VMalvinas
V)
tp34
a(VAlbania
tp35
a(VSamoa
tp36
a(VChad
tp37
a(VLao
VPeople
V's
VDemocratic
VRepublic
tp38
a(VIsle
Vof
VMan
tp39
a(VGuatemala
tp40
a(VSwitzerland
tp41
a(VCongo
tp42
a(VMalta
tp43
a(VChina
tp44
a(VSouth
VAfrica
tp45
a(VCanada
tp46
a(VMauritania
tp47
a(VEritrea
tp48
a(VPhilippines
tp49
a(VLatvia
tp50
a(VMaldives
tp51
a(VAmerican
VSamoa
tp52
a(VUnited
VArab
VEmirates
tp53
a(VUnited
VKingdom
tp54
a(VUzbekistan
tp55
a(VBhutan
tp56
a(VEthiopia
tp57
a(VMontenegro
tp58
a(VAzerbaijan
tp59
a(VBermuda
tp60
a(VChile
tp61
a(VGabon
tp62
a(VAlgeria
tp63
a(VGibraltar
tp64
a(VVirgin
VIslands
V,
VBritish
tp65
a(VNetherlands
tp66
a(VTrinidad
Vand
VTobago
tp67
a(VSaint
VLucia
tp68
a(VHong
VKong
tp69
a(VWallis
Vand
VFutuna
tp70
a(VLibyan
VArab
VJamahiriya
tp71
a(VSenegal
tp72
a(VDjibouti
tp73
a(VCentral
VAfrican
VRepublic
tp74
a(VEgypt
tp75
a(VGrenada
tp76
a(VPalestinian
VTerritory
V,
VOccupied
tp77
a(VArgentina
tp78
a(VGuadeloupe
tp79
a(VNorway
tp80
a(VKyrgyzstan
tp81
a(VSaint
VHelena
tp82
a(VTokelau
tp83
a(VEcuador
tp84
a(VIceland
tp85
a(VMadagascar
tp86
a(VBulgaria
tp87
a(VSao
VTome
Vand
VPrincipe
tp88
a(VMorocco
tp89
a(VSerbia
tp90
a(VSan
VMarino
tp91
a(VFaroe
VIslands
tp92
a(VBelgium
tp93
a(VTanzania
V,
VUnited
VRepublic
Vof
tp94
a(VBotswana
tp95
a(VJapan
tp96
a(VSlovakia
tp97
a(VNiue
tp98
a(VSvalbard
Vand
VJan
VMayen
tp99
a(VIreland
tp100
a(VMali
tp101
a(VChristmas
VIsland
tp102
a(VComoros
tp103
a(VSudan
tp104
a(VHonduras
tp105
a(VCook
VIslands
tp106
a(VMontserrat
tp107
a(VMalaysia
tp108
a(VLiechtenstein
tp109
a(VLuxembourg
tp110
a(VBurkina
VFaso
tp111
a(VBolivia
tp112
a(VArmenia
tp113
a(VSolomon
VIslands
tp114
a(VRwanda
tp115
a(VMalawi
tp116
a(VCape
VVerde
tp117
a(VRussian
VFederation
tp118
a(VJersey
tp119
a(VHungary
tp120
a(VZambia
tp121
a(VMauritius
tp122
a(VNetherlands
VAntilles
tp123
a(VKorea
V,
VDemocratic
VPeople
V's
VRepublic
Vof
tp124
a(VIndonesia
tp125
a(VCroatia
tp126
a(VCayman
VIslands
tp127
a(VKiribati
tp128
a(VNiger
tp129
a(VSomalia
tp130
a(VNicaragua
tp131
a(VSaint
VKitts
Vand
VNevis
tp132
a(VSeychelles
tp133
a(VCyprus
tp134
a(VPoland
tp135
a(VDominica
tp136
a(VUnited
VStates
VMinor
VOutlying
VIslands
tp137
a(VSingapore
tp138
a(VAustria
tp139
a(VZimbabwe
tp140
a(VTimor-Leste
tp141
a(VUkraine
tp142
a(VNorfolk
VIsland
tp143
a(VCameroon
tp144
a(VAntigua
Vand
VBarbuda
tp145
a(VBangladesh
tp146
a(VTuvalu
tp147
a(VTurks
Vand
VCaicos
VIslands
tp148
a(VDominican
VRepublic
tp149
a(VBahamas
tp150
a(VLebanon
tp151
a(VKenya
tp152
a(VAruba
tp153
a(VSierra
VLeone
tp154
a(VPeru
tp155
a(VKazakhstan
tp156
a(VMonaco
tp157
a(VAndorra
tp158
a(VPitcairn
tp159
a(VSpain
tp160
a(VEquatorial
VGuinea
tp161
a(VBelize
tp162
a(VMyanmar
tp163
a(VLesotho
tp164
a(VLithuania
tp165
a(VCuba
tp166
a(VBelarus
tp167
a(VCocos
V(
VKeeling
V)
VIslands
tp168
a(VJordan
tp169
a(VBrazil
tp170
a(VAnguilla
tp171
a(VLiberia
tp172
a(VGreece
tp173
a(VQatar
tp174
a(VGeorgia
tp175
a(VBenin
tp176
a(VNew
VZealand
tp177
a(VSweden
tp178
a(VParaguay
tp179
a(VNamibia
tp180
a(VPapua
VNew
VGuinea
tp181
a(VIraq
tp182
a(VTogo
tp183
a(VPakistan
tp184
a(VHaiti
tp185
a(VVanuatu
tp186
a(VFrench
VGuiana
tp187
a(VBarbados
tp188
a(VKuwait
tp189
a(VTurkmenistan
tp190
a(VNepal
tp191
a(VGuinea
tp192
a(VMexico
tp193
a(VCongo
V,
VDemocratic
VRepublic
Vof
Vthe
tp194
a(VMicronesia
V,
VFederated
VStates
Vof
tp195
a(VPalau
tp196
a(VSaudi
VArabia
tp197
a(VMozambique
tp198
a(VFrance
tp199
a(VNigeria
tp200
a(VIran
V,
VIslamic
VRepublic
Vof
tp201
a(VColombia
tp202
a(VVenezuela
tp203
a(VTonga
tp204
a(VTunisia
tp205
a(VMoldova
V,
VRepublic
Vof
tp206
a(VGuam
tp207
a(VKorea
V,
VRepublic
Vof
tp208
a(VFrench
VPolynesia
tp209
a(VBritish
VIndian
VOcean
VTerritory
tp210
a(VCosta
VRica
tp211
a(VHoly
VSee
V(
VVatican
VCity
VState
V)
tp212
a(VSwaziland
tp213
a(VGuyana
tp214
a(VAustralia
tp215
a(VOman
tp216
a(VAngola
tp217
a(VPanama
tp218
a(VFinland
tp219
a(VEstonia
tp220
a(VCambodia
tp221
a(VTaiwan
V,
VProvince
Vof
VChina
tp222
a(VTurkey
tp223
a(VPuerto
VRico
tp224
a(VFrench
VSouthern
VTerritories
tp225
a(VSri
VLanka
tp226
a(VMacedonia
V,
Vthe
Vformer
VYugoslav
VRepublic
Vof
tp227
a(VItaly
tp228
a(VNew
VCaledonia
tp229
a(VThailand
tp230
a(VSyrian
VArab
VRepublic
tp231
a(VBurundi
tp232
a(VPortugal
tp233
atRp234
.