c__builtin__
set
p1
((lp2
(S'Matthiew'
tp3
a(S'Euclid'
tp4
a(S'Lennie'
tp5
a(S'Sarge'
tp6
a(S'Patric'
tp7
a(S'Hartley'
tp8
a(S'Teador'
tp9
a(S'Leonerd'
tp10
a(S'Bart'
tp11
a(S'Ricard'
tp12
a(S'Walton'
tp13
a(S'Locke'
tp14
a(S'Arvie'
tp15
a(S'Wyn'
tp16
a(S'Tobiah'
tp17
a(S'Case'
tp18
a(S'Verge'
tp19
a(S'Maurise'
tp20
a(S'Urbano'
tp21
a(S'Damian'
tp22
a(S'Shannan'
tp23
a(S'Blair'
tp24
a(S'Juanita'
tp25
a(S'Washington'
tp26
a(S'Kris'
tp27
a(S'Plato'
tp28
a(S'Obie'
tp29
a(S'Bronson'
tp30
a(S'Axel'
tp31
a(S'Inglebert'
tp32
a(S'Ruby'
tp33
a(S'Stuart'
tp34
a(S'Lemuel'
tp35
a(S'Avi'
tp36
a(S'Winifield'
tp37
a(S'Victor'
tp38
a(S'Hyman'
tp39
a(S'Umberto'
tp40
a(S'Marcus'
tp41
a(S'Morly'
tp42
a(S'Etienne'
tp43
a(S'Winn'
tp44
a(S'Adolfo'
tp45
a(S'Wilmar'
tp46
a(S'Kareem'
tp47
a(S'Abdel'
tp48
a(S'Adolph'
tp49
a(S'Kennedy'
tp50
a(S'Reggis'
tp51
a(S'Nico'
tp52
a(S'Nathanial'
tp53
a(S'Randolph'
tp54
a(S'Yaakov'
tp55
a(S'Davidde'
tp56
a(S'Gonzales'
tp57
a(S'Artur'
tp58
a(S'Cain'
tp59
a(S'Joe'
tp60
a(S'Oren'
tp61
a(S'Allan'
tp62
a(S'Armand'
tp63
a(S'Reynold'
tp64
a(S'Witty'
tp65
a(S'Gerold'
tp66
a(S'Isador'
tp67
a(S'Hobart'
tp68
a(S'Greg'
tp69
a(S'Aamir'
tp70
a(S'Moises'
tp71
a(S'Lorrie'
tp72
a(S'Saxon'
tp73
a(S'Weider'
tp74
a(S'Ellsworth'
tp75
a(S'Vergil'
tp76
a(S'Sholom'
tp77
a(S'Beaufort'
tp78
a(S'Lee'
tp79
a(S'Gerry'
tp80
a(S'Hodge'
tp81
a(S'Sauncho'
tp82
a(S'Quillan'
tp83
a(S'Shep'
tp84
a(S'Kurt'
tp85
a(S'Lloyd'
tp86
a(S'Sutton'
tp87
a(S'Griffin'
tp88
a(S'Gustavo'
tp89
a(S'Egbert'
tp90
a(S'Trey'
tp91
a(S'Emerson'
tp92
a(S'Roger'
tp93
a(S'Caesar'
tp94
a(S'Cletus'
tp95
a(S'Raimund'
tp96
a(S'Jeramie'
tp97
a(S'Giorgio'
tp98
a(S'Arnie'
tp99
a(S'Shaun'
tp100
a(S'Zachariah'
tp101
a(S'Nate'
tp102
a(S'Tobe'
tp103
a(S'Stirling'
tp104
a(S'Matthias'
tp105
a(S'Tremayne'
tp106
a(S'Lew'
tp107
a(S'Graig'
tp108
a(S'Kelvin'
tp109
a(S'Mischa'
tp110
a(S'Uli'
tp111
a(S'Lorenzo'
tp112
a(S'Rudy'
tp113
a(S'Benji'
tp114
a(S'Stillmann'
tp115
a(S'Bailie'
tp116
a(S'Timothee'
tp117
a(S'Hagan'
tp118
a(S'Gearard'
tp119
a(S'Upton'
tp120
a(S'Randolf'
tp121
a(S'Phil'
tp122
a(S'Durand'
tp123
a(S'Fernando'
tp124
a(S'Tanny'
tp125
a(S'Barth'
tp126
a(S'Taber'
tp127
a(S'Hale'
tp128
a(S'Denny'
tp129
a(S'Fletcher'
tp130
a(S'Huey'
tp131
a(S'Gaspar'
tp132
a(S'Rahul'
tp133
a(S'Stern'
tp134
a(S'Hamish'
tp135
a(S'Maury'
tp136
a(S'Domenico'
tp137
a(S'Waylon'
tp138
a(S'Graeme'
tp139
a(S'Josef'
tp140
a(S'Mattie'
tp141
a(S'Byron'
tp142
a(S'Wood'
tp143
a(S'Bubba'
tp144
a(S'Lambert'
tp145
a(S'Morgan'
tp146
a(S'Antonino'
tp147
a(S'Kristian'
tp148
a(S'Howie'
tp149
a(S'Harvey'
tp150
a(S'Sylvester'
tp151
a(S'Geri'
tp152
a(S'Gay'
tp153
a(S'Filmore'
tp154
a(S'Geoff'
tp155
a(S'Ramsey'
tp156
a(S'Shamus'
tp157
a(S'Thorsten'
tp158
a(S'Lemmie'
tp159
a(S'Osborn'
tp160
a(S'Ben'
tp161
a(S'Alec'
tp162
a(S'Huntlee'
tp163
a(S'Henrik'
tp164
a(S'Heathcliff'
tp165
a(S'Jim'
tp166
a(S'Kurtis'
tp167
a(S'Flin'
tp168
a(S'Chaddie'
tp169
a(S'Marlowe'
tp170
a(S'Bert'
tp171
a(S'Spiros'
tp172
a(S'Mayor'
tp173
a(S'Nickolas'
tp174
a(S'Ronald'
tp175
a(S'Alic'
tp176
a(S'Domenic'
tp177
a(S'Rajeev'
tp178
a(S'Gustaf'
tp179
a(S'Chuck'
tp180
a(S'Rolfe'
tp181
a(S'Terrill'
tp182
a(S'Halvard'
tp183
a(S'Alan'
tp184
a(S'Kendal'
tp185
a(S'Nikolai'
tp186
a(S'Raphael'
tp187
a(S'Laurens'
tp188
a(S'Dom'
tp189
a(S'Elden'
tp190
a(S'Mohan'
tp191
a(S'Michale'
tp192
a(S'Rupert'
tp193
a(S'Mike'
tp194
a(S'Barnaby'
tp195
a(S'Mohamed'
tp196
a(S'Thor'
tp197
a(S'Sigfrid'
tp198
a(S'Neall'
tp199
a(S'Elmore'
tp200
a(S'Tirrell'
tp201
a(S'Clayborne'
tp202
a(S'Sargent'
tp203
a(S'Bernie'
tp204
a(S'Archibold'
tp205
a(S'Walker'
tp206
a(S'Broderick'
tp207
a(S'Raymund'
tp208
a(S'Ulick'
tp209
a(S'Herold'
tp210
a(S'Micky'
tp211
a(S'Forrester'
tp212
a(S'Clemmie'
tp213
a(S'Traver'
tp214
a(S'Binky'
tp215
a(S'Morton'
tp216
a(S'Urban'
tp217
a(S'Nahum'
tp218
a(S'George'
tp219
a(S'Ron'
tp220
a(S'Rodrick'
tp221
a(S'Barton'
tp222
a(S'Godfrey'
tp223
a(S'Lindsey'
tp224
a(S'Temple'
tp225
a(S'Rolando'
tp226
a(S'Craig'
tp227
a(S'Ricki'
tp228
a(S'Goose'
tp229
a(S'Richard'
tp230
a(S'Hayden'
tp231
a(S'Park'
tp232
a(S'Patrice'
tp233
a(S'Connolly'
tp234
a(S'Barron'
tp235
a(S'Valentine'
tp236
a(S'Ethan'
tp237
a(S'Salvatore'
tp238
a(S'Ikey'
tp239
a(S'Bertram'
tp240
a(S'Cobby'
tp241
a(S'Joab'
tp242
a(S'Pail'
tp243
a(S'Tre'
tp244
a(S'Harris'
tp245
a(S'Basil'
tp246
a(S'Johan'
tp247
a(S'Elvin'
tp248
a(S'Nolan'
tp249
a(S'Bary'
tp250
a(S'Wyndham'
tp251
a(S'Yard'
tp252
a(S'Neddie'
tp253
a(S'Jens'
tp254
a(S'Skylar'
tp255
a(S'Wally'
tp256
a(S'Stearne'
tp257
a(S'Tabb'
tp258
a(S'Wiatt'
tp259
a(S'Lucian'
tp260
a(S'Nickie'
tp261
a(S'Giacomo'
tp262
a(S'Jodi'
tp263
a(S'Brendan'
tp264
a(S'Clifford'
tp265
a(S'Giovanne'
tp266
a(S'Tymon'
tp267
a(S'Antoni'
tp268
a(S'Pepillo'
tp269
a(S'Rudd'
tp270
a(S'Angelico'
tp271
a(S'Ira'
tp272
a(S'Dominick'
tp273
a(S'Donn'
tp274
a(S'Francois'
tp275
a(S'Tudor'
tp276
a(S'Gary'
tp277
a(S'Ramesh'
tp278
a(S'Bartolemo'
tp279
a(S'Rawley'
tp280
a(S'Siegfried'
tp281
a(S'Sidney'
tp282
a(S'Renard'
tp283
a(S'Hailey'
tp284
a(S'Winton'
tp285
a(S'Jeffrey'
tp286
a(S'Vinnie'
tp287
a(S'Vern'
tp288
a(S'Sibyl'
tp289
a(S'Fran'
tp290
a(S'Pietro'
tp291
a(S'Isadore'
tp292
a(S'Zary'
tp293
a(S'Quinn'
tp294
a(S'Jessie'
tp295
a(S'Schuyler'
tp296
a(S'Louie'
tp297
a(S'Osgood'
tp298
a(S'Higgins'
tp299
a(S'Istvan'
tp300
a(S'Nester'
tp301
a(S'Mead'
tp302
a(S'Sanders'
tp303
a(S'Dominic'
tp304
a(S'Zane'
tp305
a(S'Ulric'
tp306
a(S'Meredeth'
tp307
a(S'Wain'
tp308
a(S'Rudolfo'
tp309
a(S'Roderick'
tp310
a(S'Barny'
tp311
a(S'Willmott'
tp312
a(S'Dorian'
tp313
a(S'Darren'
tp314
a(S'Erek'
tp315
a(S'Merry'
tp316
a(S'Cristopher'
tp317
a(S'Alfonso'
tp318
a(S'Brock'
tp319
a(S'Oberon'
tp320
a(S'Jason'
tp321
a(S'Oral'
tp322
a(S'Iggy'
tp323
a(S'Rollins'
tp324
a(S'Janus'
tp325
a(S'Virgil'
tp326
a(S'Brooks'
tp327
a(S'Terence'
tp328
a(S'Paul'
tp329
a(S'Laird'
tp330
a(S'Goddard'
tp331
a(S'Lemmy'
tp332
a(S'Duffy'
tp333
a(S'Dimitri'
tp334
a(S'Rudolph'
tp335
a(S'Marmaduke'
tp336
a(S'Frans'
tp337
a(S'Alston'
tp338
a(S'Guillaume'
tp339
a(S'Odysseus'
tp340
a(S'Skell'
tp341
a(S'Mason'
tp342
a(S'Sidnee'
tp343
a(S'Casper'
tp344
a(S'Pepito'
tp345
a(S'Worthy'
tp346
a(S'Neville'
tp347
a(S'Oliver'
tp348
a(S'Justin'
tp349
a(S'Joey'
tp350
a(S'Angie'
tp351
a(S'Shurlocke'
tp352
a(S'Morse'
tp353
a(S'Irving'
tp354
a(S'Miguel'
tp355
a(S'Hasheem'
tp356
a(S'Zeb'
tp357
a(S'Kent'
tp358
a(S'Hezekiah'
tp359
a(S'Weylin'
tp360
a(S'Rad'
tp361
a(S'Immanuel'
tp362
a(S'Constantin'
tp363
a(S'Munmro'
tp364
a(S'Yankee'
tp365
a(S'Sawyer'
tp366
a(S'Menard'
tp367
a(S'Gabriell'
tp368
a(S'Blaine'
tp369
a(S'Glen'
tp370
a(S'Phineas'
tp371
a(S'Titos'
tp372
a(S'Deryl'
tp373
a(S'Zebadiah'
tp374
a(S'Walther'
tp375
a(S'Lewis'
tp376
a(S'Gardner'
tp377
a(S'Everett'
tp378
a(S'Paton'
tp379
a(S'Solomon'
tp380
a(S'Burton'
tp381
a(S'Niki'
tp382
a(S'Dickie'
tp383
a(S'Jeffery'
tp384
a(S'Hewett'
tp385
a(S'Mylo'
tp386
a(S'Weber'
tp387
a(S'Terri'
tp388
a(S'Shay'
tp389
a(S'Neal'
tp390
a(S'Calhoun'
tp391
a(S'Stephen'
tp392
a(S'Warner'
tp393
a(S'Donal'
tp394
a(S'Gabe'
tp395
a(S'Spencer'
tp396
a(S'Michail'
tp397
a(S'Oscar'
tp398
a(S'Olaf'
tp399
a(S'Hercule'
tp400
a(S'Rolf'
tp401
a(S'Jules'
tp402
a(S'Thebault'
tp403
a(S'Waldo'
tp404
a(S'Pen'
tp405
a(S'Jeffry'
tp406
a(S'Jean-Paul'
tp407
a(S'Eugen'
tp408
a(S'Vlad'
tp409
a(S'Wallas'
tp410
a(S'Brad'
tp411
a(S'Major'
tp412
a(S'Paddie'
tp413
a(S'Brewster'
tp414
a(S'Glynn'
tp415
a(S'Wynn'
tp416
a(S'Ty'
tp417
a(S'West'
tp418
a(S'Lon'
tp419
a(S'Rockwell'
tp420
a(S'Brandy'
tp421
a(S'Kalle'
tp422
a(S'Hans'
tp423
a(S'Grover'
tp424
a(S'Kaleb'
tp425
a(S'Walter'
tp426
a(S'Pablo'
tp427
a(S'Wilfrid'
tp428
a(S'Chadd'
tp429
a(S'Tarrance'
tp430
a(S'Vernor'
tp431
a(S'Ephram'
tp432
a(S'Abdulkarim'
tp433
a(S'Theo'
tp434
a(S'Konstantin'
tp435
a(S'Aube'
tp436
a(S'Orton'
tp437
a(S'Abbott'
tp438
a(S'Pattie'
tp439
a(S'Huntley'
tp440
a(S'Kevin'
tp441
a(S'Christos'
tp442
a(S'Erin'
tp443
a(S'Reggy'
tp444
a(S'Ollie'
tp445
a(S'Avraham'
tp446
a(S'Otto'
tp447
a(S'Arie'
tp448
a(S'Connor'
tp449
a(S'Thaxter'
tp450
a(S'Rock'
tp451
a(S'Stefan'
tp452
a(S'Bennie'
tp453
a(S'Sancho'
tp454
a(S'Meade'
tp455
a(S'Leonhard'
tp456
a(S'Baxter'
tp457
a(S'Wilden'
tp458
a(S'Jermaine'
tp459
a(S'Benedict'
tp460
a(S'Vick'
tp461
a(S'Merell'
tp462
a(S'Hunt'
tp463
a(S'Sam'
tp464
a(S'Abbey'
tp465
a(S'Pate'
tp466
a(S'Tore'
tp467
a(S'Ozzie'
tp468
a(S'Ephrayim'
tp469
a(S'Shawn'
tp470
a(S'Tuckie'
tp471
a(S'Blayne'
tp472
a(S'Hamid'
tp473
a(S'Bartlet'
tp474
a(S'Jordon'
tp475
a(S'Tyrone'
tp476
a(S'Thorny'
tp477
a(S'Pip'
tp478
a(S'Giavani'
tp479
a(S'Peirce'
tp480
a(S'Darrick'
tp481
a(S'Simon'
tp482
a(S'Dario'
tp483
a(S'Anton'
tp484
a(S'Toddy'
tp485
a(S'Nigel'
tp486
a(S'Templeton'
tp487
a(S'Antonius'
tp488
a(S'Ahmad'
tp489
a(S'Elliott'
tp490
a(S'Earl'
tp491
a(S'Gasper'
tp492
a(S'Burke'
tp493
a(S'Barclay'
tp494
a(S'Bryn'
tp495
a(S'Isaak'
tp496
a(S'Freemon'
tp497
a(S'Ted'
tp498
a(S'Teddy'
tp499
a(S'Demetris'
tp500
a(S'Joshua'
tp501
a(S'Barris'
tp502
a(S'Tarrant'
tp503
a(S'Alvin'
tp504
a(S'Otes'
tp505
a(S'Raj'
tp506
a(S'Tucky'
tp507
a(S'Lin'
tp508
a(S'Christophe'
tp509
a(S'Zachary'
tp510
a(S'Redford'
tp511
a(S'Marv'
tp512
a(S'Garrot'
tp513
a(S'Robinson'
tp514
a(S'Gerri'
tp515
a(S'Bay'
tp516
a(S'Quigly'
tp517
a(S'Ephraim'
tp518
a(S'Bryan'
tp519
a(S'King'
tp520
a(S'Roni'
tp521
a(S'Davey'
tp522
a(S'Broderic'
tp523
a(S'Bartolomeo'
tp524
a(S'Baily'
tp525
a(S'French'
tp526
a(S'Fleming'
tp527
a(S'Rourke'
tp528
a(S'Granville'
tp529
a(S'Temp'
tp530
a(S'Collin'
tp531
a(S'Rudyard'
tp532
a(S'Godfry'
tp533
a(S'Troy'
tp534
a(S'Roderich'
tp535
a(S'Orson'
tp536
a(S'Ryan'
tp537
a(S'Trent'
tp538
a(S'Karsten'
tp539
a(S'Kendrick'
tp540
a(S'Ace'
tp541
a(S'Marc'
tp542
a(S'Archibald'
tp543
a(S'Sig'
tp544
a(S'Franklin'
tp545
a(S'Martin'
tp546
a(S'Thurstan'
tp547
a(S'Raymond'
tp548
a(S'Terencio'
tp549
a(S'Jess'
tp550
a(S'Lionello'
tp551
a(S'Ivan'
tp552
a(S'Aguinaldo'
tp553
a(S'Garv'
tp554
a(S'Wat'
tp555
a(S'Wayne'
tp556
a(S'Kirby'
tp557
a(S'Evelyn'
tp558
a(S'Hiram'
tp559
a(S'Ferdy'
tp560
a(S'Thorpe'
tp561
a(S'Penny'
tp562
a(S'Mendel'
tp563
a(S'Alain'
tp564
a(S'Simmonds'
tp565
a(S'Rodd'
tp566
a(S'Terrance'
tp567
a(S'Kam'
tp568
a(S'Chaddy'
tp569
a(S'Hamlet'
tp570
a(S'Turner'
tp571
a(S'Johny'
tp572
a(S'Fons'
tp573
a(S'Maurie'
tp574
a(S'Gustav'
tp575
a(S'Damien'
tp576
a(S'Gerald'
tp577
a(S'Flynn'
tp578
a(S'Dewey'
tp579
a(S'Giffer'
tp580
a(S'Trace'
tp581
a(S'Chet'
tp582
a(S'Mohammed'
tp583
a(S'Jeff'
tp584
a(S'Carlton'
tp585
a(S'Harvard'
tp586
a(S'Rollin'
tp587
a(S'Montgomery'
tp588
a(S'Somerset'
tp589
a(S'Jonathon'
tp590
a(S'Hannibal'
tp591
a(S'Saul'
tp592
a(S'Samuel'
tp593
a(S'Ruddie'
tp594
a(S'Tait'
tp595
a(S'Elmer'
tp596
a(S'Ned'
tp597
a(S'Gerrit'
tp598
a(S'Barri'
tp599
a(S'Carl'
tp600
a(S'Todd'
tp601
a(S'Jerald'
tp602
a(S'Jeremy'
tp603
a(S'Olag'
tp604
a(S'Laurence'
tp605
a(S'Foster'
tp606
a(S'Welby'
tp607
a(S'Layton'
tp608
a(S'Vinny'
tp609
a(S'Worthington'
tp610
a(S'Sascha'
tp611
a(S'Shalom'
tp612
a(S'Salim'
tp613
a(S'Karel'
tp614
a(S'Tedie'
tp615
a(S'Shea'
tp616
a(S'Denis'
tp617
a(S'Ricky'
tp618
a(S'Ken'
tp619
a(S'Norris'
tp620
a(S'Harlin'
tp621
a(S'Milt'
tp622
a(S'Stearn'
tp623
a(S'Harv'
tp624
a(S'Tracy'
tp625
a(S'Adam'
tp626
a(S'Prasad'
tp627
a(S'Myles'
tp628
a(S'Filipe'
tp629
a(S'Ernesto'
tp630
a(S'Fletch'
tp631
a(S'Dante'
tp632
a(S'Davis'
tp633
a(S'Westbrooke'
tp634
a(S'Gil'
tp635
a(S'Connie'
tp636
a(S'Urbain'
tp637
a(S'Renaud'
tp638
a(S'Duffie'
tp639
a(S'Niles'
tp640
a(S'Jory'
tp641
a(S'Vale'
tp642
a(S'Price'
tp643
a(S'Allah'
tp644
a(S'Witold'
tp645
a(S'Zechariah'
tp646
a(S'Enoch'
tp647
a(S'Ravil'
tp648
a(S'Alister'
tp649
a(S'Sammy'
tp650
a(S'Renato'
tp651
a(S'Siddhartha'
tp652
a(S'Ian'
tp653
a(S'Sigfried'
tp654
a(S'Byram'
tp655
a(S'Sal'
tp656
a(S'Keenan'
tp657
a(S'Jereme'
tp658
a(S'Devon'
tp659
a(S'Christorpher'
tp660
a(S'Ferdinand'
tp661
a(S'Shlomo'
tp662
a(S'Demosthenis'
tp663
a(S'Roderic'
tp664
a(S'Christof'
tp665
a(S'Lincoln'
tp666
a(S'Reynolds'
tp667
a(S'Barney'
tp668
a(S'Townsend'
tp669
a(S'Rob'
tp670
a(S'Magnus'
tp671
a(S'Moishe'
tp672
a(S'Noel'
tp673
a(S'Leopold'
tp674
a(S'Monte'
tp675
a(S'Zacharia'
tp676
a(S'Robert'
tp677
a(S'Darin'
tp678
a(S'Chadwick'
tp679
a(S'Fitzgerald'
tp680
a(S'Gomer'
tp681
a(S'Joachim'
tp682
a(S'Gallagher'
tp683
a(S'Percival'
tp684
a(S'Izaak'
tp685
a(S'Linoel'
tp686
a(S'Thorn'
tp687
a(S'Caspar'
tp688
a(S'Ethelred'
tp689
a(S'Van'
tp690
a(S'Friedrich'
tp691
a(S'Darth'
tp692
a(S'Bobby'
tp693
a(S'Marsh'
tp694
a(S'Husein'
tp695
a(S'Elias'
tp696
a(S'Scotti'
tp697
a(S'Hilbert'
tp698
a(S'Ole'
tp699
a(S'Torey'
tp700
a(S'Ev'
tp701
a(S'Mortimer'
tp702
a(S'Allin'
tp703
a(S'Antoine'
tp704
a(S'Martainn'
tp705
a(S'Silvain'
tp706
a(S'Alf'
tp707
a(S'Giovanni'
tp708
a(S'Shurwood'
tp709
a(S'Russell'
tp710
a(S'Paulo'
tp711
a(S'Chan'
tp712
a(S'Howard'
tp713
a(S'Ripley'
tp714
a(S'Goddart'
tp715
a(S'Olivier'
tp716
a(S'Jesse'
tp717
a(S'Willis'
tp718
a(S'Hashim'
tp719
a(S'Jermayne'
tp720
a(S'Dabney'
tp721
a(S'Manuel'
tp722
a(S'Ismail'
tp723
a(S'Tab'
tp724
a(S'Claybourne'
tp725
a(S'Irvin'
tp726
a(S'Sanford'
tp727
a(S'Jarvis'
tp728
a(S'Eberhard'
tp729
a(S'Matias'
tp730
a(S'Wells'
tp731
a(S'Sayers'
tp732
a(S'Tedman'
tp733
a(S'Vincents'
tp734
a(S'Zed'
tp735
a(S'Lester'
tp736
a(S'Shimon'
tp737
a(S'Roberto'
tp738
a(S'Petr'
tp739
a(S'Emmet'
tp740
a(S'Kenn'
tp741
a(S'Haydon'
tp742
a(S'Edgardo'
tp743
a(S'Stanwood'
tp744
a(S'Andrus'
tp745
a(S'Cyrus'
tp746
a(S'Hermy'
tp747
a(S'Tammy'
tp748
a(S'Robbert'
tp749
a(S'Kermit'
tp750
a(S'Willie'
tp751
a(S'Aub'
tp752
a(S'Srinivas'
tp753
a(S'Garcia'
tp754
a(S'Emmanuel'
tp755
a(S'Chaunce'
tp756
a(S'Jaime'
tp757
a(S'Westleigh'
tp758
a(S'Irvine'
tp759
a(S'Brant'
tp760
a(S'Hasty'
tp761
a(S'Marcellus'
tp762
a(S'Keith'
tp763
a(S'Godfree'
tp764
a(S'Rab'
tp765
a(S'Stinky'
tp766
a(S'Clarence'
tp767
a(S'Duane'
tp768
a(S'Hari'
tp769
a(S'Alejandro'
tp770
a(S'Friedric'
tp771
a(S'Winford'
tp772
a(S'Lionel'
tp773
a(S'Willy'
tp774
a(S'Erny'
tp775
a(S'Gerome'
tp776
a(S'Austin'
tp777
a(S'Uriel'
tp778
a(S'Davin'
tp779
a(S'Kingston'
tp780
a(S'Marwin'
tp781
a(S'Gilles'
tp782
a(S'Tim'
tp783
a(S'Roderigo'
tp784
a(S'Jerome'
tp785
a(S'Barthel'
tp786
a(S'Tyrus'
tp787
a(S'Mohamad'
tp788
a(S'Salman'
tp789
a(S'Gabriello'
tp790
a(S'Pierce'
tp791
a(S'Andres'
tp792
a(S'Ashley'
tp793
a(S'Patty'
tp794
a(S'Bela'
tp795
a(S'Torry'
tp796
a(S'Lyle'
tp797
a(S'Odell'
tp798
a(S'Judah'
tp799
a(S'Conan'
tp800
a(S'Fabian'
tp801
a(S'Tibold'
tp802
a(S'Cyrille'
tp803
a(S'Shadow'
tp804
a(S'Lowell'
tp805
a(S'Nichole'
tp806
a(S'Mauricio'
tp807
a(S'Agamemnon'
tp808
a(S'Judy'
tp809
a(S'Mac'
tp810
a(S'Kyle'
tp811
a(S'Penn'
tp812
a(S'Ransell'
tp813
a(S'Humphrey'
tp814
a(S'Hewie'
tp815
a(S'Vijay'
tp816
a(S'Dylan'
tp817
a(S'Anatollo'
tp818
a(S'Claire'
tp819
a(S'Oswald'
tp820
a(S'Woodrow'
tp821
a(S'Reggie'
tp822
a(S'Dawson'
tp823
a(S'Weidar'
tp824
a(S'Andrea'
tp825
a(S'Cam'
tp826
a(S'Lyn'
tp827
a(S'Gordie'
tp828
a(S'Ronny'
tp829
a(S'Carter'
tp830
a(S'Tad'
tp831
a(S'Dewitt'
tp832
a(S'Fitz'
tp833
a(S'Matteo'
tp834
a(S'Riccardo'
tp835
a(S'Christie'
tp836
a(S'Sloane'
tp837
a(S'Zachery'
tp838
a(S'Hastings'
tp839
a(S'Deane'
tp840
a(S'Fyodor'
tp841
a(S'Ignacio'
tp842
a(S'Baldwin'
tp843
a(S'Pieter'
tp844
a(S'Zeke'
tp845
a(S'Kip'
tp846
a(S'Carroll'
tp847
a(S'Emory'
tp848
a(S'Sherman'
tp849
a(S'Tynan'
tp850
a(S'Gavin'
tp851
a(S'Tiebout'
tp852
a(S'Reese'
tp853
a(S'Henry'
tp854
a(S'Madison'
tp855
a(S'Hallam'
tp856
a(S'Gregor'
tp857
a(S'Ambrosius'
tp858
a(S'Vernon'
tp859
a(S'Leighton'
tp860
a(S'Torre'
tp861
a(S'Yardley'
tp862
a(S'Javier'
tp863
a(S'Elvis'
tp864
a(S'Erwin'
tp865
a(S'Anurag'
tp866
a(S'Waite'
tp867
a(S'Rubin'
tp868
a(S'Clarance'
tp869
a(S'Lazaro'
tp870
a(S'Marve'
tp871
a(S'Demetri'
tp872
a(S'Darcy'
tp873
a(S'Chariot'
tp874
a(S'Lawerence'
tp875
a(S'Goober'
tp876
a(S'Ali'
tp877
a(S'Pearce'
tp878
a(S'Dudley'
tp879
a(S'Vibhu'
tp880
a(S'Morten'
tp881
a(S'Scarface'
tp882
a(S'Bharat'
tp883
a(S'Hersch'
tp884
a(S'Xavier'
tp885
a(S'Aditya'
tp886
a(S'Muhammad'
tp887
a(S'Broddie'
tp888
a(S'Shorty'
tp889
a(S'Windham'
tp890
a(S'Garwood'
tp891
a(S'Bud'
tp892
a(S'Ralph'
tp893
a(S'Sol'
tp894
a(S'Heath'
tp895
a(S'Thaddius'
tp896
a(S'Jerrold'
tp897
a(S'Emmy'
tp898
a(S'Manish'
tp899
a(S'Prasun'
tp900
a(S'Micah'
tp901
a(S'Corrie'
tp902
a(S'Maxwell'
tp903
a(S'Humbert'
tp904
a(S'Sheldon'
tp905
a(S'Sunny'
tp906
a(S'Olin'
tp907
a(S'Jehu'
tp908
a(S'Jakob'
tp909
a(S'Charley'
tp910
a(S'Saw'
tp911
a(S'Frederico'
tp912
a(S'Richy'
tp913
a(S'Lorne'
tp914
a(S'Walt'
tp915
a(S'Ingram'
tp916
a(S'Logan'
tp917
a(S'Ellwood'
tp918
a(S'Vito'
tp919
a(S'Stewart'
tp920
a(S'Mohammad'
tp921
a(S'Dimitrios'
tp922
a(S'Nevil'
tp923
a(S'Sansone'
tp924
a(S'Dino'
tp925
a(S'Hogan'
tp926
a(S'Malcolm'
tp927
a(S'Vinod'
tp928
a(S'Rickie'
tp929
a(S'Hamilton'
tp930
a(S'Ave'
tp931
a(S'Billie'
tp932
a(S'Adrian'
tp933
a(S'Garvy'
tp934
a(S'Jeremias'
tp935
a(S'Zacherie'
tp936
a(S'Leigh'
tp937
a(S'Wash'
tp938
a(S'Wit'
tp939
a(S'Esau'
tp940
a(S'Farley'
tp941
a(S'Xymenes'
tp942
a(S'Rowland'
tp943
a(S'Zelig'
tp944
a(S'Murray'
tp945
a(S'Ragnar'
tp946
a(S'Bernard'
tp947
a(S'Roman'
tp948
a(S'Darian'
tp949
a(S'Alasdair'
tp950
a(S'Leonidas'
tp951
a(S'Eben'
tp952
a(S'Hendrick'
tp953
a(S'Barry'
tp954
a(S'Xenos'
tp955
a(S'Elliot'
tp956
a(S'Percy'
tp957
a(S'Reginald'
tp958
a(S'Wendall'
tp959
a(S'Vladamir'
tp960
a(S'Ashton'
tp961
a(S'Jean-Luc'
tp962
a(S'Tye'
tp963
a(S'Rudie'
tp964
a(S'Carleigh'
tp965
a(S'Kellen'
tp966
a(S'Cyrillus'
tp967
a(S'Sting'
tp968
a(S'Sasha'
tp969
a(S'Peter'
tp970
a(S'Kristopher'
tp971
a(S'Marty'
tp972
a(S'Gale'
tp973
a(S'Fox'
tp974
a(S'Standford'
tp975
a(S'Wakefield'
tp976
a(S'Hartwell'
tp977
a(S'Bennet'
tp978
a(S'Lucius'
tp979
a(S'Partha'
tp980
a(S'Tanney'
tp981
a(S'Dane'
tp982
a(S'Joseph'
tp983
a(S'Udall'
tp984
a(S'Judith'
tp985
a(S'Reinhard'
tp986
a(S'Durward'
tp987
a(S'Tremain'
tp988
a(S'Merle'
tp989
a(S'Bennett'
tp990
a(S'Skyler'
tp991
a(S'Blare'
tp992
a(S'Maison'
tp993
a(S'Thornie'
tp994
a(S'Mateo'
tp995
a(S'Gaven'
tp996
a(S'Boris'
tp997
a(S'Kaiser'
tp998
a(S'Rickey'
tp999
a(S'Sinclare'
tp1000
a(S'Gustavus'
tp1001
a(S'Darby'
tp1002
a(S'Mika'
tp1003
a(S'Charleton'
tp1004
a(S'Ernest'
tp1005
a(S'Thedric'
tp1006
a(S'Gene'
tp1007
a(S'Harwell'
tp1008
a(S'Leif'
tp1009
a(S'Ambrose'
tp1010
a(S'Hagen'
tp1011
a(S'Raynard'
tp1012
a(S'Laurent'
tp1013
a(S'Isa'
tp1014
a(S'Len'
tp1015
a(S'Theodoric'
tp1016
a(S'Rickard'
tp1017
a(S'Hart'
tp1018
a(S'Weslie'
tp1019
a(S'Cal'
tp1020
a(S'Spence'
tp1021
a(S'Zalman'
tp1022
a(S'Virgilio'
tp1023
a(S'Tucker'
tp1024
a(S'Crawford'
tp1025
a(S'Lesley'
tp1026
a(S'Lothar'
tp1027
a(S'Aldric'
tp1028
a(S'Solly'
tp1029
a(S'Bob'
tp1030
a(S'Ronen'
tp1031
a(S'Nicolas'
tp1032
a(S'Buck'
tp1033
a(S'Clem'
tp1034
a(S'Mattias'
tp1035
a(S'Hayward'
tp1036
a(S'Merwin'
tp1037
a(S'Shem'
tp1038
a(S'Kelwin'
tp1039
a(S'Maxim'
tp1040
a(S'Zollie'
tp1041
a(S'Davoud'
tp1042
a(S'Renado'
tp1043
a(S'Quill'
tp1044
a(S'Stig'
tp1045
a(S'Tristan'
tp1046
a(S'Arther'
tp1047
a(S'Fergus'
tp1048
a(S'Arnold'
tp1049
a(S'Arvind'
tp1050
a(S'Thaine'
tp1051
a(S'Zippy'
tp1052
a(S'Judas'
tp1053
a(S'Vance'
tp1054
a(S'Hadrian'
tp1055
a(S'Hymie'
tp1056
a(S'Gerard'
tp1057
a(S'Che'
tp1058
a(S'Avrom'
tp1059
a(S'Tannie'
tp1060
a(S'Rod'
tp1061
a(S'Grant'
tp1062
a(S'Jacob'
tp1063
a(S'Alphonse'
tp1064
a(S'Archon'
tp1065
a(S'Arvin'
tp1066
a(S'Chev'
tp1067
a(S'Verne'
tp1068
a(S'Micheil'
tp1069
a(S'Derby'
tp1070
a(S'Niven'
tp1071
a(S'Andri'
tp1072
a(S'Caldwell'
tp1073
a(S'Cody'
tp1074
a(S'Tito'
tp1075
a(S'Conrad'
tp1076
a(S'Waylin'
tp1077
a(S'Anatole'
tp1078
a(S'Pennie'
tp1079
a(S'Rufus'
tp1080
a(S'Bear'
tp1081
a(S'Henderson'
tp1082
a(S'Val'
tp1083
a(S'Herculie'
tp1084
a(S'Sebastiano'
tp1085
a(S'Horatius'
tp1086
a(S'Roice'
tp1087
a(S'Sterling'
tp1088
a(S'Ebenezer'
tp1089
a(S'James'
tp1090
a(S'Lamar'
tp1091
a(S'Herman'
tp1092
a(S'Ingemar'
tp1093
a(S'Noam'
tp1094
a(S'Cliff'
tp1095
a(S'Rainer'
tp1096
a(S'Skipton'
tp1097
a(S'Alden'
tp1098
a(S'Jerry'
tp1099
a(S'Carmine'
tp1100
a(S'Norton'
tp1101
a(S'Randal'
tp1102
a(S'Merill'
tp1103
a(S'Ibrahim'
tp1104
a(S'Mortie'
tp1105
a(S'Oswell'
tp1106
a(S'Mickie'
tp1107
a(S'Freeman'
tp1108
a(S'Darien'
tp1109
a(S'Cobbie'
tp1110
a(S'Jotham'
tp1111
a(S'Art'
tp1112
a(S'Vaughan'
tp1113
a(S'August'
tp1114
a(S'Voltaire'
tp1115
a(S'Derick'
tp1116
a(S'Luke'
tp1117
a(S'Darrell'
tp1118
a(S'Ez'
tp1119
a(S'Rex'
tp1120
a(S'Finley'
tp1121
a(S'Wyatt'
tp1122
a(S'Bryon'
tp1123
a(S'Spiro'
tp1124
a(S'Ambrosi'
tp1125
a(S'Forest'
tp1126
a(S'Lance'
tp1127
a(S'Dani'
tp1128
a(S'Frederik'
tp1129
a(S'Sid'
tp1130
a(S'Jeffie'
tp1131
a(S'Sandy'
tp1132
a(S'Kendall'
tp1133
a(S'Skip'
tp1134
a(S'Corwin'
tp1135
a(S'Christoph'
tp1136
a(S'Cy'
tp1137
a(S'Jo'
tp1138
a(S'Jude'
tp1139
a(S'Moses'
tp1140
a(S'Paige'
tp1141
a(S'Aristotle'
tp1142
a(S'Carlyle'
tp1143
a(S'Travers'
tp1144
a(S'Dwight'
tp1145
a(S'Horace'
tp1146
a(S'Trev'
tp1147
a(S'Arvy'
tp1148
a(S'Patel'
tp1149
a(S'Hans-Peter'
tp1150
a(S'Andros'
tp1151
a(S'Willem'
tp1152
a(S'Cole'
tp1153
a(S'Kirk'
tp1154
a(S'Florian'
tp1155
a(S'Tiler'
tp1156
a(S'Abby'
tp1157
a(S'Marlon'
tp1158
a(S'Cris'
tp1159
a(S'Whittaker'
tp1160
a(S'Gino'
tp1161
a(S'Arnoldo'
tp1162
a(S'Ambros'
tp1163
a(S'Travis'
tp1164
a(S'Reube'
tp1165
a(S'Lazar'
tp1166
a(S'Praneetf'
tp1167
a(S'Doyle'
tp1168
a(S'Angelo'
tp1169
a(S'Whitaker'
tp1170
a(S'Kraig'
tp1171
a(S'Martie'
tp1172
a(S'Abram'
tp1173
a(S'Jackson'
tp1174
a(S'Fraser'
tp1175
a(S'Meryl'
tp1176
a(S'Fremont'
tp1177
a(S'Norbert'
tp1178
a(S'Teodoro'
tp1179
a(S'Randy'
tp1180
a(S'Jeremie'
tp1181
a(S'Mose'
tp1182
a(S'Herby'
tp1183
a(S'Shelton'
tp1184
a(S'Kostas'
tp1185
a(S'Sutherland'
tp1186
a(S'Tom'
tp1187
a(S'Alwin'
tp1188
a(S'Nathanael'
tp1189
a(S'Nealy'
tp1190
a(S'Nikki'
tp1191
a(S'Steffen'
tp1192
a(S'Maurice'
tp1193
a(S'Sollie'
tp1194
a(S'Mahesh'
tp1195
a(S'Toddie'
tp1196
a(S'Lane'
tp1197
a(S'Page'
tp1198
a(S'Chanderjit'
tp1199
a(S'Chip'
tp1200
a(S'Jeb'
tp1201
a(S'Kevan'
tp1202
a(S'Maddie'
tp1203
a(S'Allen'
tp1204
a(S'Raleigh'
tp1205
a(S'Sydney'
tp1206
a(S'Stafford'
tp1207
a(S'Jerrome'
tp1208
a(S'Garvey'
tp1209
a(S'Filbert'
tp1210
a(S'Mace'
tp1211
a(S'Nils'
tp1212
a(S'Haskel'
tp1213
a(S'Aleks'
tp1214
a(S'Ignatius'
tp1215
a(S'Smitty'
tp1216
a(S'Bruce'
tp1217
a(S'Lucas'
tp1218
a(S'Weston'
tp1219
a(S'Bartholemy'
tp1220
a(S'Wittie'
tp1221
a(S'Henri'
tp1222
a(S'Garry'
tp1223
a(S'Forbes'
tp1224
a(S'Lyndon'
tp1225
a(S'Abel'
tp1226
a(S'Douglass'
tp1227
a(S'Graham'
tp1228
a(S'Garth'
tp1229
a(S'Raoul'
tp1230
a(S'Christian'
tp1231
a(S'Franklyn'
tp1232
a(S'Ludvig'
tp1233
a(S'Rochester'
tp1234
a(S'Lazarus'
tp1235
a(S'Erastus'
tp1236
a(S'Paco'
tp1237
a(S'Amery'
tp1238
a(S'Charlton'
tp1239
a(S'Carsten'
tp1240
a(S'Markos'
tp1241
a(S'Guido'
tp1242
a(S'Freddy'
tp1243
a(S'Guthrie'
tp1244
a(S'Isidore'
tp1245
a(S'Jephthah'
tp1246
a(S'Neale'
tp1247
a(S'Gifford'
tp1248
a(S'Carlin'
tp1249
a(S'Terrel'
tp1250
a(S'Cesar'
tp1251
a(S'Averell'
tp1252
a(S'Boniface'
tp1253
a(S'Kristos'
tp1254
a(S'Darrin'
tp1255
a(S'Reza'
tp1256
a(S'Lay'
tp1257
a(S'Niccolo'
tp1258
a(S'Tadeas'
tp1259
a(S'Penrod'
tp1260
a(S'Perceval'
tp1261
a(S'Kingsly'
tp1262
a(S'Krishna'
tp1263
a(S'Schroeder'
tp1264
a(S'Waring'
tp1265
a(S'Matthew'
tp1266
a(S'Dietrich'
tp1267
a(S'Socrates'
tp1268
a(S'Quigman'
tp1269
a(S'Bearnard'
tp1270
a(S'Friedrick'
tp1271
a(S'Rory'
tp1272
a(S'Beale'
tp1273
a(S'Cory'
tp1274
a(S'Julius'
tp1275
a(S'Aram'
tp1276
a(S'Fonsie'
tp1277
a(S'Welbie'
tp1278
a(S'Osborne'
tp1279
a(S'Galen'
tp1280
a(S'Patin'
tp1281
a(S'Bret'
tp1282
a(S'Gail'
tp1283
a(S'Luther'
tp1284
a(S'Tobin'
tp1285
a(S'Burl'
tp1286
a(S'Yank'
tp1287
a(S'Erasmus'
tp1288
a(S'Harman'
tp1289
a(S'Olle'
tp1290
a(S'Artie'
tp1291
a(S'Grace'
tp1292
a(S'Guillermo'
tp1293
a(S'Ignacius'
tp1294
a(S'Wald'
tp1295
a(S'Dennis'
tp1296
a(S'Morlee'
tp1297
a(S'Vin'
tp1298
a(S'Ashish'
tp1299
a(S'Barn'
tp1300
a(S'Millicent'
tp1301
a(S'Tabby'
tp1302
a(S'Garey'
tp1303
a(S'Pepe'
tp1304
a(S'Hassan'
tp1305
a(S'Samson'
tp1306
a(S'Emmett'
tp1307
a(S'Sparky'
tp1308
a(S'Godwin'
tp1309
a(S'Izak'
tp1310
a(S'Jean-Christophe'
tp1311
a(S'Siward'
tp1312
a(S'Cameron'
tp1313
a(S'Nevile'
tp1314
a(S'Wilmer'
tp1315
a(S'Bobbie'
tp1316
a(S'Russel'
tp1317
a(S'Davide'
tp1318
a(S'Clive'
tp1319
a(S'Emile'
tp1320
a(S'Garp'
tp1321
a(S'Sayres'
tp1322
a(S'Stanleigh'
tp1323
a(S'Seth'
tp1324
a(S'Kermie'
tp1325
a(S'Westley'
tp1326
a(S'Salomone'
tp1327
a(S'Christofer'
tp1328
a(S'Edgar'
tp1329
a(S'Lawton'
tp1330
a(S'Barrie'
tp1331
a(S'Rey'
tp1332
a(S'Radcliffe'
tp1333
a(S'Lamont'
tp1334
a(S'Aziz'
tp1335
a(S'Teodorico'
tp1336
a(S'Derek'
tp1337
a(S'Knox'
tp1338
a(S'Webb'
tp1339
a(S'Regen'
tp1340
a(S'Shell'
tp1341
a(S'Lonny'
tp1342
a(S'Rene'
tp1343
a(S'Angel'
tp1344
a(S'Chas'
tp1345
a(S'Lawrence'
tp1346
a(S'Frederic'
tp1347
a(S'Alfie'
tp1348
a(S'Wilfred'
tp1349
a(S'Thayne'
tp1350
a(S'Leland'
tp1351
a(S'Steven'
tp1352
a(S'Matt'
tp1353
a(S'Rhett'
tp1354
a(S'Georges'
tp1355
a(S'Chevy'
tp1356
a(S'Pierre'
tp1357
a(S'Tyler'
tp1358
a(S'Hanson'
tp1359
a(S'Rick'
tp1360
a(S'Haywood'
tp1361
a(S'Grove'
tp1362
a(S'Nealson'
tp1363
a(S'Sayer'
tp1364
a(S'Royce'
tp1365
a(S'Taite'
tp1366
a(S'Bradley'
tp1367
a(S'Aubrey'
tp1368
a(S'Husain'
tp1369
a(S'Reuben'
tp1370
a(S'Virgie'
tp1371
a(S'Sterne'
tp1372
a(S'Alexei'
tp1373
a(S'Hamnet'
tp1374
a(S'Geraldo'
tp1375
a(S'Derrek'
tp1376
a(S'Paolo'
tp1377
a(S'Winnie'
tp1378
a(S'Felipe'
tp1379
a(S'Dallas'
tp1380
a(S'Franz'
tp1381
a(S'Ari'
tp1382
a(S'Woody'
tp1383
a(S'Clemens'
tp1384
a(S'Chancey'
tp1385
a(S'Jameson'
tp1386
a(S'Urbanus'
tp1387
a(S'Reagan'
tp1388
a(S'Mikhail'
tp1389
a(S'Ignazio'
tp1390
a(S'Konrad'
tp1391
a(S'Jordan'
tp1392
a(S'Hamlen'
tp1393
a(S'Thibaut'
tp1394
a(S'Jonny'
tp1395
a(S'Sherwynd'
tp1396
a(S'Paddy'
tp1397
a(S'Robbie'
tp1398
a(S'Garrott'
tp1399
a(S'Arthur'
tp1400
a(S'Octavius'
tp1401
a(S'Rolland'
tp1402
a(S'Flinn'
tp1403
a(S'Ford'
tp1404
a(S'Theodore'
tp1405
a(S'Rand'
tp1406
a(S'Sturgis'
tp1407
a(S'Clair'
tp1408
a(S'Oran'
tp1409
a(S'Arturo'
tp1410
a(S'Timotheus'
tp1411
a(S'Orlando'
tp1412
a(S'Brewer'
tp1413
a(S'Fonzie'
tp1414
a(S'Rabi'
tp1415
a(S'Ajay'
tp1416
a(S'Meier'
tp1417
a(S'Terrence'
tp1418
a(S'Timothy'
tp1419
a(S'Berkeley'
tp1420
a(S'Elijah'
tp1421
a(S'Abbie'
tp1422
a(S'Wolfgang'
tp1423
a(S'Palmer'
tp1424
a(S'Shaw'
tp1425
a(S'Sheffie'
tp1426
a(S'Joaquin'
tp1427
a(S'Corey'
tp1428
a(S'Parry'
tp1429
a(S'Piet'
tp1430
a(S'Liam'
tp1431
a(S'Inigo'
tp1432
a(S'Jean-Francois'
tp1433
a(S'Leonid'
tp1434
a(S'Wallis'
tp1435
a(S'Erik'
tp1436
a(S'Stanley'
tp1437
a(S'Barnebas'
tp1438
a(S'Rabbi'
tp1439
a(S'Ellis'
tp1440
a(S'Ingelbert'
tp1441
a(S'Sergio'
tp1442
a(S'Teodor'
tp1443
a(S'Stanford'
tp1444
a(S'Tony'
tp1445
a(S'Addie'
tp1446
a(S'Sergeant'
tp1447
a(S'Benjamin'
tp1448
a(S'Francis'
tp1449
a(S'Patricio'
tp1450
a(S'Wilt'
tp1451
a(S'Quinlan'
tp1452
a(S'Tabor'
tp1453
a(S'Hugo'
tp1454
a(S'Kalman'
tp1455
a(S'Chance'
tp1456
a(S'Elwood'
tp1457
a(S'Niels'
tp1458
a(S'Ernst'
tp1459
a(S'Gamaliel'
tp1460
a(S'Eugene'
tp1461
a(S'Butch'
tp1462
a(S'Herb'
tp1463
a(S'Spike'
tp1464
a(S'Clint'
tp1465
a(S'Thain'
tp1466
a(S'Jay'
tp1467
a(S'Eddy'
tp1468
a(S'Herbert'
tp1469
a(S'Melvin'
tp1470
a(S'Nat'
tp1471
a(S'Cheston'
tp1472
a(S'Yule'
tp1473
a(S'Dell'
tp1474
a(S'Parnell'
tp1475
a(S'Garrett'
tp1476
a(S'Samuele'
tp1477
a(S'Benny'
tp1478
a(S'Luciano'
tp1479
a(S'Patsy'
tp1480
a(S'Rik'
tp1481
a(S'Greggory'
tp1482
a(S'Stanly'
tp1483
a(S'Cleland'
tp1484
a(S'Jere'
tp1485
a(S'Dan'
tp1486
a(S'Slim'
tp1487
a(S'Scot'
tp1488
a(S'Derron'
tp1489
a(S'Orazio'
tp1490
a(S'Torr'
tp1491
a(S'Meredith'
tp1492
a(S'Churchill'
tp1493
a(S'Zolly'
tp1494
a(S'Clayton'
tp1495
a(S'Johann'
tp1496
a(S'Waldemar'
tp1497
a(S'Zebulen'
tp1498
a(S'Putnam'
tp1499
a(S'Elton'
tp1500
a(S'Emil'
tp1501
a(S'Griswold'
tp1502
a(S'Godart'
tp1503
a(S'Bo'
tp1504
a(S'Philip'
tp1505
a(S'Quint'
tp1506
a(S'Phillipp'
tp1507
a(S'Shanan'
tp1508
a(S'Mickey'
tp1509
a(S'Berkley'
tp1510
a(S'Bishop'
tp1511
a(S'Hunter'
tp1512
a(S'Jon'
tp1513
a(S'Felicio'
tp1514
a(S'Edsel'
tp1515
a(S'Patrick'
tp1516
a(S'Ulises'
tp1517
a(S'Elric'
tp1518
a(S'Padraig'
tp1519
a(S'Sean'
tp1520
a(S'Jae'
tp1521
a(S'Mitchell'
tp1522
a(S'Stanislaw'
tp1523
a(S'Ed'
tp1524
a(S'Silvio'
tp1525
a(S'Ulrich'
tp1526
a(S'Whitman'
tp1527
a(S'Anthony'
tp1528
a(S'Winston'
tp1529
a(S'Skippie'
tp1530
a(S'Brian'
tp1531
a(S'Kerry'
tp1532
a(S'Si'
tp1533
a(S'Al'
tp1534
a(S'Davy'
tp1535
a(S'Sandro'
tp1536
a(S'Noah'
tp1537
a(S'Dale'
tp1538
a(S'Monroe'
tp1539
a(S'Stanton'
tp1540
a(S'Sully'
tp1541
a(S'Thane'
tp1542
a(S'Jule'
tp1543
a(S'Hamel'
tp1544
a(S'Ichabod'
tp1545
a(S'Ivor'
tp1546
a(S'Gunner'
tp1547
a(S'Coleman'
tp1548
a(S'Chane'
tp1549
a(S'Julie'
tp1550
a(S'Odie'
tp1551
a(S'Wolfie'
tp1552
a(S'Randi'
tp1553
a(S'Towney'
tp1554
a(S'Murphy'
tp1555
a(S'Caleb'
tp1556
a(S'Wendel'
tp1557
a(S'Bernhard'
tp1558
a(S'Jonah'
tp1559
a(S'Reynard'
tp1560
a(S'Eduardo'
tp1561
a(S'Paten'
tp1562
a(S'Rich'
tp1563
a(S'Raynor'
tp1564
a(S'Selby'
tp1565
a(S'Nikita'
tp1566
a(S'Edwin'
tp1567
a(S'Augustine'
tp1568
a(S'Sky'
tp1569
a(S'Daryl'
tp1570
a(S'Erl'
tp1571
a(S'Theophyllus'
tp1572
a(S'Flem'
tp1573
a(S'Herrmann'
tp1574
a(S'Ramsay'
tp1575
a(S'Mayer'
tp1576
a(S'Caryl'
tp1577
a(S'Darryl'
tp1578
a(S'Ulberto'
tp1579
a(S'Wilek'
tp1580
a(S'Edmond'
tp1581
a(S'Mugsy'
tp1582
a(S'Hall'
tp1583
a(S'Adair'
tp1584
a(S'Ingmar'
tp1585
a(S'Curtis'
tp1586
a(S'Wait'
tp1587
a(S'Neel'
tp1588
a(S'Burnaby'
tp1589
a(S'Thaddeus'
tp1590
a(S'Giraldo'
tp1591
a(S'Willey'
tp1592
a(S'Jack'
tp1593
a(S'Butler'
tp1594
a(S'Englebert'
tp1595
a(S'Osbourn'
tp1596
a(S'Mart'
tp1597
a(S'Morley'
tp1598
a(S'Stevy'
tp1599
a(S'Swen'
tp1600
a(S'Orville'
tp1601
a(S'Andrew'
tp1602
a(S'Grady'
tp1603
a(S'Leon'
tp1604
a(S'Hervey'
tp1605
a(S'Wilburn'
tp1606
a(S'Alaa'
tp1607
a(S'Armando'
tp1608
a(S'Ishmael'
tp1609
a(S'Bill'
tp1610
a(S'Kenneth'
tp1611
a(S'Alfredo'
tp1612
a(S'Walden'
tp1613
a(S'Forster'
tp1614
a(S'Dalton'
tp1615
a(S'Mikel'
tp1616
a(S'Augusto'
tp1617
a(S'Saunderson'
tp1618
a(S'Quiggly'
tp1619
a(S'Philbert'
tp1620
a(S'Murdoch'
tp1621
a(S'Tracie'
tp1622
a(S'Benjie'
tp1623
a(S'Wright'
tp1624
a(S'Ely'
tp1625
a(S'Fredrick'
tp1626
a(S'Edmund'
tp1627
a(S'Ware'
tp1628
a(S'Ambrosio'
tp1629
a(S'Englebart'
tp1630
a(S'Winthrop'
tp1631
a(S'Britt'
tp1632
a(S'Nathanil'
tp1633
a(S'Myke'
tp1634
a(S'Preston'
tp1635
a(S'Ebeneser'
tp1636
a(S'Christy'
tp1637
a(S'Otho'
tp1638
a(S'Joshuah'
tp1639
a(S'Tammie'
tp1640
a(S'Emmit'
tp1641
a(S'Bryce'
tp1642
a(S'Reece'
tp1643
a(S'Yehudi'
tp1644
a(S'Rudiger'
tp1645
a(S'Ginger'
tp1646
a(S'Brice'
tp1647
a(S'Kit'
tp1648
a(S'Rustie'
tp1649
a(S'Tomas'
tp1650
a(S'Harry'
tp1651
a(S'Griffith'
tp1652
a(S'Pascale'
tp1653
a(S'Gilburt'
tp1654
a(S'Norman'
tp1655
a(S'Freddie'
tp1656
a(S'Hugh'
tp1657
a(S'Woodie'
tp1658
a(S'Desmond'
tp1659
a(S'Wake'
tp1660
a(S'Gregory'
tp1661
a(S'Torrey'
tp1662
a(S'Costa'
tp1663
a(S'Anatol'
tp1664
a(S'Wyatan'
tp1665
a(S'Jamey'
tp1666
a(S'Salomo'
tp1667
a(S'Clinten'
tp1668
a(S'Reuven'
tp1669
a(S'Graehme'
tp1670
a(S'Reinhold'
tp1671
a(S'Wolf'
tp1672
a(S'Rog'
tp1673
a(S'Barbabas'
tp1674
a(S'Duke'
tp1675
a(S'Ingamar'
tp1676
a(S'Courtney'
tp1677
a(S'Benton'
tp1678
a(S'Abdul'
tp1679
a(S'Josephus'
tp1680
a(S'Munroe'
tp1681
a(S'Herve'
tp1682
a(S'Jud'
tp1683
a(S'Demetre'
tp1684
a(S'Derrin'
tp1685
a(S'Colin'
tp1686
a(S'Marietta'
tp1687
a(S'Hilton'
tp1688
a(S'Obadiah'
tp1689
a(S'Tome'
tp1690
a(S'Trever'
tp1691
a(S'Brady'
tp1692
a(S'Jerri'
tp1693
a(S'Rinaldo'
tp1694
a(S'Gerhardt'
tp1695
a(S'Dimitrou'
tp1696
a(S'Stan'
tp1697
a(S'Sherwin'
tp1698
a(S'Jared'
tp1699
a(S'Andy'
tp1700
a(S'Harlan'
tp1701
a(S'Alberto'
tp1702
a(S'Davidson'
tp1703
a(S'Clay'
tp1704
a(S'Jeth'
tp1705
a(S'Levin'
tp1706
a(S'Delmar'
tp1707
a(S'Rodolfo'
tp1708
a(S'Bentley'
tp1709
a(S'Roy'
tp1710
a(S'Jackie'
tp1711
a(S'Morry'
tp1712
a(S'Roarke'
tp1713
a(S'Nero'
tp1714
a(S'Sumner'
tp1715
a(S'Ozzy'
tp1716
a(S'Marcello'
tp1717
a(S'Jose'
tp1718
a(S'Reginauld'
tp1719
a(S'Cosmo'
tp1720
a(S'Vic'
tp1721
a(S'Skye'
tp1722
a(S'Heinz'
tp1723
a(S'Redmond'
tp1724
a(S'Alex'
tp1725
a(S'Barnard'
tp1726
a(S'Frederick'
tp1727
a(S'Alessandro'
tp1728
a(S'Isaac'
tp1729
a(S'Spense'
tp1730
a(S'Hewe'
tp1731
a(S'Lindy'
tp1732
a(S'Vail'
tp1733
a(S'Nathan'
tp1734
a(S'Yanaton'
tp1735
a(S'Patrik'
tp1736
a(S'Harald'
tp1737
a(S'Leo'
tp1738
a(S'Cornelius'
tp1739
a(S'Brent'
tp1740
a(S'Hurley'
tp1741
a(S'Giffy'
tp1742
a(S'Merrel'
tp1743
a(S'Sven'
tp1744
a(S'Uri'
tp1745
a(S'Silas'
tp1746
a(S'Gustave'
tp1747
a(S'Tobit'
tp1748
a(S'Parsifal'
tp1749
a(S'Dionysus'
tp1750
a(S'Wadsworth'
tp1751
a(S'Yves'
tp1752
a(S'Nelsen'
tp1753
a(S'Christopher'
tp1754
a(S'Ross'
tp1755
a(S'Tulley'
tp1756
a(S'Milo'
tp1757
a(S'Tuck'
tp1758
a(S'Edward'
tp1759
a(S'Brooke'
tp1760
a(S'Armond'
tp1761
a(S'Harland'
tp1762
a(S'Reilly'
tp1763
a(S'Rolph'
tp1764
a(S'Curtice'
tp1765
a(S'Shannon'
tp1766
a(S'Dick'
tp1767
a(S'Thibaud'
tp1768
a(S'Dwaine'
tp1769
a(S'Osmond'
tp1770
a(S'Kincaid'
tp1771
a(S'Jefry'
tp1772
a(S'Mark'
tp1773
a(S'Slade'
tp1774
a(S'Rodrique'
tp1775
a(S'Hubert'
tp1776
a(S'Bernd'
tp1777
a(S'Sayre'
tp1778
a(S'Giorgi'
tp1779
a(S'Douglas'
tp1780
a(S'Davie'
tp1781
a(S'Emanuel'
tp1782
a(S'Vasilis'
tp1783
a(S'Dirk'
tp1784
a(S'Pierson'
tp1785
a(S'Merv'
tp1786
a(S'Andie'
tp1787
a(S'Jessey'
tp1788
a(S'Ferdie'
tp1789
a(S'Cary'
tp1790
a(S'Phillip'
tp1791
a(S'Clarke'
tp1792
a(S'Tedrick'
tp1793
a(S'Elwin'
tp1794
a(S'Werner'
tp1795
a(S'Silvano'
tp1796
a(S'Hakeem'
tp1797
a(S'Zackariah'
tp1798
a(S'Pembroke'
tp1799
a(S'Chandler'
tp1800
a(S'Emmott'
tp1801
a(S'Ram'
tp1802
a(S'Merril'
tp1803
a(S'Geoffrey'
tp1804
a(S'Earle'
tp1805
a(S'Worden'
tp1806
a(S'Hakim'
tp1807
a(S'Ramon'
tp1808
a(S'Luis'
tp1809
a(S'Giff'
tp1810
a(S'Thatcher'
tp1811
a(S'Guthry'
tp1812
a(S'Jean-Pierre'
tp1813
a(S'Parker'
tp1814
a(S'Barrett'
tp1815
a(S'Normand'
tp1816
a(S'Haleigh'
tp1817
a(S'Clancy'
tp1818
a(S'Garfield'
tp1819
a(S'Tailor'
tp1820
a(S'Emery'
tp1821
a(S'Eliott'
tp1822
a(S'Derk'
tp1823
a(S'Adrien'
tp1824
a(S'Lemar'
tp1825
a(S'Von'
tp1826
a(S'Rikki'
tp1827
a(S'Marshal'
tp1828
a(S'Cyril'
tp1829
a(S'Hew'
tp1830
a(S'Murdock'
tp1831
a(S'Johannes'
tp1832
a(S'Magnum'
tp1833
a(S'Hollis'
tp1834
a(S'Demetrius'
tp1835
a(S'Gretchen'
tp1836
a(S'Durante'
tp1837
a(S'Wade'
tp1838
a(S'Bartie'
tp1839
a(S'Mathias'
tp1840
a(S'Kenton'
tp1841
a(S'Thedrick'
tp1842
a(S'Shepperd'
tp1843
a(S'Ritch'
tp1844
a(S'Ximenes'
tp1845
a(S'Clark'
tp1846
a(S'Chevalier'
tp1847
a(S'Syd'
tp1848
a(S'Justis'
tp1849
a(S'Spenser'
tp1850
a(S'Reed'
tp1851
a(S'Iain'
tp1852
a(S'John'
tp1853
a(S'Jean-Marc'
tp1854
a(S'Benjy'
tp1855
a(S'Aldus'
tp1856
a(S'Cob'
tp1857
a(S'Seamus'
tp1858
a(S'Jermain'
tp1859
a(S'Cooper'
tp1860
a(S'Sanderson'
tp1861
a(S'Yancey'
tp1862
a(S'Wye'
tp1863
a(S'Tobias'
tp1864
a(S'Tamas'
tp1865
a(S'Enrique'
tp1866
a(S'Waylan'
tp1867
a(S'Niall'
tp1868
a(S'Arne'
tp1869
a(S'Waleed'
tp1870
a(S'Stevie'
tp1871
a(S'Marcio'
tp1872
a(S'Richardo'
tp1873
a(S'Moore'
tp1874
a(S'Gilberto'
tp1875
a(S'Rusty'
tp1876
a(S'Damon'
tp1877
a(S'Sheridan'
tp1878
a(S'Rayner'
tp1879
a(S'Moshe'
tp1880
a(S'Frazier'
tp1881
a(S'Robin'
tp1882
a(S'Clare'
tp1883
a(S'Riley'
tp1884
a(S'Juergen'
tp1885
a(S'Kelsey'
tp1886
a(S'Orrin'
tp1887
a(S'Maurits'
tp1888
a(S'Brodie'
tp1889
a(S'Aloysius'
tp1890
a(S'Lauren'
tp1891
a(S'Rube'
tp1892
a(S'Bryant'
tp1893
a(S'Towny'
tp1894
a(S'Rodolphe'
tp1895
a(S'Andre'
tp1896
a(S'Winny'
tp1897
a(S'Gregg'
tp1898
a(S'Tonnie'
tp1899
a(S'Zebedee'
tp1900
a(S'Barde'
tp1901
a(S'Godard'
tp1902
a(S'Marlo'
tp1903
a(S'Nicholas'
tp1904
a(S'Wilson'
tp1905
a(S'Robb'
tp1906
a(S'Jefferey'
tp1907
a(S'Wallace'
tp1908
a(S'Hamlin'
tp1909
a(S'Michal'
tp1910
a(S'Mattheus'
tp1911
a(S'Donovan'
tp1912
a(S'Ash'
tp1913
a(S'Derrol'
tp1914
a(S'Rollo'
tp1915
a(S'Pedro'
tp1916
a(S'Willard'
tp1917
a(S'Karl'
tp1918
a(S'Gunter'
tp1919
a(S'Bing'
tp1920
a(S'Zacharias'
tp1921
a(S'Noe'
tp1922
a(S'Dickey'
tp1923
a(S'Lion'
tp1924
a(S'Osbert'
tp1925
a(S'Wainwright'
tp1926
a(S'Adger'
tp1927
a(S'Flipper'
tp1928
a(S'Stew'
tp1929
a(S'Andreas'
tp1930
a(S'Rem'
tp1931
a(S'Quent'
tp1932
a(S'Quentin'
tp1933
a(S'Harold'
tp1934
a(S'Wynton'
tp1935
a(S'Eduard'
tp1936
a(S'Wojciech'
tp1937
a(S'Eustace'
tp1938
a(S'Matty'
tp1939
a(S'Rodrigo'
tp1940
a(S'Ehud'
tp1941
a(S'Lucien'
tp1942
a(S'Tobie'
tp1943
a(S'Easton'
tp1944
a(S'Allie'
tp1945
a(S'Benn'
tp1946
a(S'Bancroft'
tp1947
a(S'Tully'
tp1948
a(S'Thorndike'
tp1949
a(S'Mort'
tp1950
a(S'Vasily'
tp1951
a(S'Arron'
tp1952
a(S'Hussein'
tp1953
a(S'Ansel'
tp1954
a(S'Avery'
tp1955
a(S'Kaspar'
tp1956
a(S'Sanson'
tp1957
a(S'Chen'
tp1958
a(S'Salvidor'
tp1959
a(S'Gershom'
tp1960
a(S'Felice'
tp1961
a(S'Johnathon'
tp1962
a(S'Gerrard'
tp1963
a(S'Harmon'
tp1964
a(S'Sherlock'
tp1965
a(S'Hudson'
tp1966
a(S'Julian'
tp1967
a(S'Thorstein'
tp1968
a(S'Chrissy'
tp1969
a(S'Larry'
tp1970
a(S'Virge'
tp1971
a(S'Harrison'
tp1972
a(S'Valdemar'
tp1973
a(S'Whitby'
tp1974
a(S'Frank'
tp1975
a(S'Jacques'
tp1976
a(S'Michele'
tp1977
a(S'Buddy'
tp1978
a(S'Alix'
tp1979
a(S'Vladimir'
tp1980
a(S'Gaston'
tp1981
a(S'Albrecht'
tp1982
a(S'Clyde'
tp1983
a(S'Elisha'
tp1984
a(S'Derrick'
tp1985
a(S'Mauritz'
tp1986
a(S'Brandon'
tp1987
a(S'Julio'
tp1988
a(S'Esteban'
tp1989
a(S'Aleksandrs'
tp1990
a(S'Prentice'
tp1991
a(S'Jeromy'
tp1992
a(S'Wallache'
tp1993
a(S'Clayborn'
tp1994
a(S'Alfonse'
tp1995
a(S'Dave'
tp1996
a(S'Lukas'
tp1997
a(S'Steward'
tp1998
a(S'Gerhard'
tp1999
a(S'Devin'
tp2000
a(S'Dexter'
tp2001
a(S'Conroy'
tp2002
a(S'Sly'
tp2003
a(S'Felix'
tp2004
a(S'Barnabe'
tp2005
a(S'Vernen'
tp2006
a(S'Apollo'
tp2007
a(S'Abner'
tp2008
a(S'Trenton'
tp2009
a(S'Dwayne'
tp2010
a(S'Clement'
tp2011
a(S'Stillman'
tp2012
a(S'Petey'
tp2013
a(S'Wesley'
tp2014
a(S'Irwin'
tp2015
a(S'Nevins'
tp2016
a(S'Thaddus'
tp2017
a(S'Lancelot'
tp2018
a(S'Ossie'
tp2019
a(S'Sherlocke'
tp2020
a(S'Zerk'
tp2021
a(S'Eli'
tp2022
a(S'Quintin'
tp2023
a(S'Wes'
tp2024
a(S'Sampson'
tp2025
a(S'Thorvald'
tp2026
a(S'Shelby'
tp2027
a(S'Jamie'
tp2028
a(S'Sergent'
tp2029
a(S'Jef'
tp2030
a(S'Levon'
tp2031
a(S'Waylen'
tp2032
a(S'Rees'
tp2033
a(S'Hanford'
tp2034
a(S'Dugan'
tp2035
a(S'Daffy'
tp2036
a(S'Lovell'
tp2037
a(S'Hayes'
tp2038
a(S'Peyton'
tp2039
a(S'Wilber'
tp2040
a(S'Lars'
tp2041
a(S'Jonathan'
tp2042
a(S'Moss'
tp2043
a(S'Doug'
tp2044
a(S'Hillel'
tp2045
a(S'Agustin'
tp2046
a(S'Xerxes'
tp2047
a(S'Aldrich'
tp2048
a(S'Morris'
tp2049
a(S'Tedd'
tp2050
a(S'Orren'
tp2051
a(S'Jesus'
tp2052
a(S'Gian'
tp2053
a(S'Engelbert'
tp2054
a(S'Saxe'
tp2055
a(S'Hanan'
tp2056
a(S'Braden'
tp2057
a(S'Dunstan'
tp2058
a(S'Rodolph'
tp2059
a(S'Steve'
tp2060
a(S'Ewan'
tp2061
a(S'Pascal'
tp2062
a(S'Berke'
tp2063
a(S'Leslie'
tp2064
a(S'Marchall'
tp2065
a(S'Bradford'
tp2066
a(S'Mahmoud'
tp2067
a(S'Jimmie'
tp2068
a(S'Giffie'
tp2069
a(S'Merlin'
tp2070
a(S'Beau'
tp2071
a(S'Marshall'
tp2072
a(S'Adolf'
tp2073
a(S'Tally'
tp2074
a(S'Gunther'
tp2075
a(S'Ephrem'
tp2076
a(S'Chalmers'
tp2077
a(S'Gordon'
tp2078
a(S'Franky'
tp2079
a(S'Noach'
tp2080
a(S'Lucio'
tp2081
a(S'Ajai'
tp2082
a(S'Marco'
tp2083
a(S'Berk'
tp2084
a(S'Errol'
tp2085
a(S'Town'
tp2086
a(S'Armstrong'
tp2087
a(S'Neil'
tp2088
a(S'Guy'
tp2089
a(S'Bogart'
tp2090
a(S'Tray'
tp2091
a(S'Anders'
tp2092
a(S'Winfred'
tp2093
a(S'Wilbur'
tp2094
a(S'Elnar'
tp2095
a(S'Alphonso'
tp2096
a(S'Dory'
tp2097
a(S'Dennie'
tp2098
a(S'Daniel'
tp2099
a(S'Huntington'
tp2100
a(S'Hank'
tp2101
a(S'Purcell'
tp2102
a(S'Quincey'
tp2103
a(S'Prent'
tp2104
a(S'Frankie'
tp2105
a(S'Marko'
tp2106
a(S'Tarzan'
tp2107
a(S'Hilary'
tp2108
a(S'Antonio'
tp2109
a(S'Hansel'
tp2110
a(S'Corby'
tp2111
a(S'Nichols'
tp2112
a(S'Diego'
tp2113
a(S'Dionis'
tp2114
a(S'Terry'
tp2115
a(S'Nicky'
tp2116
a(S'Jodie'
tp2117
a(S'Dyson'
tp2118
a(S'Roth'
tp2119
a(S'Anatoly'
tp2120
a(S'Beauregard'
tp2121
a(S'Teddie'
tp2122
a(S'Danie'
tp2123
a(S'Hamil'
tp2124
a(S'Emilio'
tp2125
a(S'Cecil'
tp2126
a(S'Ariel'
tp2127
a(S'Jake'
tp2128
a(S'Mustafa'
tp2129
a(S'Zack'
tp2130
a(S'Thatch'
tp2131
a(S'Rutger'
tp2132
a(S'Chelton'
tp2133
a(S'Horacio'
tp2134
a(S'Sandor'
tp2135
a(S'Teodoor'
tp2136
a(S'Ralf'
tp2137
a(S'Shumeet'
tp2138
a(S'Taylor'
tp2139
a(S'Andrej'
tp2140
a(S'Fairfax'
tp2141
a(S'Powell'
tp2142
a(S'Alonso'
tp2143
a(S'Stephanus'
tp2144
a(S'Yale'
tp2145
a(S'Thom'
tp2146
a(S'Kane'
tp2147
a(S'Elroy'
tp2148
a(S'Nick'
tp2149
a(S'Dwane'
tp2150
a(S'Mario'
tp2151
a(S'Jethro'
tp2152
a(S'Hirsch'
tp2153
a(S'Fabio'
tp2154
a(S'Andonis'
tp2155
a(S'Quinton'
tp2156
a(S'Matthus'
tp2157
a(S'Nunzio'
tp2158
a(S'Phillipe'
tp2159
a(S'Say'
tp2160
a(S'Floyd'
tp2161
a(S'Amadeus'
tp2162
a(S'Orin'
tp2163
a(S'Dion'
tp2164
a(S'Dillon'
tp2165
a(S'Wylie'
tp2166
a(S'Aron'
tp2167
a(S'Roddy'
tp2168
a(S'Newton'
tp2169
a(S'Chauncey'
tp2170
a(S'Fred'
tp2171
a(S'Burgess'
tp2172
a(S'Geo'
tp2173
a(S'Claudius'
tp2174
a(S'Kenyon'
tp2175
a(S'Casey'
tp2176
a(S'Dean'
tp2177
a(S'Darius'
tp2178
a(S'Dmitri'
tp2179
a(S'Randie'
tp2180
a(S'Josh'
tp2181
a(S'Hercules'
tp2182
a(S'Delbert'
tp2183
a(S'Talbert'
tp2184
a(S'Leonardo'
tp2185
a(S'Cleveland'
tp2186
a(S'Dunc'
tp2187
a(S'Verney'
tp2188
a(S'Win'
tp2189
a(S'Ezechiel'
tp2190
a(S'Donnie'
tp2191
a(S'Remus'
tp2192
a(S'Forester'
tp2193
a(S'Chengkun'
tp2194
a(S'Giffard'
tp2195
a(S'Carlo'
tp2196
a(S'Engelbart'
tp2197
a(S'Nevin'
tp2198
a(S'Wilton'
tp2199
a(S'Titus'
tp2200
a(S'Melvyn'
tp2201
a(S'Giraud'
tp2202
a(S'Lazare'
tp2203
a(S'Bailey'
tp2204
a(S'Les'
tp2205
a(S'Trevor'
tp2206
a(S'Wildon'
tp2207
a(S'Adolphus'
tp2208
a(S'Kory'
tp2209
a(S'Sim'
tp2210
a(S'Maynord'
tp2211
a(S'Garold'
tp2212
a(S'Gabriele'
tp2213
a(S'Urson'
tp2214
a(S'Osmund'
tp2215
a(S'Kalil'
tp2216
a(S'Stacy'
tp2217
a(S'Pooh'
tp2218
a(S'Ervin'
tp2219
a(S'Salomon'
tp2220
a(S'Odin'
tp2221
a(S'Phip'
tp2222
a(S'Prince'
tp2223
a(S'Marten'
tp2224
a(S'Roscoe'
tp2225
a(S'Henrie'
tp2226
a(S'Fidel'
tp2227
a(S'Anson'
tp2228
a(S'Lem'
tp2229
a(S'Jonas'
tp2230
a(S'Noble'
tp2231
a(S'Rice'
tp2232
a(S'Averil'
tp2233
a(S'Welsh'
tp2234
a(S'Muffin'
tp2235
a(S'Ezekiel'
tp2236
a(S'Vince'
tp2237
a(S'Marlow'
tp2238
a(S'Barnie'
tp2239
a(S'Ernie'
tp2240
a(S'Abdullah'
tp2241
a(S'Garcon'
tp2242
a(S'Pincas'
tp2243
a(S'Sergei'
tp2244
a(S'Townie'
tp2245
a(S'Roddie'
tp2246
a(S'Wallie'
tp2247
a(S'Ulysses'
tp2248
a(S'Bjorn'
tp2249
a(S'Orion'
tp2250
a(S'Briggs'
tp2251
a(S'Antonin'
tp2252
a(S'Way'
tp2253
a(S'Regan'
tp2254
a(S'Tod'
tp2255
a(S'Max'
tp2256
a(S'Esme'
tp2257
a(S'Christ'
tp2258
a(S'Stavros'
tp2259
a(S'Timmy'
tp2260
a(S'Bartlett'
tp2261
a(S'Desmund'
tp2262
a(S'Tyson'
tp2263
a(S'Napoleon'
tp2264
a(S'Markus'
tp2265
a(S'Ray'
tp2266
a(S'Rodger'
tp2267
a(S'Erhard'
tp2268
a(S'Seymour'
tp2269
a(S'Amos'
tp2270
a(S'Holly'
tp2271
a(S'Flint'
tp2272
a(S'Aldwin'
tp2273
a(S'Moise'
tp2274
a(S'Vassily'
tp2275
a(S'Shane'
tp2276
a(S'Quintus'
tp2277
a(S'Herbie'
tp2278
a(S'Siffre'
tp2279
a(S'Beowulf'
tp2280
a(S'Enrico'
tp2281
a(S'Ritchie'
tp2282
a(S'Archy'
tp2283
a(S'Augustus'
tp2284
a(S'Whit'
tp2285
a(S'Kalvin'
tp2286
a(S'Geoffry'
tp2287
a(S'Kimmo'
tp2288
a(S'Lou'
tp2289
a(S'Simeon'
tp2290
a(S'Neron'
tp2291
a(S'Garret'
tp2292
a(S'Osbourne'
tp2293
a(S'Gav'
tp2294
a(S'Peyter'
tp2295
a(S'Jessee'
tp2296
a(S'Rodge'
tp2297
a(S'Micheal'
tp2298
a(S'Cass'
tp2299
a(S'Haley'
tp2300
a(S'Yuri'
tp2301
a(S'Josiah'
tp2302
a(S'Lanny'
tp2303
a(S'Remington'
tp2304
a(S'Willi'
tp2305
a(S'Amory'
tp2306
a(S'Pincus'
tp2307
a(S'Augie'
tp2308
a(S'Mordecai'
tp2309
a(S'Tam'
tp2310
a(S'Judd'
tp2311
a(S'Waiter'
tp2312
a(S'Gordan'
tp2313
a(S'Oleg'
tp2314
a(S'Harcourt'
tp2315
a(S'Fowler'
tp2316
a(S'Ezra'
tp2317
a(S'Moe'
tp2318
a(S'Colbert'
tp2319
a(S'Alastair'
tp2320
a(S'Fritz'
tp2321
a(S'Othello'
tp2322
a(S'Harley'
tp2323
a(S'Darwin'
tp2324
a(S'Tharen'
tp2325
a(S'Carlos'
tp2326
a(S'Sammie'
tp2327
a(S'Thadeus'
tp2328
a(S'Tedmund'
tp2329
a(S'Sonny'
tp2330
a(S'Udell'
tp2331
a(S'Mitchel'
tp2332
a(S'Averill'
tp2333
a(S'Hill'
tp2334
a(S'Piotr'
tp2335
a(S'Forrest'
tp2336
a(S'Bartholomew'
tp2337
a(S'Vasili'
tp2338
a(S'Ender'
tp2339
a(S'Dimitris'
tp2340
a(S'Zach'
tp2341
a(S'Mackenzie'
tp2342
a(S'Alexis'
tp2343
a(S'Gideon'
tp2344
a(S'Bealle'
tp2345
a(S'Homer'
tp2346
a(S'Flemming'
tp2347
a(S'Henrique'
tp2348
a(S'Jasper'
tp2349
a(S'Westbrook'
tp2350
a(S'Corbin'
tp2351
a(S'Woochang'
tp2352
a(S'Tallie'
tp2353
a(S'Billy'
tp2354
a(S'Northrop'
tp2355
a(S'Duncan'
tp2356
a(S'Matthaeus'
tp2357
a(S'Obadias'
tp2358
a(S'Albatros'
tp2359
a(S'Edouard'
tp2360
a(S'Gilbert'
tp2361
a(S'Mikael'
tp2362
a(S'Algernon'
tp2363
a(S'Louis'
tp2364
a(S'Ugo'
tp2365
a(S'Juan'
tp2366
a(S'Iago'
tp2367
a(S'Rutherford'
tp2368
a(S'Bengt'
tp2369
a(S'Job'
tp2370
a(S'Bucky'
tp2371
a(S'Frederich'
tp2372
a(S'Tybalt'
tp2373
a(S'Alfonzo'
tp2374
a(S'Norwood'
tp2375
a(S'Poul'
tp2376
a(S'Barnett'
tp2377
a(S'Bartel'
tp2378
a(S'Bruno'
tp2379
a(S'Pinchas'
tp2380
a(S'Arlo'
tp2381
a(S'Eliot'
tp2382
a(S'Owen'
tp2383
a(S'Benjamen'
tp2384
a(S'Tomlin'
tp2385
a(S'Monty'
tp2386
a(S'Milton'
tp2387
a(S'Hermann'
tp2388
a(S'Hersh'
tp2389
a(S'Ricardo'
tp2390
a(S'Rodney'
tp2391
a(S'Hammad'
tp2392
a(S'Wilbert'
tp2393
a(S'Barret'
tp2394
a(S'Norm'
tp2395
a(S'Waverley'
tp2396
a(S'Hendrik'
tp2397
a(S'Wiley'
tp2398
a(S'Hebert'
tp2399
a(S'Luce'
tp2400
a(S'Scotty'
tp2401
a(S'Nikos'
tp2402
a(S'Corky'
tp2403
a(S'Sawyere'
tp2404
a(S'Stephan'
tp2405
a(S'Truman'
tp2406
a(S'Waverly'
tp2407
a(S'Sebastien'
tp2408
a(S'Er'
tp2409
a(S'Brinkley'
tp2410
a(S'Timmie'
tp2411
a(S'Johnny'
tp2412
a(S'Royal'
tp2413
a(S'Mitchael'
tp2414
a(S'Gavriel'
tp2415
a(S'Shaughn'
tp2416
a(S'Warde'
tp2417
a(S'Fonz'
tp2418
a(S'Saundra'
tp2419
a(S'Francesco'
tp2420
a(S'Baird'
tp2421
a(S'Adrick'
tp2422
a(S'Clemente'
tp2423
a(S'Dana'
tp2424
a(S'Renaldo'
tp2425
a(S'Shayne'
tp2426
a(S'Durant'
tp2427
a(S'Keil'
tp2428
a(S'Lawson'
tp2429
a(S'Wilhelm'
tp2430
a(S'Laurie'
tp2431
a(S'Shaine'
tp2432
a(S'Vaclav'
tp2433
a(S'Kelley'
tp2434
a(S'Christiano'
tp2435
a(S'Silvan'
tp2436
a(S'Saunders'
tp2437
a(S'Jedediah'
tp2438
a(S'Parke'
tp2439
a(S'Saunder'
tp2440
a(S'Yigal'
tp2441
a(S'Hiralal'
tp2442
a(S'Baron'
tp2443
a(S'Gus'
tp2444
a(S'Claus'
tp2445
a(S'Dryke'
tp2446
a(S'Thomas'
tp2447
a(S'Lefty'
tp2448
a(S'Elihu'
tp2449
a(S'Tabbie'
tp2450
a(S'Udale'
tp2451
a(S'Hillard'
tp2452
a(S'Nelson'
tp2453
a(S'Jed'
tp2454
a(S'Richie'
tp2455
a(S'Jock'
tp2456
a(S'Georgie'
tp2457
a(S'Shurlock'
tp2458
a(S'Noland'
tp2459
a(S'Sonnie'
tp2460
a(S'Wolfy'
tp2461
a(S'Clinton'
tp2462
a(S'David'
tp2463
a(S'Vincent'
tp2464
a(S'Aguste'
tp2465
a(S'Wendell'
tp2466
a(S'Zared'
tp2467
a(S'Ximenez'
tp2468
a(S'Ahmed'
tp2469
a(S'Ahmet'
tp2470
a(S'Austen'
tp2471
a(S'Horst'
tp2472
a(S'Xever'
tp2473
a(S'Zebulon'
tp2474
a(S'Pavel'
tp2475
a(S'Israel'
tp2476
a(S'Iggie'
tp2477
a(S'Meyer'
tp2478
a(S'Tanner'
tp2479
a(S'Augustin'
tp2480
a(S'Bertie'
tp2481
a(S'Hyatt'
tp2482
a(S'Skipp'
tp2483
a(S'Sheppard'
tp2484
a(S'Romain'
tp2485
a(S'Hernando'
tp2486
a(S'Russ'
tp2487
a(S'Sherwood'
tp2488
a(S'Garfinkel'
tp2489
a(S'Jean-Lou'
tp2490
a(S'Ludwig'
tp2491
a(S'Sax'
tp2492
a(S'Cyrill'
tp2493
a(S'Don'
tp2494
a(S'Keene'
tp2495
a(S'Pace'
tp2496
a(S'Ashby'
tp2497
a(S'Mervin'
tp2498
a(S'Mendie'
tp2499
a(S'Sheff'
tp2500
a(S'Constantine'
tp2501
a(S'Marilu'
tp2502
a(S'Chrisy'
tp2503
a(S'Anselm'
tp2504
a(S'Jervis'
tp2505
a(S'Llewellyn'
tp2506
a(S'Uriah'
tp2507
a(S'Jarrett'
tp2508
a(S'Levi'
tp2509
a(S'Nels'
tp2510
a(S'Adams'
tp2511
a(S'Lex'
tp2512
a(S'Ronnie'
tp2513
a(S'Georgia'
tp2514
a(S'Hal'
tp2515
a(S'Albert'
tp2516
a(S'Matthieu'
tp2517
a(S'Everard'
tp2518
a(S'Drew'
tp2519
a(S'Randall'
tp2520
a(S'Del'
tp2521
a(S'Son'
tp2522
a(S'Tan'
tp2523
a(S'Adnan'
tp2524
a(S'Jimmy'
tp2525
a(S'Gibb'
tp2526
a(S'Aleck'
tp2527
a(S'Alford'
tp2528
a(S'Ferd'
tp2529
a(S'Horatio'
tp2530
a(S'Garwin'
tp2531
a(S'Carey'
tp2532
a(S'Webster'
tp2533
a(S'Kin'
tp2534
a(S'Izzy'
tp2535
a(S'Spud'
tp2536
a(S'Elwyn'
tp2537
a(S'Marven'
tp2538
a(S'Harrold'
tp2539
a(S'Rocky'
tp2540
a(S'Zorro'
tp2541
a(S'Reid'
tp2542
a(S'Salvador'
tp2543
a(S'Ruben'
tp2544
a(S'Mahmud'
tp2545
a(S'Shepherd'
tp2546
a(S'Prentiss'
tp2547
a(S'Andrey'
tp2548
a(S'Joao'
tp2549
a(S'Biff'
tp2550
a(S'Gabriel'
tp2551
a(S'Thornton'
tp2552
a(S'Jerzy'
tp2553
a(S'Montague'
tp2554
a(S'Abraham'
tp2555
a(S'Kelly'
tp2556
a(S'Collins'
tp2557
a(S'Maximilien'
tp2558
a(S'Bard'
tp2559
a(S'Hershel'
tp2560
a(S'Nestor'
tp2561
a(S'Trip'
tp2562
a(S'Nathaniel'
tp2563
a(S'Michel'
tp2564
a(S'Jimbo'
tp2565
a(S'Venkat'
tp2566
a(S'Northrup'
tp2567
a(S'Erick'
tp2568
a(S'Marcelo'
tp2569
a(S'Giancarlo'
tp2570
a(S'Salmon'
tp2571
a(S'Bartolomei'
tp2572
a(S'Maddy'
tp2573
a(S'Gill'
tp2574
a(S'Isaiah'
tp2575
a(S'Stanfield'
tp2576
a(S'Pryce'
tp2577
a(S'Leroy'
tp2578
a(S'Bartholomeus'
tp2579
a(S'Vachel'
tp2580
a(S'Chaim'
tp2581
a(S'Burt'
tp2582
a(S'Dru'
tp2583
a(S'Conway'
tp2584
a(S'Donald'
tp2585
a(S'Ike'
tp2586
a(S'Edie'
tp2587
a(S'Ravi'
tp2588
a(S'Ethelbert'
tp2589
a(S'Bradly'
tp2590
a(S'Sivert'
tp2591
a(S'Torrance'
tp2592
a(S'Davon'
tp2593
a(S'Jan'
tp2594
a(S'Zeus'
tp2595
a(S'Toby'
tp2596
a(S'Jerold'
tp2597
a(S'Chester'
tp2598
a(S'Douglis'
tp2599
a(S'Lockwood'
tp2600
a(S'Gershon'
tp2601
a(S'Tremaine'
tp2602
a(S'Hy'
tp2603
a(S'Kenny'
tp2604
a(S'Marcos'
tp2605
a(S'Allyn'
tp2606
a(S'Brody'
tp2607
a(S'Alton'
tp2608
a(S'Ignaz'
tp2609
a(S'Torrin'
tp2610
a(S'Haskell'
tp2611
a(S'Mick'
tp2612
a(S'Tommy'
tp2613
a(S'Dustin'
tp2614
a(S'Pete'
tp2615
a(S'Hewet'
tp2616
a(S'Tann'
tp2617
a(S'Willdon'
tp2618
a(S'Silvanus'
tp2619
a(S'Aubert'
tp2620
a(S'Yancy'
tp2621
a(S'Lind'
tp2622
a(S'Charles'
tp2623
a(S'Wayland'
tp2624
a(S'Brett'
tp2625
a(S'Jefferson'
tp2626
a(S'Daryle'
tp2627
a(S'Antin'
tp2628
a(S'Dannie'
tp2629
a(S'Linus'
tp2630
a(S'Vite'
tp2631
a(S'Alexander'
tp2632
a(S'Joel'
tp2633
a(S'Sinclair'
tp2634
a(S'Igor'
tp2635
a(S'Scott'
tp2636
a(S'Barty'
tp2637
a(S'Aldis'
tp2638
a(S'Martino'
tp2639
a(S'Berkie'
tp2640
a(S'Web'
tp2641
a(S'Ruperto'
tp2642
a(S'Bjorne'
tp2643
a(S'Rafael'
tp2644
a(S'Perry'
tp2645
a(S'Merrill'
tp2646
a(S'Quincy'
tp2647
a(S'Carson'
tp2648
a(S'Gere'
tp2649
a(S'Raul'
tp2650
a(S'Alley'
tp2651
a(S'Alonzo'
tp2652
a(S'Ruddy'
tp2653
a(S'Rafe'
tp2654
a(S'Winfield'
tp2655
a(S'Sheffy'
tp2656
a(S'Winslow'
tp2657
a(S'Luigi'
tp2658
a(S'Jorge'
tp2659
a(S'Warren'
tp2660
a(S'Adolphe'
tp2661
a(S'Merrick'
tp2662
a(S'Mikey'
tp2663
a(S'Jean'
tp2664
a(S'Ferinand'
tp2665
a(S'Sigmund'
tp2666
a(S'Sander'
tp2667
a(S'Herschel'
tp2668
a(S'Reg'
tp2669
a(S'Ulrick'
tp2670
a(S'Jordy'
tp2671
a(S'Leonard'
tp2672
a(S'Theodor'
tp2673
a(S'Otis'
tp2674
a(S'Jennings'
tp2675
a(S'Guthrey'
tp2676
a(S'Raymundo'
tp2677
a(S'Erhart'
tp2678
a(S'Waldon'
tp2679
a(S'Haven'
tp2680
a(S'Hiro'
tp2681
a(S'Smith'
tp2682
a(S'Ewart'
tp2683
a(S'Dieter'
tp2684
a(S'Dwain'
tp2685
a(S'Boyd'
tp2686
a(S'Vassili'
tp2687
a(S'Dougie'
tp2688
a(S'Yance'
tp2689
a(S'Walsh'
tp2690
a(S'Skipper'
tp2691
a(S'Wilburt'
tp2692
a(S'Georgy'
tp2693
a(S'Maynard'
tp2694
a(S'Lonnie'
tp2695
a(S'Richmond'
tp2696
a(S'Hazel'
tp2697
a(S'Rogers'
tp2698
a(S'Tymothy'
tp2699
a(S'Evan'
tp2700
a(S'Marcel'
tp2701
a(S'Tadd'
tp2702
a(S'Cornellis'
tp2703
a(S'Federico'
tp2704
a(S'Shelley'
tp2705
a(S'Staford'
tp2706
a(S'Valentin'
tp2707
a(S'Shelden'
tp2708
a(S'Garvin'
tp2709
a(S'Mic'
tp2710
a(S'William'
tp2711
a(S'Hillary'
tp2712
a(S'Torin'
tp2713
a(S'Cat'
tp2714
a(S'Abbot'
tp2715
a(S'Ransom'
tp2716
a(S'Andrzej'
tp2717
a(S'Dov'
tp2718
a(S'Gayle'
tp2719
a(S'Taddeo'
tp2720
a(S'Daren'
tp2721
a(S'Mitch'
tp2722
a(S'Johnathan'
tp2723
a(S'Stefano'
tp2724
a(S'Bayard'
tp2725
a(S'Bogdan'
tp2726
a(S'Maxfield'
tp2727
a(S'Danny'
tp2728
a(S'Ansell'
tp2729
a(S'Maxie'
tp2730
a(S'Nickey'
tp2731
a(S'Martyn'
tp2732
a(S'Nealon'
tp2733
a(S'Nilson'
tp2734
a(S'Fredric'
tp2735
a(S'Georg'
tp2736
a(S'Barnabas'
tp2737
a(S'Nev'
tp2738
a(S'Selig'
tp2739
a(S'Berchtold'
tp2740
a(S'Mel'
tp2741
a(S'Lindsay'
tp2742
a(S'Ham'
tp2743
a(S'Efram'
tp2744
a(S'Herrick'
tp2745
a(S'Hillery'
tp2746
a(S'Archie'
tp2747
a(S'Adolpho'
tp2748
a(S'Eric'
tp2749
a(S'Claude'
tp2750
a(S'Angus'
tp2751
a(S'Cammy'
tp2752
a(S'Staffard'
tp2753
a(S'Scottie'
tp2754
a(S'Donny'
tp2755
a(S'Prescott'
tp2756
a(S'Kim'
tp2757
a(S'Terrell'
tp2758
a(S'Blake'
tp2759
a(S'Rustin'
tp2760
a(S'Waine'
tp2761
a(S'Carlie'
tp2762
a(S'Pat'
tp2763
a(S'Buster'
tp2764
a(S'Will'
tp2765
a(S'Skelly'
tp2766
a(S'Hilliard'
tp2767
a(S'Antone'
tp2768
a(S'Adlai'
tp2769
a(S'Vaughn'
tp2770
a(S'Normie'
tp2771
a(S'Woodman'
tp2772
a(S'Randell'
tp2773
a(S'Aharon'
tp2774
a(S'Loren'
tp2775
a(S'Zak'
tp2776
a(S'Talbot'
tp2777
a(S'Sheffield'
tp2778
a(S'Beck'
tp2779
a(S'Manny'
tp2780
a(S'Tull'
tp2781
a(S'Roosevelt'
tp2782
a(S'Marion'
tp2783
a(S'Sebastian'
tp2784
a(S'Neddy'
tp2785
a(S'Thacher'
tp2786
a(S'Marvin'
tp2787
a(S'Abe'
tp2788
a(S'Jerrie'
tp2789
a(S'Erich'
tp2790
a(S'Mathew'
tp2791
a(S'Wheeler'
tp2792
a(S'Zacharie'
tp2793
a(S'Renault'
tp2794
a(S'Boyce'
tp2795
a(S'Vilhelm'
tp2796
a(S'Giuseppe'
tp2797
a(S'Lenard'
tp2798
a(S'Ric'
tp2799
a(S'Marius'
tp2800
a(S'Arel'
tp2801
a(S'Jeremiah'
tp2802
a(S'Chad'
tp2803
a(S'Aaron'
tp2804
a(S'Thurston'
tp2805
a(S'Pyotr'
tp2806
a(S'Yacov'
tp2807
a(S'Lynn'
tp2808
a(S'Rudolf'
tp2809
a(S'Maximilian'
tp2810
a(S'Hadleigh'
tp2811
a(S'Langston'
tp2812
a(S'Ward'
tp2813
a(S'Fulton'
tp2814
a(S'Benson'
tp2815
a(S'Giles'
tp2816
a(S'Michael'
tp2817
a(S'Eddie'
tp2818
a(S'Hadley'
tp2819
a(S'Jody'
tp2820
a(S'Hewitt'
tp2821
a(S'Ferguson'
tp2822
a(S'Manfred'
tp2823
a(S'Antony'
tp2824
a(S'Batholomew'
tp2825
a(S'Fazeel'
tp2826
a(S'Serge'
tp2827
a(S'Aldo'
tp2828
a(S'Stu'
tp2829
a(S'Clifton'
tp2830
a(S'Claudio'
tp2831
a(S'Harvie'
tp2832
a(S'Omar'
tp2833
a(S'Cobb'
tp2834
a(S'Tate'
tp2835
a(S'Orbadiah'
tp2836
a(S'Trevar'
tp2837
a(S'Chase'
tp2838
a(S'Helmuth'
tp2839
a(S'Simone'
tp2840
a(S'Darrel'
tp2841
a(S'Calvin'
tp2842
a(S'Aylmer'
tp2843
a(S'Salem'
tp2844
a(S'Goran'
tp2845
a(S'Avram'
tp2846
a(S'Lev'
tp2847
a(S'Apostolos'
tp2848
a(S'Finn'
tp2849
a(S'Bartholomeo'
tp2850
a(S'Geof'
tp2851
a(S'Hector'
tp2852
a(S'Glenn'
tp2853
a(S'Warden'
tp2854
a(S'Meir'
tp2855
a(S'Jabez'
tp2856
a(S'Constantinos'
tp2857
a(S'Taddeus'
tp2858
a(S'Torrence'
tp2859
a(S'Wang'
tp2860
a(S'Rutter'
tp2861
a(S'Johnnie'
tp2862
a(S'Sylvan'
tp2863
a(S'Hermon'
tp2864
a(S'Drake'
tp2865
a(S'Judson'
tp2866
a(S'Filip'
tp2867
a(S'Whitney'
tp2868
a(S'Gregorio'
tp2869
a(S'Heywood'
tp2870
a(S'Thad'
tp2871
a(S'Porter'
tp2872
a(S'Sullivan'
tp2873
a(S'Red'
tp2874
a(S'Morrie'
tp2875
a(S'Parrnell'
tp2876
a(S'Gonzalo'
tp2877
a(S'Tomkin'
tp2878
a(S'Chris'
tp2879
a(S'Roland'
tp2880
a(S'Romeo'
tp2881
a(S'Karim'
tp2882
a(S'Alfred'
tp2883
a(S'Elbert'
tp2884
a(S'Francisco'
tp2885
a(S'Charlie'
tp2886
a(S'Brook'
tp2887
a(S'Barr'
tp2888
a(S'Skippy'
tp2889
a(S'Dimitry'
tp2890
a(S'Douggie'
tp2891
a(S'Kingsley'
tp2892
a(S'Miles'
tp2893
a(S'Worth'
tp2894
a(S'Klaus'
tp2895
a(S'Ignace'
tp2896
a(S'Wolfram'
tp2897
a(S'Gardiner'
tp2898
a(S'John-David'
tp2899
a(S'Rufe'
tp2900
a(S'Welch'
tp2901
a(S'Silvester'
tp2902
a(S'Tracey'
tp2903
a(S'Kimball'
tp2904
a(S'See'
tp2905
a(S'Levy'
tp2906
a(S'Laurance'
tp2907
a(S'Hoyt'
tp2908
a(S'John-Patrick'
tp2909
a(S'Baillie'
tp2910
a(S'Sloan'
tp2911
a(S'Lazlo'
tp2912
a(S'Puff'
tp2913
a(S'Rutledge'
tp2914
a(S'Keefe'
tp2915
a(S'Gardener'
tp2916
a(S'Zedekiah'
tp2917
a(S'Cortese'
tp2918
a(S'Broddy'
tp2919
a(S'Curt'
tp2920
a(S'Germaine'
tp2921
a(S'Piggy'
tp2922
a(S'Mack'
tp2923
a(S'Morty'
tp2924
a(S'Bertrand'
tp2925
a(S'Heinrich'
tp2926
a(S'Dominique'
tp2927
a(S'Abelard'
tp2928
a(S'Bernardo'
tp2929
a(S'Theobald'
tp2930
a(S'Shepard'
tp2931
a(S'Klee'
tp2932
a(S'Tiebold'
tp2933
a(S'Eldon'
tp2934
a(S'Janos'
tp2935
a(S'Marlin'
tp2936
a(S'Griff'
tp2937
a(S'Natale'
tp2938
a(S'Creighton'
tp2939
a(S'Benito'
tp2940
a(S'Emmery'
tp2941
a(S'Han'
tp2942
a(S'Lenny'
tp2943
a(S'Pasquale'
tp2944
a(S'Tommie'
tp2945
a(S'Giordano'
tp2946
a(S'Myron'
tp2947
atRp2948
.