(lp0
(lp1
S'Aamir'
p2
aa(lp3
S'Aaron'
p4
aa(lp5
S'Abbey'
p6
aa(lp7
S'Abbie'
p8
aa(lp9
S'Abbot'
p10
aa(lp11
S'Abbott'
p12
aa(lp13
S'Abby'
p14
aa(lp15
S'Abdel'
p16
aa(lp17
S'Abdul'
p18
aa(lp19
S'Abdulkarim'
p20
aa(lp21
S'Abdullah'
p22
aa(lp23
S'Abe'
p24
aa(lp25
S'Abel'
p26
aa(lp27
S'Abelard'
p28
aa(lp29
S'Abner'
p30
aa(lp31
S'Abraham'
p32
aa(lp33
S'Abram'
p34
aa(lp35
S'Ace'
p36
aa(lp37
S'Adair'
p38
aa(lp39
S'Adam'
p40
aa(lp41
S'Adams'
p42
aa(lp43
S'Addie'
p44
aa(lp45
S'Adger'
p46
aa(lp47
S'Aditya'
p48
aa(lp49
S'Adlai'
p50
aa(lp51
S'Adnan'
p52
aa(lp53
S'Adolf'
p54
aa(lp55
S'Adolfo'
p56
aa(lp57
S'Adolph'
p58
aa(lp59
S'Adolphe'
p60
aa(lp61
S'Adolpho'
p62
aa(lp63
S'Adolphus'
p64
aa(lp65
S'Adrian'
p66
aa(lp67
S'Adrick'
p68
aa(lp69
S'Adrien'
p70
aa(lp71
S'Agamemnon'
p72
aa(lp73
S'Aguinaldo'
p74
aa(lp75
S'Aguste'
p76
aa(lp77
S'Agustin'
p78
aa(lp79
S'Aharon'
p80
aa(lp81
S'Ahmad'
p82
aa(lp83
S'Ahmed'
p84
aa(lp85
S'Ahmet'
p86
aa(lp87
S'Ajai'
p88
aa(lp89
S'Ajay'
p90
aa(lp91
S'Al'
p92
aa(lp93
S'Alaa'
p94
aa(lp95
S'Alain'
p96
aa(lp97
S'Alan'
p98
aa(lp99
S'Alasdair'
p100
aa(lp101
S'Alastair'
p102
aa(lp103
S'Albatros'
p104
aa(lp105
S'Albert'
p106
aa(lp107
S'Alberto'
p108
aa(lp109
S'Albrecht'
p110
aa(lp111
S'Alden'
p112
aa(lp113
S'Aldis'
p114
aa(lp115
S'Aldo'
p116
aa(lp117
S'Aldric'
p118
aa(lp119
S'Aldrich'
p120
aa(lp121
S'Aldus'
p122
aa(lp123
S'Aldwin'
p124
aa(lp125
S'Alec'
p126
aa(lp127
S'Aleck'
p128
aa(lp129
S'Alejandro'
p130
aa(lp131
S'Aleks'
p132
aa(lp133
S'Aleksandrs'
p134
aa(lp135
S'Alessandro'
p136
aa(lp137
S'Alex'
p138
aa(lp139
S'Alexander'
p140
aa(lp141
S'Alexei'
p142
aa(lp143
S'Alexis'
p144
aa(lp145
S'Alf'
p146
aa(lp147
S'Alfie'
p148
aa(lp149
S'Alfonse'
p150
aa(lp151
S'Alfonso'
p152
aa(lp153
S'Alfonzo'
p154
aa(lp155
S'Alford'
p156
aa(lp157
S'Alfred'
p158
aa(lp159
S'Alfredo'
p160
aa(lp161
S'Algernon'
p162
aa(lp163
S'Ali'
p164
aa(lp165
S'Alic'
p166
aa(lp167
S'Alister'
p168
aa(lp169
S'Alix'
p170
aa(lp171
S'Allah'
p172
aa(lp173
S'Allan'
p174
aa(lp175
S'Allen'
p176
aa(lp177
S'Alley'
p178
aa(lp179
S'Allie'
p180
aa(lp181
S'Allin'
p182
aa(lp183
S'Allyn'
p184
aa(lp185
S'Alonso'
p186
aa(lp187
S'Alonzo'
p188
aa(lp189
S'Aloysius'
p190
aa(lp191
S'Alphonse'
p192
aa(lp193
S'Alphonso'
p194
aa(lp195
S'Alston'
p196
aa(lp197
S'Alton'
p198
aa(lp199
S'Alvin'
p200
aa(lp201
S'Alwin'
p202
aa(lp203
S'Amadeus'
p204
aa(lp205
S'Ambros'
p206
aa(lp207
S'Ambrose'
p208
aa(lp209
S'Ambrosi'
p210
aa(lp211
S'Ambrosio'
p212
aa(lp213
S'Ambrosius'
p214
aa(lp215
S'Amery'
p216
aa(lp217
S'Amory'
p218
aa(lp219
S'Amos'
p220
aa(lp221
S'Anatol'
p222
aa(lp223
S'Anatole'
p224
aa(lp225
S'Anatollo'
p226
aa(lp227
S'Anatoly'
p228
aa(lp229
S'Anders'
p230
aa(lp231
S'Andie'
p232
aa(lp233
S'Andonis'
p234
aa(lp235
S'Andre'
p236
aa(lp237
S'Andrea'
p238
aa(lp239
S'Andreas'
p240
aa(lp241
S'Andrej'
p242
aa(lp243
S'Andres'
p244
aa(lp245
S'Andrew'
p246
aa(lp247
S'Andrey'
p248
aa(lp249
S'Andri'
p250
aa(lp251
S'Andros'
p252
aa(lp253
S'Andrus'
p254
aa(lp255
S'Andrzej'
p256
aa(lp257
S'Andy'
p258
aa(lp259
S'Angel'
p260
aa(lp261
S'Angelico'
p262
aa(lp263
S'Angelo'
p264
aa(lp265
S'Angie'
p266
aa(lp267
S'Angus'
p268
aa(lp269
S'Ansel'
p270
aa(lp271
S'Ansell'
p272
aa(lp273
S'Anselm'
p274
aa(lp275
S'Anson'
p276
aa(lp277
S'Anthony'
p278
aa(lp279
S'Antin'
p280
aa(lp281
S'Antoine'
p282
aa(lp283
S'Anton'
p284
aa(lp285
S'Antone'
p286
aa(lp287
S'Antoni'
p288
aa(lp289
S'Antonin'
p290
aa(lp291
S'Antonino'
p292
aa(lp293
S'Antonio'
p294
aa(lp295
S'Antonius'
p296
aa(lp297
S'Antony'
p298
aa(lp299
S'Anurag'
p300
aa(lp301
S'Apollo'
p302
aa(lp303
S'Apostolos'
p304
aa(lp305
S'Aram'
p306
aa(lp307
S'Archibald'
p308
aa(lp309
S'Archibold'
p310
aa(lp311
S'Archie'
p312
aa(lp313
S'Archon'
p314
aa(lp315
S'Archy'
p316
aa(lp317
S'Arel'
p318
aa(lp319
S'Ari'
p320
aa(lp321
S'Arie'
p322
aa(lp323
S'Ariel'
p324
aa(lp325
S'Aristotle'
p326
aa(lp327
S'Arlo'
p328
aa(lp329
S'Armand'
p330
aa(lp331
S'Armando'
p332
aa(lp333
S'Armond'
p334
aa(lp335
S'Armstrong'
p336
aa(lp337
S'Arne'
p338
aa(lp339
S'Arnie'
p340
aa(lp341
S'Arnold'
p342
aa(lp343
S'Arnoldo'
p344
aa(lp345
S'Aron'
p346
aa(lp347
S'Arron'
p348
aa(lp349
S'Art'
p350
aa(lp351
S'Arther'
p352
aa(lp353
S'Arthur'
p354
aa(lp355
S'Artie'
p356
aa(lp357
S'Artur'
p358
aa(lp359
S'Arturo'
p360
aa(lp361
S'Arvie'
p362
aa(lp363
S'Arvin'
p364
aa(lp365
S'Arvind'
p366
aa(lp367
S'Arvy'
p368
aa(lp369
S'Ash'
p370
aa(lp371
S'Ashby'
p372
aa(lp373
S'Ashish'
p374
aa(lp375
S'Ashley'
p376
aa(lp377
S'Ashton'
p378
aa(lp379
S'Aub'
p380
aa(lp381
S'Aube'
p382
aa(lp383
S'Aubert'
p384
aa(lp385
S'Aubrey'
p386
aa(lp387
S'Augie'
p388
aa(lp389
S'August'
p390
aa(lp391
S'Augustin'
p392
aa(lp393
S'Augustine'
p394
aa(lp395
S'Augusto'
p396
aa(lp397
S'Augustus'
p398
aa(lp399
S'Austen'
p400
aa(lp401
S'Austin'
p402
aa(lp403
S'Ave'
p404
aa(lp405
S'Averell'
p406
aa(lp407
S'Averil'
p408
aa(lp409
S'Averill'
p410
aa(lp411
S'Avery'
p412
aa(lp413
S'Avi'
p414
aa(lp415
S'Avraham'
p416
aa(lp417
S'Avram'
p418
aa(lp419
S'Avrom'
p420
aa(lp421
S'Axel'
p422
aa(lp423
S'Aylmer'
p424
aa(lp425
S'Aziz'
p426
aa(lp427
S'Bailey'
p428
aa(lp429
S'Bailie'
p430
aa(lp431
S'Baillie'
p432
aa(lp433
S'Baily'
p434
aa(lp435
S'Baird'
p436
aa(lp437
S'Baldwin'
p438
aa(lp439
S'Bancroft'
p440
aa(lp441
S'Barbabas'
p442
aa(lp443
S'Barclay'
p444
aa(lp445
S'Bard'
p446
aa(lp447
S'Barde'
p448
aa(lp449
S'Barn'
p450
aa(lp451
S'Barnabas'
p452
aa(lp453
S'Barnabe'
p454
aa(lp455
S'Barnaby'
p456
aa(lp457
S'Barnard'
p458
aa(lp459
S'Barnebas'
p460
aa(lp461
S'Barnett'
p462
aa(lp463
S'Barney'
p464
aa(lp465
S'Barnie'
p466
aa(lp467
S'Barny'
p468
aa(lp469
S'Baron'
p470
aa(lp471
S'Barr'
p472
aa(lp473
S'Barret'
p474
aa(lp475
S'Barrett'
p476
aa(lp477
S'Barri'
p478
aa(lp479
S'Barrie'
p480
aa(lp481
S'Barris'
p482
aa(lp483
S'Barron'
p484
aa(lp485
S'Barry'
p486
aa(lp487
S'Bart'
p488
aa(lp489
S'Bartel'
p490
aa(lp491
S'Barth'
p492
aa(lp493
S'Barthel'
p494
aa(lp495
S'Bartholemy'
p496
aa(lp497
S'Bartholomeo'
p498
aa(lp499
S'Bartholomeus'
p500
aa(lp501
S'Bartholomew'
p502
aa(lp503
S'Bartie'
p504
aa(lp505
S'Bartlet'
p506
aa(lp507
S'Bartlett'
p508
aa(lp509
S'Bartolemo'
p510
aa(lp511
S'Bartolomei'
p512
aa(lp513
S'Bartolomeo'
p514
aa(lp515
S'Barton'
p516
aa(lp517
S'Barty'
p518
aa(lp519
S'Bary'
p520
aa(lp521
S'Basil'
p522
aa(lp523
S'Batholomew'
p524
aa(lp525
S'Baxter'
p526
aa(lp527
S'Bay'
p528
aa(lp529
S'Bayard'
p530
aa(lp531
S'Beale'
p532
aa(lp533
S'Bealle'
p534
aa(lp535
S'Bear'
p536
aa(lp537
S'Bearnard'
p538
aa(lp539
S'Beau'
p540
aa(lp541
S'Beaufort'
p542
aa(lp543
S'Beauregard'
p544
aa(lp545
S'Beck'
p546
aa(lp547
S'Bela'
p548
aa(lp549
S'Ben'
p550
aa(lp551
S'Benedict'
p552
aa(lp553
S'Bengt'
p554
aa(lp555
S'Benito'
p556
aa(lp557
S'Benjamen'
p558
aa(lp559
S'Benjamin'
p560
aa(lp561
S'Benji'
p562
aa(lp563
S'Benjie'
p564
aa(lp565
S'Benjy'
p566
aa(lp567
S'Benn'
p568
aa(lp569
S'Bennet'
p570
aa(lp571
S'Bennett'
p572
aa(lp573
S'Bennie'
p574
aa(lp575
S'Benny'
p576
aa(lp577
S'Benson'
p578
aa(lp579
S'Bentley'
p580
aa(lp581
S'Benton'
p582
aa(lp583
S'Beowulf'
p584
aa(lp585
S'Berchtold'
p586
aa(lp587
S'Berk'
p588
aa(lp589
S'Berke'
p590
aa(lp591
S'Berkeley'
p592
aa(lp593
S'Berkie'
p594
aa(lp595
S'Berkley'
p596
aa(lp597
S'Bernard'
p598
aa(lp599
S'Bernardo'
p600
aa(lp601
S'Bernd'
p602
aa(lp603
S'Bernhard'
p604
aa(lp605
S'Bernie'
p606
aa(lp607
S'Bert'
p608
aa(lp609
S'Bertie'
p610
aa(lp611
S'Bertram'
p612
aa(lp613
S'Bertrand'
p614
aa(lp615
S'Bharat'
p616
aa(lp617
S'Biff'
p618
aa(lp619
S'Bill'
p620
aa(lp621
S'Billie'
p622
aa(lp623
S'Billy'
p624
aa(lp625
S'Bing'
p626
aa(lp627
S'Binky'
p628
aa(lp629
S'Bishop'
p630
aa(lp631
S'Bjorn'
p632
aa(lp633
S'Bjorne'
p634
aa(lp635
S'Blaine'
p636
aa(lp637
S'Blair'
p638
aa(lp639
S'Blake'
p640
aa(lp641
S'Blare'
p642
aa(lp643
S'Blayne'
p644
aa(lp645
S'Bo'
p646
aa(lp647
S'Bob'
p648
aa(lp649
S'Bobbie'
p650
aa(lp651
S'Bobby'
p652
aa(lp653
S'Bogart'
p654
aa(lp655
S'Bogdan'
p656
aa(lp657
S'Boniface'
p658
aa(lp659
S'Boris'
p660
aa(lp661
S'Boyce'
p662
aa(lp663
S'Boyd'
p664
aa(lp665
S'Brad'
p666
aa(lp667
S'Braden'
p668
aa(lp669
S'Bradford'
p670
aa(lp671
S'Bradley'
p672
aa(lp673
S'Bradly'
p674
aa(lp675
S'Brady'
p676
aa(lp677
S'Brandon'
p678
aa(lp679
S'Brandy'
p680
aa(lp681
S'Brant'
p682
aa(lp683
S'Brendan'
p684
aa(lp685
S'Brent'
p686
aa(lp687
S'Bret'
p688
aa(lp689
S'Brett'
p690
aa(lp691
S'Brewer'
p692
aa(lp693
S'Brewster'
p694
aa(lp695
S'Brian'
p696
aa(lp697
S'Brice'
p698
aa(lp699
S'Briggs'
p700
aa(lp701
S'Brinkley'
p702
aa(lp703
S'Britt'
p704
aa(lp705
S'Brock'
p706
aa(lp707
S'Broddie'
p708
aa(lp709
S'Broddy'
p710
aa(lp711
S'Broderic'
p712
aa(lp713
S'Broderick'
p714
aa(lp715
S'Brodie'
p716
aa(lp717
S'Brody'
p718
aa(lp719
S'Bronson'
p720
aa(lp721
S'Brook'
p722
aa(lp723
S'Brooke'
p724
aa(lp725
S'Brooks'
p726
aa(lp727
S'Bruce'
p728
aa(lp729
S'Bruno'
p730
aa(lp731
S'Bryan'
p732
aa(lp733
S'Bryant'
p734
aa(lp735
S'Bryce'
p736
aa(lp737
S'Bryn'
p738
aa(lp739
S'Bryon'
p740
aa(lp741
S'Bubba'
p742
aa(lp743
S'Buck'
p744
aa(lp745
S'Bucky'
p746
aa(lp747
S'Bud'
p748
aa(lp749
S'Buddy'
p750
aa(lp751
S'Burgess'
p752
aa(lp753
S'Burke'
p754
aa(lp755
S'Burl'
p756
aa(lp757
S'Burnaby'
p758
aa(lp759
S'Burt'
p760
aa(lp761
S'Burton'
p762
aa(lp763
S'Buster'
p764
aa(lp765
S'Butch'
p766
aa(lp767
S'Butler'
p768
aa(lp769
S'Byram'
p770
aa(lp771
S'Byron'
p772
aa(lp773
S'Caesar'
p774
aa(lp775
S'Cain'
p776
aa(lp777
S'Cal'
p778
aa(lp779
S'Caldwell'
p780
aa(lp781
S'Caleb'
p782
aa(lp783
S'Calhoun'
p784
aa(lp785
S'Calvin'
p786
aa(lp787
S'Cam'
p788
aa(lp789
S'Cameron'
p790
aa(lp791
S'Cammy'
p792
aa(lp793
S'Carey'
p794
aa(lp795
S'Carl'
p796
aa(lp797
S'Carleigh'
p798
aa(lp799
S'Carlie'
p800
aa(lp801
S'Carlin'
p802
aa(lp803
S'Carlo'
p804
aa(lp805
S'Carlos'
p806
aa(lp807
S'Carlton'
p808
aa(lp809
S'Carlyle'
p810
aa(lp811
S'Carmine'
p812
aa(lp813
S'Carroll'
p814
aa(lp815
S'Carson'
p816
aa(lp817
S'Carsten'
p818
aa(lp819
S'Carter'
p820
aa(lp821
S'Cary'
p822
aa(lp823
S'Caryl'
p824
aa(lp825
S'Case'
p826
aa(lp827
S'Casey'
p828
aa(lp829
S'Caspar'
p830
aa(lp831
S'Casper'
p832
aa(lp833
S'Cass'
p834
aa(lp835
S'Cat'
p836
aa(lp837
S'Cecil'
p838
aa(lp839
S'Cesar'
p840
aa(lp841
S'Chad'
p842
aa(lp843
S'Chadd'
p844
aa(lp845
S'Chaddie'
p846
aa(lp847
S'Chaddy'
p848
aa(lp849
S'Chadwick'
p850
aa(lp851
S'Chaim'
p852
aa(lp853
S'Chalmers'
p854
aa(lp855
S'Chan'
p856
aa(lp857
S'Chance'
p858
aa(lp859
S'Chancey'
p860
aa(lp861
S'Chanderjit'
p862
aa(lp863
S'Chandler'
p864
aa(lp865
S'Chane'
p866
aa(lp867
S'Chariot'
p868
aa(lp869
S'Charles'
p870
aa(lp871
S'Charleton'
p872
aa(lp873
S'Charley'
p874
aa(lp875
S'Charlie'
p876
aa(lp877
S'Charlton'
p878
aa(lp879
S'Chas'
p880
aa(lp881
S'Chase'
p882
aa(lp883
S'Chaunce'
p884
aa(lp885
S'Chauncey'
p886
aa(lp887
S'Che'
p888
aa(lp889
S'Chelton'
p890
aa(lp891
S'Chen'
p892
aa(lp893
S'Chengkun'
p894
aa(lp895
S'Chester'
p896
aa(lp897
S'Cheston'
p898
aa(lp899
S'Chet'
p900
aa(lp901
S'Chev'
p902
aa(lp903
S'Chevalier'
p904
aa(lp905
S'Chevy'
p906
aa(lp907
S'Chip'
p908
aa(lp909
S'Chris'
p910
aa(lp911
S'Chrissy'
p912
aa(lp913
S'Christ'
p914
aa(lp915
S'Christian'
p916
aa(lp917
S'Christiano'
p918
aa(lp919
S'Christie'
p920
aa(lp921
S'Christof'
p922
aa(lp923
S'Christofer'
p924
aa(lp925
S'Christoph'
p926
aa(lp927
S'Christophe'
p928
aa(lp929
S'Christopher'
p930
aa(lp931
S'Christorpher'
p932
aa(lp933
S'Christos'
p934
aa(lp935
S'Christy'
p936
aa(lp937
S'Chrisy'
p938
aa(lp939
S'Chuck'
p940
aa(lp941
S'Churchill'
p942
aa(lp943
S'Clair'
p944
aa(lp945
S'Claire'
p946
aa(lp947
S'Clancy'
p948
aa(lp949
S'Clarance'
p950
aa(lp951
S'Clare'
p952
aa(lp953
S'Clarence'
p954
aa(lp955
S'Clark'
p956
aa(lp957
S'Clarke'
p958
aa(lp959
S'Claude'
p960
aa(lp961
S'Claudio'
p962
aa(lp963
S'Claudius'
p964
aa(lp965
S'Claus'
p966
aa(lp967
S'Clay'
p968
aa(lp969
S'Clayborn'
p970
aa(lp971
S'Clayborne'
p972
aa(lp973
S'Claybourne'
p974
aa(lp975
S'Clayton'
p976
aa(lp977
S'Cleland'
p978
aa(lp979
S'Clem'
p980
aa(lp981
S'Clemens'
p982
aa(lp983
S'Clement'
p984
aa(lp985
S'Clemente'
p986
aa(lp987
S'Clemmie'
p988
aa(lp989
S'Cletus'
p990
aa(lp991
S'Cleveland'
p992
aa(lp993
S'Cliff'
p994
aa(lp995
S'Clifford'
p996
aa(lp997
S'Clifton'
p998
aa(lp999
S'Clint'
p1000
aa(lp1001
S'Clinten'
p1002
aa(lp1003
S'Clinton'
p1004
aa(lp1005
S'Clive'
p1006
aa(lp1007
S'Clyde'
p1008
aa(lp1009
S'Cob'
p1010
aa(lp1011
S'Cobb'
p1012
aa(lp1013
S'Cobbie'
p1014
aa(lp1015
S'Cobby'
p1016
aa(lp1017
S'Cody'
p1018
aa(lp1019
S'Colbert'
p1020
aa(lp1021
S'Cole'
p1022
aa(lp1023
S'Coleman'
p1024
aa(lp1025
S'Colin'
p1026
aa(lp1027
S'Collin'
p1028
aa(lp1029
S'Collins'
p1030
aa(lp1031
S'Conan'
p1032
aa(lp1033
S'Connie'
p1034
aa(lp1035
S'Connolly'
p1036
aa(lp1037
S'Connor'
p1038
aa(lp1039
S'Conrad'
p1040
aa(lp1041
S'Conroy'
p1042
aa(lp1043
S'Constantin'
p1044
aa(lp1045
S'Constantine'
p1046
aa(lp1047
S'Constantinos'
p1048
aa(lp1049
S'Conway'
p1050
aa(lp1051
S'Cooper'
p1052
aa(lp1053
S'Corbin'
p1054
aa(lp1055
S'Corby'
p1056
aa(lp1057
S'Corey'
p1058
aa(lp1059
S'Corky'
p1060
aa(lp1061
S'Cornelius'
p1062
aa(lp1063
S'Cornellis'
p1064
aa(lp1065
S'Corrie'
p1066
aa(lp1067
S'Cortese'
p1068
aa(lp1069
S'Corwin'
p1070
aa(lp1071
S'Cory'
p1072
aa(lp1073
S'Cosmo'
p1074
aa(lp1075
S'Costa'
p1076
aa(lp1077
S'Courtney'
p1078
aa(lp1079
S'Craig'
p1080
aa(lp1081
S'Crawford'
p1082
aa(lp1083
S'Creighton'
p1084
aa(lp1085
S'Cris'
p1086
aa(lp1087
S'Cristopher'
p1088
aa(lp1089
S'Curt'
p1090
aa(lp1091
S'Curtice'
p1092
aa(lp1093
S'Curtis'
p1094
aa(lp1095
S'Cy'
p1096
aa(lp1097
S'Cyril'
p1098
aa(lp1099
S'Cyrill'
p1100
aa(lp1101
S'Cyrille'
p1102
aa(lp1103
S'Cyrillus'
p1104
aa(lp1105
S'Cyrus'
p1106
aa(lp1107
S'Dabney'
p1108
aa(lp1109
S'Daffy'
p1110
aa(lp1111
S'Dale'
p1112
aa(lp1113
S'Dallas'
p1114
aa(lp1115
S'Dalton'
p1116
aa(lp1117
S'Damian'
p1118
aa(lp1119
S'Damien'
p1120
aa(lp1121
S'Damon'
p1122
aa(lp1123
S'Dan'
p1124
aa(lp1125
S'Dana'
p1126
aa(lp1127
S'Dane'
p1128
aa(lp1129
S'Dani'
p1130
aa(lp1131
S'Danie'
p1132
aa(lp1133
S'Daniel'
p1134
aa(lp1135
S'Dannie'
p1136
aa(lp1137
S'Danny'
p1138
aa(lp1139
S'Dante'
p1140
aa(lp1141
S'Darby'
p1142
aa(lp1143
S'Darcy'
p1144
aa(lp1145
S'Daren'
p1146
aa(lp1147
S'Darian'
p1148
aa(lp1149
S'Darien'
p1150
aa(lp1151
S'Darin'
p1152
aa(lp1153
S'Dario'
p1154
aa(lp1155
S'Darius'
p1156
aa(lp1157
S'Darrel'
p1158
aa(lp1159
S'Darrell'
p1160
aa(lp1161
S'Darren'
p1162
aa(lp1163
S'Darrick'
p1164
aa(lp1165
S'Darrin'
p1166
aa(lp1167
S'Darryl'
p1168
aa(lp1169
S'Darth'
p1170
aa(lp1171
S'Darwin'
p1172
aa(lp1173
S'Daryl'
p1174
aa(lp1175
S'Daryle'
p1176
aa(lp1177
S'Dave'
p1178
aa(lp1179
S'Davey'
p1180
aa(lp1181
S'David'
p1182
aa(lp1183
S'Davidde'
p1184
aa(lp1185
S'Davide'
p1186
aa(lp1187
S'Davidson'
p1188
aa(lp1189
S'Davie'
p1190
aa(lp1191
S'Davin'
p1192
aa(lp1193
S'Davis'
p1194
aa(lp1195
S'Davon'
p1196
aa(lp1197
S'Davoud'
p1198
aa(lp1199
S'Davy'
p1200
aa(lp1201
S'Dawson'
p1202
aa(lp1203
S'Dean'
p1204
aa(lp1205
S'Deane'
p1206
aa(lp1207
S'Del'
p1208
aa(lp1209
S'Delbert'
p1210
aa(lp1211
S'Dell'
p1212
aa(lp1213
S'Delmar'
p1214
aa(lp1215
S'Demetre'
p1216
aa(lp1217
S'Demetri'
p1218
aa(lp1219
S'Demetris'
p1220
aa(lp1221
S'Demetrius'
p1222
aa(lp1223
S'Demosthenis'
p1224
aa(lp1225
S'Denis'
p1226
aa(lp1227
S'Dennie'
p1228
aa(lp1229
S'Dennis'
p1230
aa(lp1231
S'Denny'
p1232
aa(lp1233
S'Derby'
p1234
aa(lp1235
S'Derek'
p1236
aa(lp1237
S'Derick'
p1238
aa(lp1239
S'Derk'
p1240
aa(lp1241
S'Derrek'
p1242
aa(lp1243
S'Derrick'
p1244
aa(lp1245
S'Derrin'
p1246
aa(lp1247
S'Derrol'
p1248
aa(lp1249
S'Derron'
p1250
aa(lp1251
S'Deryl'
p1252
aa(lp1253
S'Desmond'
p1254
aa(lp1255
S'Desmund'
p1256
aa(lp1257
S'Devin'
p1258
aa(lp1259
S'Devon'
p1260
aa(lp1261
S'Dewey'
p1262
aa(lp1263
S'Dewitt'
p1264
aa(lp1265
S'Dexter'
p1266
aa(lp1267
S'Dick'
p1268
aa(lp1269
S'Dickey'
p1270
aa(lp1271
S'Dickie'
p1272
aa(lp1273
S'Diego'
p1274
aa(lp1275
S'Dieter'
p1276
aa(lp1277
S'Dietrich'
p1278
aa(lp1279
S'Dillon'
p1280
aa(lp1281
S'Dimitri'
p1282
aa(lp1283
S'Dimitrios'
p1284
aa(lp1285
S'Dimitris'
p1286
aa(lp1287
S'Dimitrou'
p1288
aa(lp1289
S'Dimitry'
p1290
aa(lp1291
S'Dino'
p1292
aa(lp1293
S'Dion'
p1294
aa(lp1295
S'Dionis'
p1296
aa(lp1297
S'Dionysus'
p1298
aa(lp1299
S'Dirk'
p1300
aa(lp1301
S'Dmitri'
p1302
aa(lp1303
S'Dom'
p1304
aa(lp1305
S'Domenic'
p1306
aa(lp1307
S'Domenico'
p1308
aa(lp1309
S'Dominic'
p1310
aa(lp1311
S'Dominick'
p1312
aa(lp1313
S'Dominique'
p1314
aa(lp1315
S'Don'
p1316
aa(lp1317
S'Donal'
p1318
aa(lp1319
S'Donald'
p1320
aa(lp1321
S'Donn'
p1322
aa(lp1323
S'Donnie'
p1324
aa(lp1325
S'Donny'
p1326
aa(lp1327
S'Donovan'
p1328
aa(lp1329
S'Dorian'
p1330
aa(lp1331
S'Dory'
p1332
aa(lp1333
S'Doug'
p1334
aa(lp1335
S'Douggie'
p1336
aa(lp1337
S'Dougie'
p1338
aa(lp1339
S'Douglas'
p1340
aa(lp1341
S'Douglass'
p1342
aa(lp1343
S'Douglis'
p1344
aa(lp1345
S'Dov'
p1346
aa(lp1347
S'Doyle'
p1348
aa(lp1349
S'Drake'
p1350
aa(lp1351
S'Drew'
p1352
aa(lp1353
S'Dru'
p1354
aa(lp1355
S'Dryke'
p1356
aa(lp1357
S'Duane'
p1358
aa(lp1359
S'Dudley'
p1360
aa(lp1361
S'Duffie'
p1362
aa(lp1363
S'Duffy'
p1364
aa(lp1365
S'Dugan'
p1366
aa(lp1367
S'Duke'
p1368
aa(lp1369
S'Dunc'
p1370
aa(lp1371
S'Duncan'
p1372
aa(lp1373
S'Dunstan'
p1374
aa(lp1375
S'Durand'
p1376
aa(lp1377
S'Durant'
p1378
aa(lp1379
S'Durante'
p1380
aa(lp1381
S'Durward'
p1382
aa(lp1383
S'Dustin'
p1384
aa(lp1385
S'Dwain'
p1386
aa(lp1387
S'Dwaine'
p1388
aa(lp1389
S'Dwane'
p1390
aa(lp1391
S'Dwayne'
p1392
aa(lp1393
S'Dwight'
p1394
aa(lp1395
S'Dylan'
p1396
aa(lp1397
S'Dyson'
p1398
aa(lp1399
S'Earl'
p1400
aa(lp1401
S'Earle'
p1402
aa(lp1403
S'Easton'
p1404
aa(lp1405
S'Eben'
p1406
aa(lp1407
S'Ebeneser'
p1408
aa(lp1409
S'Ebenezer'
p1410
aa(lp1411
S'Eberhard'
p1412
aa(lp1413
S'Ed'
p1414
aa(lp1415
S'Eddie'
p1416
aa(lp1417
S'Eddy'
p1418
aa(lp1419
S'Edgar'
p1420
aa(lp1421
S'Edgardo'
p1422
aa(lp1423
S'Edie'
p1424
aa(lp1425
S'Edmond'
p1426
aa(lp1427
S'Edmund'
p1428
aa(lp1429
S'Edouard'
p1430
aa(lp1431
S'Edsel'
p1432
aa(lp1433
S'Eduard'
p1434
aa(lp1435
S'Eduardo'
p1436
aa(lp1437
S'Edward'
p1438
aa(lp1439
S'Edwin'
p1440
aa(lp1441
S'Efram'
p1442
aa(lp1443
S'Egbert'
p1444
aa(lp1445
S'Ehud'
p1446
aa(lp1447
S'Elbert'
p1448
aa(lp1449
S'Elden'
p1450
aa(lp1451
S'Eldon'
p1452
aa(lp1453
S'Eli'
p1454
aa(lp1455
S'Elias'
p1456
aa(lp1457
S'Elihu'
p1458
aa(lp1459
S'Elijah'
p1460
aa(lp1461
S'Eliot'
p1462
aa(lp1463
S'Eliott'
p1464
aa(lp1465
S'Elisha'
p1466
aa(lp1467
S'Elliot'
p1468
aa(lp1469
S'Elliott'
p1470
aa(lp1471
S'Ellis'
p1472
aa(lp1473
S'Ellsworth'
p1474
aa(lp1475
S'Ellwood'
p1476
aa(lp1477
S'Elmer'
p1478
aa(lp1479
S'Elmore'
p1480
aa(lp1481
S'Elnar'
p1482
aa(lp1483
S'Elric'
p1484
aa(lp1485
S'Elroy'
p1486
aa(lp1487
S'Elton'
p1488
aa(lp1489
S'Elvin'
p1490
aa(lp1491
S'Elvis'
p1492
aa(lp1493
S'Elwin'
p1494
aa(lp1495
S'Elwood'
p1496
aa(lp1497
S'Elwyn'
p1498
aa(lp1499
S'Ely'
p1500
aa(lp1501
S'Emanuel'
p1502
aa(lp1503
S'Emerson'
p1504
aa(lp1505
S'Emery'
p1506
aa(lp1507
S'Emil'
p1508
aa(lp1509
S'Emile'
p1510
aa(lp1511
S'Emilio'
p1512
aa(lp1513
S'Emmanuel'
p1514
aa(lp1515
S'Emmery'
p1516
aa(lp1517
S'Emmet'
p1518
aa(lp1519
S'Emmett'
p1520
aa(lp1521
S'Emmit'
p1522
aa(lp1523
S'Emmott'
p1524
aa(lp1525
S'Emmy'
p1526
aa(lp1527
S'Emory'
p1528
aa(lp1529
S'Ender'
p1530
aa(lp1531
S'Engelbart'
p1532
aa(lp1533
S'Engelbert'
p1534
aa(lp1535
S'Englebart'
p1536
aa(lp1537
S'Englebert'
p1538
aa(lp1539
S'Enoch'
p1540
aa(lp1541
S'Enrico'
p1542
aa(lp1543
S'Enrique'
p1544
aa(lp1545
S'Ephraim'
p1546
aa(lp1547
S'Ephram'
p1548
aa(lp1549
S'Ephrayim'
p1550
aa(lp1551
S'Ephrem'
p1552
aa(lp1553
S'Er'
p1554
aa(lp1555
S'Erasmus'
p1556
aa(lp1557
S'Erastus'
p1558
aa(lp1559
S'Erek'
p1560
aa(lp1561
S'Erhard'
p1562
aa(lp1563
S'Erhart'
p1564
aa(lp1565
S'Eric'
p1566
aa(lp1567
S'Erich'
p1568
aa(lp1569
S'Erick'
p1570
aa(lp1571
S'Erik'
p1572
aa(lp1573
S'Erin'
p1574
aa(lp1575
S'Erl'
p1576
aa(lp1577
S'Ernest'
p1578
aa(lp1579
S'Ernesto'
p1580
aa(lp1581
S'Ernie'
p1582
aa(lp1583
S'Ernst'
p1584
aa(lp1585
S'Erny'
p1586
aa(lp1587
S'Errol'
p1588
aa(lp1589
S'Ervin'
p1590
aa(lp1591
S'Erwin'
p1592
aa(lp1593
S'Esau'
p1594
aa(lp1595
S'Esme'
p1596
aa(lp1597
S'Esteban'
p1598
aa(lp1599
S'Ethan'
p1600
aa(lp1601
S'Ethelbert'
p1602
aa(lp1603
S'Ethelred'
p1604
aa(lp1605
S'Etienne'
p1606
aa(lp1607
S'Euclid'
p1608
aa(lp1609
S'Eugen'
p1610
aa(lp1611
S'Eugene'
p1612
aa(lp1613
S'Eustace'
p1614
aa(lp1615
S'Ev'
p1616
aa(lp1617
S'Evan'
p1618
aa(lp1619
S'Evelyn'
p1620
aa(lp1621
S'Everard'
p1622
aa(lp1623
S'Everett'
p1624
aa(lp1625
S'Ewan'
p1626
aa(lp1627
S'Ewart'
p1628
aa(lp1629
S'Ez'
p1630
aa(lp1631
S'Ezechiel'
p1632
aa(lp1633
S'Ezekiel'
p1634
aa(lp1635
S'Ezra'
p1636
aa(lp1637
S'Fabian'
p1638
aa(lp1639
S'Fabio'
p1640
aa(lp1641
S'Fairfax'
p1642
aa(lp1643
S'Farley'
p1644
aa(lp1645
S'Fazeel'
p1646
aa(lp1647
S'Federico'
p1648
aa(lp1649
S'Felice'
p1650
aa(lp1651
S'Felicio'
p1652
aa(lp1653
S'Felipe'
p1654
aa(lp1655
S'Felix'
p1656
aa(lp1657
S'Ferd'
p1658
aa(lp1659
S'Ferdie'
p1660
aa(lp1661
S'Ferdinand'
p1662
aa(lp1663
S'Ferdy'
p1664
aa(lp1665
S'Fergus'
p1666
aa(lp1667
S'Ferguson'
p1668
aa(lp1669
S'Ferinand'
p1670
aa(lp1671
S'Fernando'
p1672
aa(lp1673
S'Fidel'
p1674
aa(lp1675
S'Filbert'
p1676
aa(lp1677
S'Filip'
p1678
aa(lp1679
S'Filipe'
p1680
aa(lp1681
S'Filmore'
p1682
aa(lp1683
S'Finley'
p1684
aa(lp1685
S'Finn'
p1686
aa(lp1687
S'Fitz'
p1688
aa(lp1689
S'Fitzgerald'
p1690
aa(lp1691
S'Flem'
p1692
aa(lp1693
S'Fleming'
p1694
aa(lp1695
S'Flemming'
p1696
aa(lp1697
S'Fletch'
p1698
aa(lp1699
S'Fletcher'
p1700
aa(lp1701
S'Flin'
p1702
aa(lp1703
S'Flinn'
p1704
aa(lp1705
S'Flint'
p1706
aa(lp1707
S'Flipper'
p1708
aa(lp1709
S'Florian'
p1710
aa(lp1711
S'Floyd'
p1712
aa(lp1713
S'Flynn'
p1714
aa(lp1715
S'Fons'
p1716
aa(lp1717
S'Fonsie'
p1718
aa(lp1719
S'Fonz'
p1720
aa(lp1721
S'Fonzie'
p1722
aa(lp1723
S'Forbes'
p1724
aa(lp1725
S'Ford'
p1726
aa(lp1727
S'Forest'
p1728
aa(lp1729
S'Forester'
p1730
aa(lp1731
S'Forrest'
p1732
aa(lp1733
S'Forrester'
p1734
aa(lp1735
S'Forster'
p1736
aa(lp1737
S'Foster'
p1738
aa(lp1739
S'Fowler'
p1740
aa(lp1741
S'Fox'
p1742
aa(lp1743
S'Fran'
p1744
aa(lp1745
S'Francesco'
p1746
aa(lp1747
S'Francis'
p1748
aa(lp1749
S'Francisco'
p1750
aa(lp1751
S'Francois'
p1752
aa(lp1753
S'Frank'
p1754
aa(lp1755
S'Frankie'
p1756
aa(lp1757
S'Franklin'
p1758
aa(lp1759
S'Franklyn'
p1760
aa(lp1761
S'Franky'
p1762
aa(lp1763
S'Frans'
p1764
aa(lp1765
S'Franz'
p1766
aa(lp1767
S'Fraser'
p1768
aa(lp1769
S'Frazier'
p1770
aa(lp1771
S'Fred'
p1772
aa(lp1773
S'Freddie'
p1774
aa(lp1775
S'Freddy'
p1776
aa(lp1777
S'Frederic'
p1778
aa(lp1779
S'Frederich'
p1780
aa(lp1781
S'Frederick'
p1782
aa(lp1783
S'Frederico'
p1784
aa(lp1785
S'Frederik'
p1786
aa(lp1787
S'Fredric'
p1788
aa(lp1789
S'Fredrick'
p1790
aa(lp1791
S'Freeman'
p1792
aa(lp1793
S'Freemon'
p1794
aa(lp1795
S'Fremont'
p1796
aa(lp1797
S'French'
p1798
aa(lp1799
S'Friedric'
p1800
aa(lp1801
S'Friedrich'
p1802
aa(lp1803
S'Friedrick'
p1804
aa(lp1805
S'Fritz'
p1806
aa(lp1807
S'Fulton'
p1808
aa(lp1809
S'Fyodor'
p1810
aa(lp1811
S'Gabe'
p1812
aa(lp1813
S'Gabriel'
p1814
aa(lp1815
S'Gabriele'
p1816
aa(lp1817
S'Gabriell'
p1818
aa(lp1819
S'Gabriello'
p1820
aa(lp1821
S'Gail'
p1822
aa(lp1823
S'Gale'
p1824
aa(lp1825
S'Galen'
p1826
aa(lp1827
S'Gallagher'
p1828
aa(lp1829
S'Gamaliel'
p1830
aa(lp1831
S'Garcia'
p1832
aa(lp1833
S'Garcon'
p1834
aa(lp1835
S'Gardener'
p1836
aa(lp1837
S'Gardiner'
p1838
aa(lp1839
S'Gardner'
p1840
aa(lp1841
S'Garey'
p1842
aa(lp1843
S'Garfield'
p1844
aa(lp1845
S'Garfinkel'
p1846
aa(lp1847
S'Garold'
p1848
aa(lp1849
S'Garp'
p1850
aa(lp1851
S'Garret'
p1852
aa(lp1853
S'Garrett'
p1854
aa(lp1855
S'Garrot'
p1856
aa(lp1857
S'Garrott'
p1858
aa(lp1859
S'Garry'
p1860
aa(lp1861
S'Garth'
p1862
aa(lp1863
S'Garv'
p1864
aa(lp1865
S'Garvey'
p1866
aa(lp1867
S'Garvin'
p1868
aa(lp1869
S'Garvy'
p1870
aa(lp1871
S'Garwin'
p1872
aa(lp1873
S'Garwood'
p1874
aa(lp1875
S'Gary'
p1876
aa(lp1877
S'Gaspar'
p1878
aa(lp1879
S'Gasper'
p1880
aa(lp1881
S'Gaston'
p1882
aa(lp1883
S'Gav'
p1884
aa(lp1885
S'Gaven'
p1886
aa(lp1887
S'Gavin'
p1888
aa(lp1889
S'Gavriel'
p1890
aa(lp1891
S'Gay'
p1892
aa(lp1893
S'Gayle'
p1894
aa(lp1895
S'Gearard'
p1896
aa(lp1897
S'Gene'
p1898
aa(lp1899
S'Geo'
p1900
aa(lp1901
S'Geof'
p1902
aa(lp1903
S'Geoff'
p1904
aa(lp1905
S'Geoffrey'
p1906
aa(lp1907
S'Geoffry'
p1908
aa(lp1909
S'Georg'
p1910
aa(lp1911
S'George'
p1912
aa(lp1913
S'Georges'
p1914
aa(lp1915
S'Georgia'
p1916
aa(lp1917
S'Georgie'
p1918
aa(lp1919
S'Georgy'
p1920
aa(lp1921
S'Gerald'
p1922
aa(lp1923
S'Geraldo'
p1924
aa(lp1925
S'Gerard'
p1926
aa(lp1927
S'Gere'
p1928
aa(lp1929
S'Gerhard'
p1930
aa(lp1931
S'Gerhardt'
p1932
aa(lp1933
S'Geri'
p1934
aa(lp1935
S'Germaine'
p1936
aa(lp1937
S'Gerold'
p1938
aa(lp1939
S'Gerome'
p1940
aa(lp1941
S'Gerrard'
p1942
aa(lp1943
S'Gerri'
p1944
aa(lp1945
S'Gerrit'
p1946
aa(lp1947
S'Gerry'
p1948
aa(lp1949
S'Gershom'
p1950
aa(lp1951
S'Gershon'
p1952
aa(lp1953
S'Giacomo'
p1954
aa(lp1955
S'Gian'
p1956
aa(lp1957
S'Giancarlo'
p1958
aa(lp1959
S'Giavani'
p1960
aa(lp1961
S'Gibb'
p1962
aa(lp1963
S'Gideon'
p1964
aa(lp1965
S'Giff'
p1966
aa(lp1967
S'Giffard'
p1968
aa(lp1969
S'Giffer'
p1970
aa(lp1971
S'Giffie'
p1972
aa(lp1973
S'Gifford'
p1974
aa(lp1975
S'Giffy'
p1976
aa(lp1977
S'Gil'
p1978
aa(lp1979
S'Gilbert'
p1980
aa(lp1981
S'Gilberto'
p1982
aa(lp1983
S'Gilburt'
p1984
aa(lp1985
S'Giles'
p1986
aa(lp1987
S'Gill'
p1988
aa(lp1989
S'Gilles'
p1990
aa(lp1991
S'Ginger'
p1992
aa(lp1993
S'Gino'
p1994
aa(lp1995
S'Giordano'
p1996
aa(lp1997
S'Giorgi'
p1998
aa(lp1999
S'Giorgio'
p2000
aa(lp2001
S'Giovanne'
p2002
aa(lp2003
S'Giovanni'
p2004
aa(lp2005
S'Giraldo'
p2006
aa(lp2007
S'Giraud'
p2008
aa(lp2009
S'Giuseppe'
p2010
aa(lp2011
S'Glen'
p2012
aa(lp2013
S'Glenn'
p2014
aa(lp2015
S'Glynn'
p2016
aa(lp2017
S'Godard'
p2018
aa(lp2019
S'Godart'
p2020
aa(lp2021
S'Goddard'
p2022
aa(lp2023
S'Goddart'
p2024
aa(lp2025
S'Godfree'
p2026
aa(lp2027
S'Godfrey'
p2028
aa(lp2029
S'Godfry'
p2030
aa(lp2031
S'Godwin'
p2032
aa(lp2033
S'Gomer'
p2034
aa(lp2035
S'Gonzales'
p2036
aa(lp2037
S'Gonzalo'
p2038
aa(lp2039
S'Goober'
p2040
aa(lp2041
S'Goose'
p2042
aa(lp2043
S'Goran'
p2044
aa(lp2045
S'Gordan'
p2046
aa(lp2047
S'Gordie'
p2048
aa(lp2049
S'Gordon'
p2050
aa(lp2051
S'Grace'
p2052
aa(lp2053
S'Grady'
p2054
aa(lp2055
S'Graehme'
p2056
aa(lp2057
S'Graeme'
p2058
aa(lp2059
S'Graham'
p2060
aa(lp2061
S'Graig'
p2062
aa(lp2063
S'Grant'
p2064
aa(lp2065
S'Granville'
p2066
aa(lp2067
S'Greg'
p2068
aa(lp2069
S'Gregg'
p2070
aa(lp2071
S'Greggory'
p2072
aa(lp2073
S'Gregor'
p2074
aa(lp2075
S'Gregorio'
p2076
aa(lp2077
S'Gregory'
p2078
aa(lp2079
S'Gretchen'
p2080
aa(lp2081
S'Griff'
p2082
aa(lp2083
S'Griffin'
p2084
aa(lp2085
S'Griffith'
p2086
aa(lp2087
S'Griswold'
p2088
aa(lp2089
S'Grove'
p2090
aa(lp2091
S'Grover'
p2092
aa(lp2093
S'Guido'
p2094
aa(lp2095
S'Guillaume'
p2096
aa(lp2097
S'Guillermo'
p2098
aa(lp2099
S'Gunner'
p2100
aa(lp2101
S'Gunter'
p2102
aa(lp2103
S'Gunther'
p2104
aa(lp2105
S'Gus'
p2106
aa(lp2107
S'Gustaf'
p2108
aa(lp2109
S'Gustav'
p2110
aa(lp2111
S'Gustave'
p2112
aa(lp2113
S'Gustavo'
p2114
aa(lp2115
S'Gustavus'
p2116
aa(lp2117
S'Guthrey'
p2118
aa(lp2119
S'Guthrie'
p2120
aa(lp2121
S'Guthry'
p2122
aa(lp2123
S'Guy'
p2124
aa(lp2125
S'Hadleigh'
p2126
aa(lp2127
S'Hadley'
p2128
aa(lp2129
S'Hadrian'
p2130
aa(lp2131
S'Hagan'
p2132
aa(lp2133
S'Hagen'
p2134
aa(lp2135
S'Hailey'
p2136
aa(lp2137
S'Hakeem'
p2138
aa(lp2139
S'Hakim'
p2140
aa(lp2141
S'Hal'
p2142
aa(lp2143
S'Hale'
p2144
aa(lp2145
S'Haleigh'
p2146
aa(lp2147
S'Haley'
p2148
aa(lp2149
S'Hall'
p2150
aa(lp2151
S'Hallam'
p2152
aa(lp2153
S'Halvard'
p2154
aa(lp2155
S'Ham'
p2156
aa(lp2157
S'Hamel'
p2158
aa(lp2159
S'Hamid'
p2160
aa(lp2161
S'Hamil'
p2162
aa(lp2163
S'Hamilton'
p2164
aa(lp2165
S'Hamish'
p2166
aa(lp2167
S'Hamlen'
p2168
aa(lp2169
S'Hamlet'
p2170
aa(lp2171
S'Hamlin'
p2172
aa(lp2173
S'Hammad'
p2174
aa(lp2175
S'Hamnet'
p2176
aa(lp2177
S'Han'
p2178
aa(lp2179
S'Hanan'
p2180
aa(lp2181
S'Hanford'
p2182
aa(lp2183
S'Hank'
p2184
aa(lp2185
S'Hannibal'
p2186
aa(lp2187
S'Hans'
p2188
aa(lp2189
S'Hans-Peter'
p2190
aa(lp2191
S'Hansel'
p2192
aa(lp2193
S'Hanson'
p2194
aa(lp2195
S'Harald'
p2196
aa(lp2197
S'Harcourt'
p2198
aa(lp2199
S'Hari'
p2200
aa(lp2201
S'Harlan'
p2202
aa(lp2203
S'Harland'
p2204
aa(lp2205
S'Harley'
p2206
aa(lp2207
S'Harlin'
p2208
aa(lp2209
S'Harman'
p2210
aa(lp2211
S'Harmon'
p2212
aa(lp2213
S'Harold'
p2214
aa(lp2215
S'Harris'
p2216
aa(lp2217
S'Harrison'
p2218
aa(lp2219
S'Harrold'
p2220
aa(lp2221
S'Harry'
p2222
aa(lp2223
S'Hart'
p2224
aa(lp2225
S'Hartley'
p2226
aa(lp2227
S'Hartwell'
p2228
aa(lp2229
S'Harv'
p2230
aa(lp2231
S'Harvard'
p2232
aa(lp2233
S'Harvey'
p2234
aa(lp2235
S'Harvie'
p2236
aa(lp2237
S'Harwell'
p2238
aa(lp2239
S'Hasheem'
p2240
aa(lp2241
S'Hashim'
p2242
aa(lp2243
S'Haskel'
p2244
aa(lp2245
S'Haskell'
p2246
aa(lp2247
S'Hassan'
p2248
aa(lp2249
S'Hastings'
p2250
aa(lp2251
S'Hasty'
p2252
aa(lp2253
S'Haven'
p2254
aa(lp2255
S'Hayden'
p2256
aa(lp2257
S'Haydon'
p2258
aa(lp2259
S'Hayes'
p2260
aa(lp2261
S'Hayward'
p2262
aa(lp2263
S'Haywood'
p2264
aa(lp2265
S'Hazel'
p2266
aa(lp2267
S'Heath'
p2268
aa(lp2269
S'Heathcliff'
p2270
aa(lp2271
S'Hebert'
p2272
aa(lp2273
S'Hector'
p2274
aa(lp2275
S'Heinrich'
p2276
aa(lp2277
S'Heinz'
p2278
aa(lp2279
S'Helmuth'
p2280
aa(lp2281
S'Henderson'
p2282
aa(lp2283
S'Hendrick'
p2284
aa(lp2285
S'Hendrik'
p2286
aa(lp2287
S'Henri'
p2288
aa(lp2289
S'Henrie'
p2290
aa(lp2291
S'Henrik'
p2292
aa(lp2293
S'Henrique'
p2294
aa(lp2295
S'Henry'
p2296
aa(lp2297
S'Herb'
p2298
aa(lp2299
S'Herbert'
p2300
aa(lp2301
S'Herbie'
p2302
aa(lp2303
S'Herby'
p2304
aa(lp2305
S'Hercule'
p2306
aa(lp2307
S'Hercules'
p2308
aa(lp2309
S'Herculie'
p2310
aa(lp2311
S'Herman'
p2312
aa(lp2313
S'Hermann'
p2314
aa(lp2315
S'Hermon'
p2316
aa(lp2317
S'Hermy'
p2318
aa(lp2319
S'Hernando'
p2320
aa(lp2321
S'Herold'
p2322
aa(lp2323
S'Herrick'
p2324
aa(lp2325
S'Herrmann'
p2326
aa(lp2327
S'Hersch'
p2328
aa(lp2329
S'Herschel'
p2330
aa(lp2331
S'Hersh'
p2332
aa(lp2333
S'Hershel'
p2334
aa(lp2335
S'Herve'
p2336
aa(lp2337
S'Hervey'
p2338
aa(lp2339
S'Hew'
p2340
aa(lp2341
S'Hewe'
p2342
aa(lp2343
S'Hewet'
p2344
aa(lp2345
S'Hewett'
p2346
aa(lp2347
S'Hewie'
p2348
aa(lp2349
S'Hewitt'
p2350
aa(lp2351
S'Heywood'
p2352
aa(lp2353
S'Hezekiah'
p2354
aa(lp2355
S'Higgins'
p2356
aa(lp2357
S'Hilary'
p2358
aa(lp2359
S'Hilbert'
p2360
aa(lp2361
S'Hill'
p2362
aa(lp2363
S'Hillard'
p2364
aa(lp2365
S'Hillary'
p2366
aa(lp2367
S'Hillel'
p2368
aa(lp2369
S'Hillery'
p2370
aa(lp2371
S'Hilliard'
p2372
aa(lp2373
S'Hilton'
p2374
aa(lp2375
S'Hiralal'
p2376
aa(lp2377
S'Hiram'
p2378
aa(lp2379
S'Hiro'
p2380
aa(lp2381
S'Hirsch'
p2382
aa(lp2383
S'Hobart'
p2384
aa(lp2385
S'Hodge'
p2386
aa(lp2387
S'Hogan'
p2388
aa(lp2389
S'Hollis'
p2390
aa(lp2391
S'Holly'
p2392
aa(lp2393
S'Homer'
p2394
aa(lp2395
S'Horace'
p2396
aa(lp2397
S'Horacio'
p2398
aa(lp2399
S'Horatio'
p2400
aa(lp2401
S'Horatius'
p2402
aa(lp2403
S'Horst'
p2404
aa(lp2405
S'Howard'
p2406
aa(lp2407
S'Howie'
p2408
aa(lp2409
S'Hoyt'
p2410
aa(lp2411
S'Hubert'
p2412
aa(lp2413
S'Hudson'
p2414
aa(lp2415
S'Huey'
p2416
aa(lp2417
S'Hugh'
p2418
aa(lp2419
S'Hugo'
p2420
aa(lp2421
S'Humbert'
p2422
aa(lp2423
S'Humphrey'
p2424
aa(lp2425
S'Hunt'
p2426
aa(lp2427
S'Hunter'
p2428
aa(lp2429
S'Huntington'
p2430
aa(lp2431
S'Huntlee'
p2432
aa(lp2433
S'Huntley'
p2434
aa(lp2435
S'Hurley'
p2436
aa(lp2437
S'Husain'
p2438
aa(lp2439
S'Husein'
p2440
aa(lp2441
S'Hussein'
p2442
aa(lp2443
S'Hy'
p2444
aa(lp2445
S'Hyatt'
p2446
aa(lp2447
S'Hyman'
p2448
aa(lp2449
S'Hymie'
p2450
aa(lp2451
S'Iago'
p2452
aa(lp2453
S'Iain'
p2454
aa(lp2455
S'Ian'
p2456
aa(lp2457
S'Ibrahim'
p2458
aa(lp2459
S'Ichabod'
p2460
aa(lp2461
S'Iggie'
p2462
aa(lp2463
S'Iggy'
p2464
aa(lp2465
S'Ignace'
p2466
aa(lp2467
S'Ignacio'
p2468
aa(lp2469
S'Ignacius'
p2470
aa(lp2471
S'Ignatius'
p2472
aa(lp2473
S'Ignaz'
p2474
aa(lp2475
S'Ignazio'
p2476
aa(lp2477
S'Igor'
p2478
aa(lp2479
S'Ike'
p2480
aa(lp2481
S'Ikey'
p2482
aa(lp2483
S'Immanuel'
p2484
aa(lp2485
S'Ingamar'
p2486
aa(lp2487
S'Ingelbert'
p2488
aa(lp2489
S'Ingemar'
p2490
aa(lp2491
S'Inglebert'
p2492
aa(lp2493
S'Ingmar'
p2494
aa(lp2495
S'Ingram'
p2496
aa(lp2497
S'Inigo'
p2498
aa(lp2499
S'Ira'
p2500
aa(lp2501
S'Irvin'
p2502
aa(lp2503
S'Irvine'
p2504
aa(lp2505
S'Irving'
p2506
aa(lp2507
S'Irwin'
p2508
aa(lp2509
S'Isa'
p2510
aa(lp2511
S'Isaac'
p2512
aa(lp2513
S'Isaak'
p2514
aa(lp2515
S'Isador'
p2516
aa(lp2517
S'Isadore'
p2518
aa(lp2519
S'Isaiah'
p2520
aa(lp2521
S'Ishmael'
p2522
aa(lp2523
S'Isidore'
p2524
aa(lp2525
S'Ismail'
p2526
aa(lp2527
S'Israel'
p2528
aa(lp2529
S'Istvan'
p2530
aa(lp2531
S'Ivan'
p2532
aa(lp2533
S'Ivor'
p2534
aa(lp2535
S'Izaak'
p2536
aa(lp2537
S'Izak'
p2538
aa(lp2539
S'Izzy'
p2540
aa(lp2541
S'Jabez'
p2542
aa(lp2543
S'Jack'
p2544
aa(lp2545
S'Jackie'
p2546
aa(lp2547
S'Jackson'
p2548
aa(lp2549
S'Jacob'
p2550
aa(lp2551
S'Jacques'
p2552
aa(lp2553
S'Jae'
p2554
aa(lp2555
S'Jaime'
p2556
aa(lp2557
S'Jake'
p2558
aa(lp2559
S'Jakob'
p2560
aa(lp2561
S'James'
p2562
aa(lp2563
S'Jameson'
p2564
aa(lp2565
S'Jamey'
p2566
aa(lp2567
S'Jamie'
p2568
aa(lp2569
S'Jan'
p2570
aa(lp2571
S'Janos'
p2572
aa(lp2573
S'Janus'
p2574
aa(lp2575
S'Jared'
p2576
aa(lp2577
S'Jarrett'
p2578
aa(lp2579
S'Jarvis'
p2580
aa(lp2581
S'Jason'
p2582
aa(lp2583
S'Jasper'
p2584
aa(lp2585
S'Javier'
p2586
aa(lp2587
S'Jay'
p2588
aa(lp2589
S'Jean'
p2590
aa(lp2591
S'Jean-Christophe'
p2592
aa(lp2593
S'Jean-Francois'
p2594
aa(lp2595
S'Jean-Lou'
p2596
aa(lp2597
S'Jean-Luc'
p2598
aa(lp2599
S'Jean-Marc'
p2600
aa(lp2601
S'Jean-Paul'
p2602
aa(lp2603
S'Jean-Pierre'
p2604
aa(lp2605
S'Jeb'
p2606
aa(lp2607
S'Jed'
p2608
aa(lp2609
S'Jedediah'
p2610
aa(lp2611
S'Jef'
p2612
aa(lp2613
S'Jeff'
p2614
aa(lp2615
S'Jefferey'
p2616
aa(lp2617
S'Jefferson'
p2618
aa(lp2619
S'Jeffery'
p2620
aa(lp2621
S'Jeffie'
p2622
aa(lp2623
S'Jeffrey'
p2624
aa(lp2625
S'Jeffry'
p2626
aa(lp2627
S'Jefry'
p2628
aa(lp2629
S'Jehu'
p2630
aa(lp2631
S'Jennings'
p2632
aa(lp2633
S'Jens'
p2634
aa(lp2635
S'Jephthah'
p2636
aa(lp2637
S'Jerald'
p2638
aa(lp2639
S'Jeramie'
p2640
aa(lp2641
S'Jere'
p2642
aa(lp2643
S'Jereme'
p2644
aa(lp2645
S'Jeremiah'
p2646
aa(lp2647
S'Jeremias'
p2648
aa(lp2649
S'Jeremie'
p2650
aa(lp2651
S'Jeremy'
p2652
aa(lp2653
S'Jermain'
p2654
aa(lp2655
S'Jermaine'
p2656
aa(lp2657
S'Jermayne'
p2658
aa(lp2659
S'Jerold'
p2660
aa(lp2661
S'Jerome'
p2662
aa(lp2663
S'Jeromy'
p2664
aa(lp2665
S'Jerri'
p2666
aa(lp2667
S'Jerrie'
p2668
aa(lp2669
S'Jerrold'
p2670
aa(lp2671
S'Jerrome'
p2672
aa(lp2673
S'Jerry'
p2674
aa(lp2675
S'Jervis'
p2676
aa(lp2677
S'Jerzy'
p2678
aa(lp2679
S'Jess'
p2680
aa(lp2681
S'Jesse'
p2682
aa(lp2683
S'Jessee'
p2684
aa(lp2685
S'Jessey'
p2686
aa(lp2687
S'Jessie'
p2688
aa(lp2689
S'Jesus'
p2690
aa(lp2691
S'Jeth'
p2692
aa(lp2693
S'Jethro'
p2694
aa(lp2695
S'Jim'
p2696
aa(lp2697
S'Jimbo'
p2698
aa(lp2699
S'Jimmie'
p2700
aa(lp2701
S'Jimmy'
p2702
aa(lp2703
S'Jo'
p2704
aa(lp2705
S'Joab'
p2706
aa(lp2707
S'Joachim'
p2708
aa(lp2709
S'Joao'
p2710
aa(lp2711
S'Joaquin'
p2712
aa(lp2713
S'Job'
p2714
aa(lp2715
S'Jock'
p2716
aa(lp2717
S'Jodi'
p2718
aa(lp2719
S'Jodie'
p2720
aa(lp2721
S'Jody'
p2722
aa(lp2723
S'Joe'
p2724
aa(lp2725
S'Joel'
p2726
aa(lp2727
S'Joey'
p2728
aa(lp2729
S'Johan'
p2730
aa(lp2731
S'Johann'
p2732
aa(lp2733
S'Johannes'
p2734
aa(lp2735
S'John'
p2736
aa(lp2737
S'John-David'
p2738
aa(lp2739
S'John-Patrick'
p2740
aa(lp2741
S'Johnathan'
p2742
aa(lp2743
S'Johnathon'
p2744
aa(lp2745
S'Johnnie'
p2746
aa(lp2747
S'Johnny'
p2748
aa(lp2749
S'Johny'
p2750
aa(lp2751
S'Jon'
p2752
aa(lp2753
S'Jonah'
p2754
aa(lp2755
S'Jonas'
p2756
aa(lp2757
S'Jonathan'
p2758
aa(lp2759
S'Jonathon'
p2760
aa(lp2761
S'Jonny'
p2762
aa(lp2763
S'Jordan'
p2764
aa(lp2765
S'Jordon'
p2766
aa(lp2767
S'Jordy'
p2768
aa(lp2769
S'Jorge'
p2770
aa(lp2771
S'Jory'
p2772
aa(lp2773
S'Jose'
p2774
aa(lp2775
S'Josef'
p2776
aa(lp2777
S'Joseph'
p2778
aa(lp2779
S'Josephus'
p2780
aa(lp2781
S'Josh'
p2782
aa(lp2783
S'Joshua'
p2784
aa(lp2785
S'Joshuah'
p2786
aa(lp2787
S'Josiah'
p2788
aa(lp2789
S'Jotham'
p2790
aa(lp2791
S'Juan'
p2792
aa(lp2793
S'Juanita'
p2794
aa(lp2795
S'Jud'
p2796
aa(lp2797
S'Judah'
p2798
aa(lp2799
S'Judas'
p2800
aa(lp2801
S'Judd'
p2802
aa(lp2803
S'Jude'
p2804
aa(lp2805
S'Judith'
p2806
aa(lp2807
S'Judson'
p2808
aa(lp2809
S'Judy'
p2810
aa(lp2811
S'Juergen'
p2812
aa(lp2813
S'Jule'
p2814
aa(lp2815
S'Jules'
p2816
aa(lp2817
S'Julian'
p2818
aa(lp2819
S'Julie'
p2820
aa(lp2821
S'Julio'
p2822
aa(lp2823
S'Julius'
p2824
aa(lp2825
S'Justin'
p2826
aa(lp2827
S'Justis'
p2828
aa(lp2829
S'Kaiser'
p2830
aa(lp2831
S'Kaleb'
p2832
aa(lp2833
S'Kalil'
p2834
aa(lp2835
S'Kalle'
p2836
aa(lp2837
S'Kalman'
p2838
aa(lp2839
S'Kalvin'
p2840
aa(lp2841
S'Kam'
p2842
aa(lp2843
S'Kane'
p2844
aa(lp2845
S'Kareem'
p2846
aa(lp2847
S'Karel'
p2848
aa(lp2849
S'Karim'
p2850
aa(lp2851
S'Karl'
p2852
aa(lp2853
S'Karsten'
p2854
aa(lp2855
S'Kaspar'
p2856
aa(lp2857
S'Keefe'
p2858
aa(lp2859
S'Keenan'
p2860
aa(lp2861
S'Keene'
p2862
aa(lp2863
S'Keil'
p2864
aa(lp2865
S'Keith'
p2866
aa(lp2867
S'Kellen'
p2868
aa(lp2869
S'Kelley'
p2870
aa(lp2871
S'Kelly'
p2872
aa(lp2873
S'Kelsey'
p2874
aa(lp2875
S'Kelvin'
p2876
aa(lp2877
S'Kelwin'
p2878
aa(lp2879
S'Ken'
p2880
aa(lp2881
S'Kendal'
p2882
aa(lp2883
S'Kendall'
p2884
aa(lp2885
S'Kendrick'
p2886
aa(lp2887
S'Kenn'
p2888
aa(lp2889
S'Kennedy'
p2890
aa(lp2891
S'Kenneth'
p2892
aa(lp2893
S'Kenny'
p2894
aa(lp2895
S'Kent'
p2896
aa(lp2897
S'Kenton'
p2898
aa(lp2899
S'Kenyon'
p2900
aa(lp2901
S'Kermie'
p2902
aa(lp2903
S'Kermit'
p2904
aa(lp2905
S'Kerry'
p2906
aa(lp2907
S'Kevan'
p2908
aa(lp2909
S'Kevin'
p2910
aa(lp2911
S'Kim'
p2912
aa(lp2913
S'Kimball'
p2914
aa(lp2915
S'Kimmo'
p2916
aa(lp2917
S'Kin'
p2918
aa(lp2919
S'Kincaid'
p2920
aa(lp2921
S'King'
p2922
aa(lp2923
S'Kingsley'
p2924
aa(lp2925
S'Kingsly'
p2926
aa(lp2927
S'Kingston'
p2928
aa(lp2929
S'Kip'
p2930
aa(lp2931
S'Kirby'
p2932
aa(lp2933
S'Kirk'
p2934
aa(lp2935
S'Kit'
p2936
aa(lp2937
S'Klaus'
p2938
aa(lp2939
S'Klee'
p2940
aa(lp2941
S'Knox'
p2942
aa(lp2943
S'Konrad'
p2944
aa(lp2945
S'Konstantin'
p2946
aa(lp2947
S'Kory'
p2948
aa(lp2949
S'Kostas'
p2950
aa(lp2951
S'Kraig'
p2952
aa(lp2953
S'Kris'
p2954
aa(lp2955
S'Krishna'
p2956
aa(lp2957
S'Kristian'
p2958
aa(lp2959
S'Kristopher'
p2960
aa(lp2961
S'Kristos'
p2962
aa(lp2963
S'Kurt'
p2964
aa(lp2965
S'Kurtis'
p2966
aa(lp2967
S'Kyle'
p2968
aa(lp2969
S'Laird'
p2970
aa(lp2971
S'Lamar'
p2972
aa(lp2973
S'Lambert'
p2974
aa(lp2975
S'Lamont'
p2976
aa(lp2977
S'Lance'
p2978
aa(lp2979
S'Lancelot'
p2980
aa(lp2981
S'Lane'
p2982
aa(lp2983
S'Langston'
p2984
aa(lp2985
S'Lanny'
p2986
aa(lp2987
S'Larry'
p2988
aa(lp2989
S'Lars'
p2990
aa(lp2991
S'Laurance'
p2992
aa(lp2993
S'Lauren'
p2994
aa(lp2995
S'Laurence'
p2996
aa(lp2997
S'Laurens'
p2998
aa(lp2999
S'Laurent'
p3000
aa(lp3001
S'Laurie'
p3002
aa(lp3003
S'Lawerence'
p3004
aa(lp3005
S'Lawrence'
p3006
aa(lp3007
S'Lawson'
p3008
aa(lp3009
S'Lawton'
p3010
aa(lp3011
S'Lay'
p3012
aa(lp3013
S'Layton'
p3014
aa(lp3015
S'Lazar'
p3016
aa(lp3017
S'Lazare'
p3018
aa(lp3019
S'Lazaro'
p3020
aa(lp3021
S'Lazarus'
p3022
aa(lp3023
S'Lazlo'
p3024
aa(lp3025
S'Lee'
p3026
aa(lp3027
S'Lefty'
p3028
aa(lp3029
S'Leif'
p3030
aa(lp3031
S'Leigh'
p3032
aa(lp3033
S'Leighton'
p3034
aa(lp3035
S'Leland'
p3036
aa(lp3037
S'Lem'
p3038
aa(lp3039
S'Lemar'
p3040
aa(lp3041
S'Lemmie'
p3042
aa(lp3043
S'Lemmy'
p3044
aa(lp3045
S'Lemuel'
p3046
aa(lp3047
S'Len'
p3048
aa(lp3049
S'Lenard'
p3050
aa(lp3051
S'Lennie'
p3052
aa(lp3053
S'Lenny'
p3054
aa(lp3055
S'Leo'
p3056
aa(lp3057
S'Leon'
p3058
aa(lp3059
S'Leonard'
p3060
aa(lp3061
S'Leonardo'
p3062
aa(lp3063
S'Leonerd'
p3064
aa(lp3065
S'Leonhard'
p3066
aa(lp3067
S'Leonid'
p3068
aa(lp3069
S'Leonidas'
p3070
aa(lp3071
S'Leopold'
p3072
aa(lp3073
S'Leroy'
p3074
aa(lp3075
S'Les'
p3076
aa(lp3077
S'Lesley'
p3078
aa(lp3079
S'Leslie'
p3080
aa(lp3081
S'Lester'
p3082
aa(lp3083
S'Lev'
p3084
aa(lp3085
S'Levi'
p3086
aa(lp3087
S'Levin'
p3088
aa(lp3089
S'Levon'
p3090
aa(lp3091
S'Levy'
p3092
aa(lp3093
S'Lew'
p3094
aa(lp3095
S'Lewis'
p3096
aa(lp3097
S'Lex'
p3098
aa(lp3099
S'Liam'
p3100
aa(lp3101
S'Lin'
p3102
aa(lp3103
S'Lincoln'
p3104
aa(lp3105
S'Lind'
p3106
aa(lp3107
S'Lindsay'
p3108
aa(lp3109
S'Lindsey'
p3110
aa(lp3111
S'Lindy'
p3112
aa(lp3113
S'Linoel'
p3114
aa(lp3115
S'Linus'
p3116
aa(lp3117
S'Lion'
p3118
aa(lp3119
S'Lionel'
p3120
aa(lp3121
S'Lionello'
p3122
aa(lp3123
S'Llewellyn'
p3124
aa(lp3125
S'Lloyd'
p3126
aa(lp3127
S'Locke'
p3128
aa(lp3129
S'Lockwood'
p3130
aa(lp3131
S'Logan'
p3132
aa(lp3133
S'Lon'
p3134
aa(lp3135
S'Lonnie'
p3136
aa(lp3137
S'Lonny'
p3138
aa(lp3139
S'Loren'
p3140
aa(lp3141
S'Lorenzo'
p3142
aa(lp3143
S'Lorne'
p3144
aa(lp3145
S'Lorrie'
p3146
aa(lp3147
S'Lothar'
p3148
aa(lp3149
S'Lou'
p3150
aa(lp3151
S'Louie'
p3152
aa(lp3153
S'Louis'
p3154
aa(lp3155
S'Lovell'
p3156
aa(lp3157
S'Lowell'
p3158
aa(lp3159
S'Lucas'
p3160
aa(lp3161
S'Luce'
p3162
aa(lp3163
S'Lucian'
p3164
aa(lp3165
S'Luciano'
p3166
aa(lp3167
S'Lucien'
p3168
aa(lp3169
S'Lucio'
p3170
aa(lp3171
S'Lucius'
p3172
aa(lp3173
S'Ludvig'
p3174
aa(lp3175
S'Ludwig'
p3176
aa(lp3177
S'Luigi'
p3178
aa(lp3179
S'Luis'
p3180
aa(lp3181
S'Lukas'
p3182
aa(lp3183
S'Luke'
p3184
aa(lp3185
S'Luther'
p3186
aa(lp3187
S'Lyle'
p3188
aa(lp3189
S'Lyn'
p3190
aa(lp3191
S'Lyndon'
p3192
aa(lp3193
S'Lynn'
p3194
aa(lp3195
S'Mac'
p3196
aa(lp3197
S'Mace'
p3198
aa(lp3199
S'Mack'
p3200
aa(lp3201
S'Mackenzie'
p3202
aa(lp3203
S'Maddie'
p3204
aa(lp3205
S'Maddy'
p3206
aa(lp3207
S'Madison'
p3208
aa(lp3209
S'Magnum'
p3210
aa(lp3211
S'Magnus'
p3212
aa(lp3213
S'Mahesh'
p3214
aa(lp3215
S'Mahmoud'
p3216
aa(lp3217
S'Mahmud'
p3218
aa(lp3219
S'Maison'
p3220
aa(lp3221
S'Major'
p3222
aa(lp3223
S'Malcolm'
p3224
aa(lp3225
S'Manfred'
p3226
aa(lp3227
S'Manish'
p3228
aa(lp3229
S'Manny'
p3230
aa(lp3231
S'Manuel'
p3232
aa(lp3233
S'Marc'
p3234
aa(lp3235
S'Marcel'
p3236
aa(lp3237
S'Marcello'
p3238
aa(lp3239
S'Marcellus'
p3240
aa(lp3241
S'Marcelo'
p3242
aa(lp3243
S'Marchall'
p3244
aa(lp3245
S'Marcio'
p3246
aa(lp3247
S'Marco'
p3248
aa(lp3249
S'Marcos'
p3250
aa(lp3251
S'Marcus'
p3252
aa(lp3253
S'Marietta'
p3254
aa(lp3255
S'Marilu'
p3256
aa(lp3257
S'Mario'
p3258
aa(lp3259
S'Marion'
p3260
aa(lp3261
S'Marius'
p3262
aa(lp3263
S'Mark'
p3264
aa(lp3265
S'Marko'
p3266
aa(lp3267
S'Markos'
p3268
aa(lp3269
S'Markus'
p3270
aa(lp3271
S'Marlin'
p3272
aa(lp3273
S'Marlo'
p3274
aa(lp3275
S'Marlon'
p3276
aa(lp3277
S'Marlow'
p3278
aa(lp3279
S'Marlowe'
p3280
aa(lp3281
S'Marmaduke'
p3282
aa(lp3283
S'Marsh'
p3284
aa(lp3285
S'Marshal'
p3286
aa(lp3287
S'Marshall'
p3288
aa(lp3289
S'Mart'
p3290
aa(lp3291
S'Martainn'
p3292
aa(lp3293
S'Marten'
p3294
aa(lp3295
S'Martie'
p3296
aa(lp3297
S'Martin'
p3298
aa(lp3299
S'Martino'
p3300
aa(lp3301
S'Marty'
p3302
aa(lp3303
S'Martyn'
p3304
aa(lp3305
S'Marv'
p3306
aa(lp3307
S'Marve'
p3308
aa(lp3309
S'Marven'
p3310
aa(lp3311
S'Marvin'
p3312
aa(lp3313
S'Marwin'
p3314
aa(lp3315
S'Mason'
p3316
aa(lp3317
S'Mateo'
p3318
aa(lp3319
S'Mathew'
p3320
aa(lp3321
S'Mathias'
p3322
aa(lp3323
S'Matias'
p3324
aa(lp3325
S'Matt'
p3326
aa(lp3327
S'Matteo'
p3328
aa(lp3329
S'Matthaeus'
p3330
aa(lp3331
S'Mattheus'
p3332
aa(lp3333
S'Matthew'
p3334
aa(lp3335
S'Matthias'
p3336
aa(lp3337
S'Matthieu'
p3338
aa(lp3339
S'Matthiew'
p3340
aa(lp3341
S'Matthus'
p3342
aa(lp3343
S'Mattias'
p3344
aa(lp3345
S'Mattie'
p3346
aa(lp3347
S'Matty'
p3348
aa(lp3349
S'Maurice'
p3350
aa(lp3351
S'Mauricio'
p3352
aa(lp3353
S'Maurie'
p3354
aa(lp3355
S'Maurise'
p3356
aa(lp3357
S'Maurits'
p3358
aa(lp3359
S'Mauritz'
p3360
aa(lp3361
S'Maury'
p3362
aa(lp3363
S'Max'
p3364
aa(lp3365
S'Maxfield'
p3366
aa(lp3367
S'Maxie'
p3368
aa(lp3369
S'Maxim'
p3370
aa(lp3371
S'Maximilian'
p3372
aa(lp3373
S'Maximilien'
p3374
aa(lp3375
S'Maxwell'
p3376
aa(lp3377
S'Mayer'
p3378
aa(lp3379
S'Maynard'
p3380
aa(lp3381
S'Maynord'
p3382
aa(lp3383
S'Mayor'
p3384
aa(lp3385
S'Mead'
p3386
aa(lp3387
S'Meade'
p3388
aa(lp3389
S'Meier'
p3390
aa(lp3391
S'Meir'
p3392
aa(lp3393
S'Mel'
p3394
aa(lp3395
S'Melvin'
p3396
aa(lp3397
S'Melvyn'
p3398
aa(lp3399
S'Menard'
p3400
aa(lp3401
S'Mendel'
p3402
aa(lp3403
S'Mendie'
p3404
aa(lp3405
S'Meredeth'
p3406
aa(lp3407
S'Meredith'
p3408
aa(lp3409
S'Merell'
p3410
aa(lp3411
S'Merill'
p3412
aa(lp3413
S'Merle'
p3414
aa(lp3415
S'Merlin'
p3416
aa(lp3417
S'Merrel'
p3418
aa(lp3419
S'Merrick'
p3420
aa(lp3421
S'Merril'
p3422
aa(lp3423
S'Merrill'
p3424
aa(lp3425
S'Merry'
p3426
aa(lp3427
S'Merv'
p3428
aa(lp3429
S'Mervin'
p3430
aa(lp3431
S'Merwin'
p3432
aa(lp3433
S'Meryl'
p3434
aa(lp3435
S'Meyer'
p3436
aa(lp3437
S'Mic'
p3438
aa(lp3439
S'Micah'
p3440
aa(lp3441
S'Michael'
p3442
aa(lp3443
S'Michail'
p3444
aa(lp3445
S'Michal'
p3446
aa(lp3447
S'Michale'
p3448
aa(lp3449
S'Micheal'
p3450
aa(lp3451
S'Micheil'
p3452
aa(lp3453
S'Michel'
p3454
aa(lp3455
S'Michele'
p3456
aa(lp3457
S'Mick'
p3458
aa(lp3459
S'Mickey'
p3460
aa(lp3461
S'Mickie'
p3462
aa(lp3463
S'Micky'
p3464
aa(lp3465
S'Miguel'
p3466
aa(lp3467
S'Mika'
p3468
aa(lp3469
S'Mikael'
p3470
aa(lp3471
S'Mike'
p3472
aa(lp3473
S'Mikel'
p3474
aa(lp3475
S'Mikey'
p3476
aa(lp3477
S'Mikhail'
p3478
aa(lp3479
S'Miles'
p3480
aa(lp3481
S'Millicent'
p3482
aa(lp3483
S'Milo'
p3484
aa(lp3485
S'Milt'
p3486
aa(lp3487
S'Milton'
p3488
aa(lp3489
S'Mischa'
p3490
aa(lp3491
S'Mitch'
p3492
aa(lp3493
S'Mitchael'
p3494
aa(lp3495
S'Mitchel'
p3496
aa(lp3497
S'Mitchell'
p3498
aa(lp3499
S'Moe'
p3500
aa(lp3501
S'Mohamad'
p3502
aa(lp3503
S'Mohamed'
p3504
aa(lp3505
S'Mohammad'
p3506
aa(lp3507
S'Mohammed'
p3508
aa(lp3509
S'Mohan'
p3510
aa(lp3511
S'Moise'
p3512
aa(lp3513
S'Moises'
p3514
aa(lp3515
S'Moishe'
p3516
aa(lp3517
S'Monroe'
p3518
aa(lp3519
S'Montague'
p3520
aa(lp3521
S'Monte'
p3522
aa(lp3523
S'Montgomery'
p3524
aa(lp3525
S'Monty'
p3526
aa(lp3527
S'Moore'
p3528
aa(lp3529
S'Mordecai'
p3530
aa(lp3531
S'Morgan'
p3532
aa(lp3533
S'Morlee'
p3534
aa(lp3535
S'Morley'
p3536
aa(lp3537
S'Morly'
p3538
aa(lp3539
S'Morrie'
p3540
aa(lp3541
S'Morris'
p3542
aa(lp3543
S'Morry'
p3544
aa(lp3545
S'Morse'
p3546
aa(lp3547
S'Mort'
p3548
aa(lp3549
S'Morten'
p3550
aa(lp3551
S'Mortie'
p3552
aa(lp3553
S'Mortimer'
p3554
aa(lp3555
S'Morton'
p3556
aa(lp3557
S'Morty'
p3558
aa(lp3559
S'Mose'
p3560
aa(lp3561
S'Moses'
p3562
aa(lp3563
S'Moshe'
p3564
aa(lp3565
S'Moss'
p3566
aa(lp3567
S'Muffin'
p3568
aa(lp3569
S'Mugsy'
p3570
aa(lp3571
S'Muhammad'
p3572
aa(lp3573
S'Munmro'
p3574
aa(lp3575
S'Munroe'
p3576
aa(lp3577
S'Murdoch'
p3578
aa(lp3579
S'Murdock'
p3580
aa(lp3581
S'Murphy'
p3582
aa(lp3583
S'Murray'
p3584
aa(lp3585
S'Mustafa'
p3586
aa(lp3587
S'Myke'
p3588
aa(lp3589
S'Myles'
p3590
aa(lp3591
S'Mylo'
p3592
aa(lp3593
S'Myron'
p3594
aa(lp3595
S'Nahum'
p3596
aa(lp3597
S'Napoleon'
p3598
aa(lp3599
S'Nat'
p3600
aa(lp3601
S'Natale'
p3602
aa(lp3603
S'Nate'
p3604
aa(lp3605
S'Nathan'
p3606
aa(lp3607
S'Nathanael'
p3608
aa(lp3609
S'Nathanial'
p3610
aa(lp3611
S'Nathaniel'
p3612
aa(lp3613
S'Nathanil'
p3614
aa(lp3615
S'Neal'
p3616
aa(lp3617
S'Neale'
p3618
aa(lp3619
S'Neall'
p3620
aa(lp3621
S'Nealon'
p3622
aa(lp3623
S'Nealson'
p3624
aa(lp3625
S'Nealy'
p3626
aa(lp3627
S'Ned'
p3628
aa(lp3629
S'Neddie'
p3630
aa(lp3631
S'Neddy'
p3632
aa(lp3633
S'Neel'
p3634
aa(lp3635
S'Neil'
p3636
aa(lp3637
S'Nels'
p3638
aa(lp3639
S'Nelsen'
p3640
aa(lp3641
S'Nelson'
p3642
aa(lp3643
S'Nero'
p3644
aa(lp3645
S'Neron'
p3646
aa(lp3647
S'Nester'
p3648
aa(lp3649
S'Nestor'
p3650
aa(lp3651
S'Nev'
p3652
aa(lp3653
S'Nevil'
p3654
aa(lp3655
S'Nevile'
p3656
aa(lp3657
S'Neville'
p3658
aa(lp3659
S'Nevin'
p3660
aa(lp3661
S'Nevins'
p3662
aa(lp3663
S'Newton'
p3664
aa(lp3665
S'Niall'
p3666
aa(lp3667
S'Niccolo'
p3668
aa(lp3669
S'Nicholas'
p3670
aa(lp3671
S'Nichole'
p3672
aa(lp3673
S'Nichols'
p3674
aa(lp3675
S'Nick'
p3676
aa(lp3677
S'Nickey'
p3678
aa(lp3679
S'Nickie'
p3680
aa(lp3681
S'Nickolas'
p3682
aa(lp3683
S'Nicky'
p3684
aa(lp3685
S'Nico'
p3686
aa(lp3687
S'Nicolas'
p3688
aa(lp3689
S'Niels'
p3690
aa(lp3691
S'Nigel'
p3692
aa(lp3693
S'Niki'
p3694
aa(lp3695
S'Nikita'
p3696
aa(lp3697
S'Nikki'
p3698
aa(lp3699
S'Nikolai'
p3700
aa(lp3701
S'Nikos'
p3702
aa(lp3703
S'Niles'
p3704
aa(lp3705
S'Nils'
p3706
aa(lp3707
S'Nilson'
p3708
aa(lp3709
S'Niven'
p3710
aa(lp3711
S'Noach'
p3712
aa(lp3713
S'Noah'
p3714
aa(lp3715
S'Noam'
p3716
aa(lp3717
S'Noble'
p3718
aa(lp3719
S'Noe'
p3720
aa(lp3721
S'Noel'
p3722
aa(lp3723
S'Nolan'
p3724
aa(lp3725
S'Noland'
p3726
aa(lp3727
S'Norbert'
p3728
aa(lp3729
S'Norm'
p3730
aa(lp3731
S'Norman'
p3732
aa(lp3733
S'Normand'
p3734
aa(lp3735
S'Normie'
p3736
aa(lp3737
S'Norris'
p3738
aa(lp3739
S'Northrop'
p3740
aa(lp3741
S'Northrup'
p3742
aa(lp3743
S'Norton'
p3744
aa(lp3745
S'Norwood'
p3746
aa(lp3747
S'Nunzio'
p3748
aa(lp3749
S'Obadiah'
p3750
aa(lp3751
S'Obadias'
p3752
aa(lp3753
S'Oberon'
p3754
aa(lp3755
S'Obie'
p3756
aa(lp3757
S'Octavius'
p3758
aa(lp3759
S'Odell'
p3760
aa(lp3761
S'Odie'
p3762
aa(lp3763
S'Odin'
p3764
aa(lp3765
S'Odysseus'
p3766
aa(lp3767
S'Olaf'
p3768
aa(lp3769
S'Olag'
p3770
aa(lp3771
S'Ole'
p3772
aa(lp3773
S'Oleg'
p3774
aa(lp3775
S'Olin'
p3776
aa(lp3777
S'Oliver'
p3778
aa(lp3779
S'Olivier'
p3780
aa(lp3781
S'Olle'
p3782
aa(lp3783
S'Ollie'
p3784
aa(lp3785
S'Omar'
p3786
aa(lp3787
S'Oral'
p3788
aa(lp3789
S'Oran'
p3790
aa(lp3791
S'Orazio'
p3792
aa(lp3793
S'Orbadiah'
p3794
aa(lp3795
S'Oren'
p3796
aa(lp3797
S'Orin'
p3798
aa(lp3799
S'Orion'
p3800
aa(lp3801
S'Orlando'
p3802
aa(lp3803
S'Orren'
p3804
aa(lp3805
S'Orrin'
p3806
aa(lp3807
S'Orson'
p3808
aa(lp3809
S'Orton'
p3810
aa(lp3811
S'Orville'
p3812
aa(lp3813
S'Osbert'
p3814
aa(lp3815
S'Osborn'
p3816
aa(lp3817
S'Osborne'
p3818
aa(lp3819
S'Osbourn'
p3820
aa(lp3821
S'Osbourne'
p3822
aa(lp3823
S'Oscar'
p3824
aa(lp3825
S'Osgood'
p3826
aa(lp3827
S'Osmond'
p3828
aa(lp3829
S'Osmund'
p3830
aa(lp3831
S'Ossie'
p3832
aa(lp3833
S'Oswald'
p3834
aa(lp3835
S'Oswell'
p3836
aa(lp3837
S'Otes'
p3838
aa(lp3839
S'Othello'
p3840
aa(lp3841
S'Otho'
p3842
aa(lp3843
S'Otis'
p3844
aa(lp3845
S'Otto'
p3846
aa(lp3847
S'Owen'
p3848
aa(lp3849
S'Ozzie'
p3850
aa(lp3851
S'Ozzy'
p3852
aa(lp3853
S'Pablo'
p3854
aa(lp3855
S'Pace'
p3856
aa(lp3857
S'Paco'
p3858
aa(lp3859
S'Paddie'
p3860
aa(lp3861
S'Paddy'
p3862
aa(lp3863
S'Padraig'
p3864
aa(lp3865
S'Page'
p3866
aa(lp3867
S'Paige'
p3868
aa(lp3869
S'Pail'
p3870
aa(lp3871
S'Palmer'
p3872
aa(lp3873
S'Paolo'
p3874
aa(lp3875
S'Park'
p3876
aa(lp3877
S'Parke'
p3878
aa(lp3879
S'Parker'
p3880
aa(lp3881
S'Parnell'
p3882
aa(lp3883
S'Parrnell'
p3884
aa(lp3885
S'Parry'
p3886
aa(lp3887
S'Parsifal'
p3888
aa(lp3889
S'Partha'
p3890
aa(lp3891
S'Pascal'
p3892
aa(lp3893
S'Pascale'
p3894
aa(lp3895
S'Pasquale'
p3896
aa(lp3897
S'Pat'
p3898
aa(lp3899
S'Pate'
p3900
aa(lp3901
S'Patel'
p3902
aa(lp3903
S'Paten'
p3904
aa(lp3905
S'Patin'
p3906
aa(lp3907
S'Paton'
p3908
aa(lp3909
S'Patric'
p3910
aa(lp3911
S'Patrice'
p3912
aa(lp3913
S'Patricio'
p3914
aa(lp3915
S'Patrick'
p3916
aa(lp3917
S'Patrik'
p3918
aa(lp3919
S'Patsy'
p3920
aa(lp3921
S'Pattie'
p3922
aa(lp3923
S'Patty'
p3924
aa(lp3925
S'Paul'
p3926
aa(lp3927
S'Paulo'
p3928
aa(lp3929
S'Pavel'
p3930
aa(lp3931
S'Pearce'
p3932
aa(lp3933
S'Pedro'
p3934
aa(lp3935
S'Peirce'
p3936
aa(lp3937
S'Pembroke'
p3938
aa(lp3939
S'Pen'
p3940
aa(lp3941
S'Penn'
p3942
aa(lp3943
S'Pennie'
p3944
aa(lp3945
S'Penny'
p3946
aa(lp3947
S'Penrod'
p3948
aa(lp3949
S'Pepe'
p3950
aa(lp3951
S'Pepillo'
p3952
aa(lp3953
S'Pepito'
p3954
aa(lp3955
S'Perceval'
p3956
aa(lp3957
S'Percival'
p3958
aa(lp3959
S'Percy'
p3960
aa(lp3961
S'Perry'
p3962
aa(lp3963
S'Pete'
p3964
aa(lp3965
S'Peter'
p3966
aa(lp3967
S'Petey'
p3968
aa(lp3969
S'Petr'
p3970
aa(lp3971
S'Peyter'
p3972
aa(lp3973
S'Peyton'
p3974
aa(lp3975
S'Phil'
p3976
aa(lp3977
S'Philbert'
p3978
aa(lp3979
S'Philip'
p3980
aa(lp3981
S'Phillip'
p3982
aa(lp3983
S'Phillipe'
p3984
aa(lp3985
S'Phillipp'
p3986
aa(lp3987
S'Phineas'
p3988
aa(lp3989
S'Phip'
p3990
aa(lp3991
S'Pierce'
p3992
aa(lp3993
S'Pierre'
p3994
aa(lp3995
S'Pierson'
p3996
aa(lp3997
S'Piet'
p3998
aa(lp3999
S'Pieter'
p4000
aa(lp4001
S'Pietro'
p4002
aa(lp4003
S'Piggy'
p4004
aa(lp4005
S'Pincas'
p4006
aa(lp4007
S'Pinchas'
p4008
aa(lp4009
S'Pincus'
p4010
aa(lp4011
S'Piotr'
p4012
aa(lp4013
S'Pip'
p4014
aa(lp4015
S'Plato'
p4016
aa(lp4017
S'Pooh'
p4018
aa(lp4019
S'Porter'
p4020
aa(lp4021
S'Poul'
p4022
aa(lp4023
S'Powell'
p4024
aa(lp4025
S'Praneetf'
p4026
aa(lp4027
S'Prasad'
p4028
aa(lp4029
S'Prasun'
p4030
aa(lp4031
S'Prent'
p4032
aa(lp4033
S'Prentice'
p4034
aa(lp4035
S'Prentiss'
p4036
aa(lp4037
S'Prescott'
p4038
aa(lp4039
S'Preston'
p4040
aa(lp4041
S'Price'
p4042
aa(lp4043
S'Prince'
p4044
aa(lp4045
S'Pryce'
p4046
aa(lp4047
S'Puff'
p4048
aa(lp4049
S'Purcell'
p4050
aa(lp4051
S'Putnam'
p4052
aa(lp4053
S'Pyotr'
p4054
aa(lp4055
S'Quent'
p4056
aa(lp4057
S'Quentin'
p4058
aa(lp4059
S'Quiggly'
p4060
aa(lp4061
S'Quigly'
p4062
aa(lp4063
S'Quigman'
p4064
aa(lp4065
S'Quill'
p4066
aa(lp4067
S'Quillan'
p4068
aa(lp4069
S'Quincey'
p4070
aa(lp4071
S'Quincy'
p4072
aa(lp4073
S'Quinlan'
p4074
aa(lp4075
S'Quinn'
p4076
aa(lp4077
S'Quint'
p4078
aa(lp4079
S'Quintin'
p4080
aa(lp4081
S'Quinton'
p4082
aa(lp4083
S'Quintus'
p4084
aa(lp4085
S'Rab'
p4086
aa(lp4087
S'Rabbi'
p4088
aa(lp4089
S'Rabi'
p4090
aa(lp4091
S'Rad'
p4092
aa(lp4093
S'Radcliffe'
p4094
aa(lp4095
S'Rafael'
p4096
aa(lp4097
S'Rafe'
p4098
aa(lp4099
S'Ragnar'
p4100
aa(lp4101
S'Rahul'
p4102
aa(lp4103
S'Raimund'
p4104
aa(lp4105
S'Rainer'
p4106
aa(lp4107
S'Raj'
p4108
aa(lp4109
S'Rajeev'
p4110
aa(lp4111
S'Raleigh'
p4112
aa(lp4113
S'Ralf'
p4114
aa(lp4115
S'Ralph'
p4116
aa(lp4117
S'Ram'
p4118
aa(lp4119
S'Ramesh'
p4120
aa(lp4121
S'Ramon'
p4122
aa(lp4123
S'Ramsay'
p4124
aa(lp4125
S'Ramsey'
p4126
aa(lp4127
S'Rand'
p4128
aa(lp4129
S'Randal'
p4130
aa(lp4131
S'Randall'
p4132
aa(lp4133
S'Randell'
p4134
aa(lp4135
S'Randi'
p4136
aa(lp4137
S'Randie'
p4138
aa(lp4139
S'Randolf'
p4140
aa(lp4141
S'Randolph'
p4142
aa(lp4143
S'Randy'
p4144
aa(lp4145
S'Ransell'
p4146
aa(lp4147
S'Ransom'
p4148
aa(lp4149
S'Raoul'
p4150
aa(lp4151
S'Raphael'
p4152
aa(lp4153
S'Raul'
p4154
aa(lp4155
S'Ravi'
p4156
aa(lp4157
S'Ravil'
p4158
aa(lp4159
S'Rawley'
p4160
aa(lp4161
S'Ray'
p4162
aa(lp4163
S'Raymond'
p4164
aa(lp4165
S'Raymund'
p4166
aa(lp4167
S'Raymundo'
p4168
aa(lp4169
S'Raynard'
p4170
aa(lp4171
S'Rayner'
p4172
aa(lp4173
S'Raynor'
p4174
aa(lp4175
S'Reagan'
p4176
aa(lp4177
S'Red'
p4178
aa(lp4179
S'Redford'
p4180
aa(lp4181
S'Redmond'
p4182
aa(lp4183
S'Reece'
p4184
aa(lp4185
S'Reed'
p4186
aa(lp4187
S'Rees'
p4188
aa(lp4189
S'Reese'
p4190
aa(lp4191
S'Reg'
p4192
aa(lp4193
S'Regan'
p4194
aa(lp4195
S'Regen'
p4196
aa(lp4197
S'Reggie'
p4198
aa(lp4199
S'Reggis'
p4200
aa(lp4201
S'Reggy'
p4202
aa(lp4203
S'Reginald'
p4204
aa(lp4205
S'Reginauld'
p4206
aa(lp4207
S'Reid'
p4208
aa(lp4209
S'Reilly'
p4210
aa(lp4211
S'Reinhard'
p4212
aa(lp4213
S'Reinhold'
p4214
aa(lp4215
S'Rem'
p4216
aa(lp4217
S'Remington'
p4218
aa(lp4219
S'Remus'
p4220
aa(lp4221
S'Renado'
p4222
aa(lp4223
S'Renaldo'
p4224
aa(lp4225
S'Renard'
p4226
aa(lp4227
S'Renato'
p4228
aa(lp4229
S'Renaud'
p4230
aa(lp4231
S'Renault'
p4232
aa(lp4233
S'Rene'
p4234
aa(lp4235
S'Reube'
p4236
aa(lp4237
S'Reuben'
p4238
aa(lp4239
S'Reuven'
p4240
aa(lp4241
S'Rex'
p4242
aa(lp4243
S'Rey'
p4244
aa(lp4245
S'Reynard'
p4246
aa(lp4247
S'Reynold'
p4248
aa(lp4249
S'Reynolds'
p4250
aa(lp4251
S'Reza'
p4252
aa(lp4253
S'Rhett'
p4254
aa(lp4255
S'Ric'
p4256
aa(lp4257
S'Ricard'
p4258
aa(lp4259
S'Ricardo'
p4260
aa(lp4261
S'Riccardo'
p4262
aa(lp4263
S'Rice'
p4264
aa(lp4265
S'Rich'
p4266
aa(lp4267
S'Richard'
p4268
aa(lp4269
S'Richardo'
p4270
aa(lp4271
S'Richie'
p4272
aa(lp4273
S'Richmond'
p4274
aa(lp4275
S'Richy'
p4276
aa(lp4277
S'Rick'
p4278
aa(lp4279
S'Rickard'
p4280
aa(lp4281
S'Rickey'
p4282
aa(lp4283
S'Ricki'
p4284
aa(lp4285
S'Rickie'
p4286
aa(lp4287
S'Ricky'
p4288
aa(lp4289
S'Rik'
p4290
aa(lp4291
S'Rikki'
p4292
aa(lp4293
S'Riley'
p4294
aa(lp4295
S'Rinaldo'
p4296
aa(lp4297
S'Ripley'
p4298
aa(lp4299
S'Ritch'
p4300
aa(lp4301
S'Ritchie'
p4302
aa(lp4303
S'Roarke'
p4304
aa(lp4305
S'Rob'
p4306
aa(lp4307
S'Robb'
p4308
aa(lp4309
S'Robbert'
p4310
aa(lp4311
S'Robbie'
p4312
aa(lp4313
S'Robert'
p4314
aa(lp4315
S'Roberto'
p4316
aa(lp4317
S'Robin'
p4318
aa(lp4319
S'Robinson'
p4320
aa(lp4321
S'Rochester'
p4322
aa(lp4323
S'Rock'
p4324
aa(lp4325
S'Rockwell'
p4326
aa(lp4327
S'Rocky'
p4328
aa(lp4329
S'Rod'
p4330
aa(lp4331
S'Rodd'
p4332
aa(lp4333
S'Roddie'
p4334
aa(lp4335
S'Roddy'
p4336
aa(lp4337
S'Roderic'
p4338
aa(lp4339
S'Roderich'
p4340
aa(lp4341
S'Roderick'
p4342
aa(lp4343
S'Roderigo'
p4344
aa(lp4345
S'Rodge'
p4346
aa(lp4347
S'Rodger'
p4348
aa(lp4349
S'Rodney'
p4350
aa(lp4351
S'Rodolfo'
p4352
aa(lp4353
S'Rodolph'
p4354
aa(lp4355
S'Rodolphe'
p4356
aa(lp4357
S'Rodrick'
p4358
aa(lp4359
S'Rodrigo'
p4360
aa(lp4361
S'Rodrique'
p4362
aa(lp4363
S'Rog'
p4364
aa(lp4365
S'Roger'
p4366
aa(lp4367
S'Rogers'
p4368
aa(lp4369
S'Roice'
p4370
aa(lp4371
S'Roland'
p4372
aa(lp4373
S'Rolando'
p4374
aa(lp4375
S'Rolf'
p4376
aa(lp4377
S'Rolfe'
p4378
aa(lp4379
S'Rolland'
p4380
aa(lp4381
S'Rollin'
p4382
aa(lp4383
S'Rollins'
p4384
aa(lp4385
S'Rollo'
p4386
aa(lp4387
S'Rolph'
p4388
aa(lp4389
S'Romain'
p4390
aa(lp4391
S'Roman'
p4392
aa(lp4393
S'Romeo'
p4394
aa(lp4395
S'Ron'
p4396
aa(lp4397
S'Ronald'
p4398
aa(lp4399
S'Ronen'
p4400
aa(lp4401
S'Roni'
p4402
aa(lp4403
S'Ronnie'
p4404
aa(lp4405
S'Ronny'
p4406
aa(lp4407
S'Roosevelt'
p4408
aa(lp4409
S'Rory'
p4410
aa(lp4411
S'Roscoe'
p4412
aa(lp4413
S'Ross'
p4414
aa(lp4415
S'Roth'
p4416
aa(lp4417
S'Rourke'
p4418
aa(lp4419
S'Rowland'
p4420
aa(lp4421
S'Roy'
p4422
aa(lp4423
S'Royal'
p4424
aa(lp4425
S'Royce'
p4426
aa(lp4427
S'Rube'
p4428
aa(lp4429
S'Ruben'
p4430
aa(lp4431
S'Rubin'
p4432
aa(lp4433
S'Ruby'
p4434
aa(lp4435
S'Rudd'
p4436
aa(lp4437
S'Ruddie'
p4438
aa(lp4439
S'Ruddy'
p4440
aa(lp4441
S'Rudie'
p4442
aa(lp4443
S'Rudiger'
p4444
aa(lp4445
S'Rudolf'
p4446
aa(lp4447
S'Rudolfo'
p4448
aa(lp4449
S'Rudolph'
p4450
aa(lp4451
S'Rudy'
p4452
aa(lp4453
S'Rudyard'
p4454
aa(lp4455
S'Rufe'
p4456
aa(lp4457
S'Rufus'
p4458
aa(lp4459
S'Rupert'
p4460
aa(lp4461
S'Ruperto'
p4462
aa(lp4463
S'Russ'
p4464
aa(lp4465
S'Russel'
p4466
aa(lp4467
S'Russell'
p4468
aa(lp4469
S'Rustie'
p4470
aa(lp4471
S'Rustin'
p4472
aa(lp4473
S'Rusty'
p4474
aa(lp4475
S'Rutger'
p4476
aa(lp4477
S'Rutherford'
p4478
aa(lp4479
S'Rutledge'
p4480
aa(lp4481
S'Rutter'
p4482
aa(lp4483
S'Ryan'
p4484
aa(lp4485
S'Sal'
p4486
aa(lp4487
S'Salem'
p4488
aa(lp4489
S'Salim'
p4490
aa(lp4491
S'Salman'
p4492
aa(lp4493
S'Salmon'
p4494
aa(lp4495
S'Salomo'
p4496
aa(lp4497
S'Salomon'
p4498
aa(lp4499
S'Salomone'
p4500
aa(lp4501
S'Salvador'
p4502
aa(lp4503
S'Salvatore'
p4504
aa(lp4505
S'Salvidor'
p4506
aa(lp4507
S'Sam'
p4508
aa(lp4509
S'Sammie'
p4510
aa(lp4511
S'Sammy'
p4512
aa(lp4513
S'Sampson'
p4514
aa(lp4515
S'Samson'
p4516
aa(lp4517
S'Samuel'
p4518
aa(lp4519
S'Samuele'
p4520
aa(lp4521
S'Sancho'
p4522
aa(lp4523
S'Sander'
p4524
aa(lp4525
S'Sanders'
p4526
aa(lp4527
S'Sanderson'
p4528
aa(lp4529
S'Sandor'
p4530
aa(lp4531
S'Sandro'
p4532
aa(lp4533
S'Sandy'
p4534
aa(lp4535
S'Sanford'
p4536
aa(lp4537
S'Sanson'
p4538
aa(lp4539
S'Sansone'
p4540
aa(lp4541
S'Sarge'
p4542
aa(lp4543
S'Sargent'
p4544
aa(lp4545
S'Sascha'
p4546
aa(lp4547
S'Sasha'
p4548
aa(lp4549
S'Saul'
p4550
aa(lp4551
S'Sauncho'
p4552
aa(lp4553
S'Saunder'
p4554
aa(lp4555
S'Saunders'
p4556
aa(lp4557
S'Saunderson'
p4558
aa(lp4559
S'Saundra'
p4560
aa(lp4561
S'Saw'
p4562
aa(lp4563
S'Sawyer'
p4564
aa(lp4565
S'Sawyere'
p4566
aa(lp4567
S'Sax'
p4568
aa(lp4569
S'Saxe'
p4570
aa(lp4571
S'Saxon'
p4572
aa(lp4573
S'Say'
p4574
aa(lp4575
S'Sayer'
p4576
aa(lp4577
S'Sayers'
p4578
aa(lp4579
S'Sayre'
p4580
aa(lp4581
S'Sayres'
p4582
aa(lp4583
S'Scarface'
p4584
aa(lp4585
S'Schroeder'
p4586
aa(lp4587
S'Schuyler'
p4588
aa(lp4589
S'Scot'
p4590
aa(lp4591
S'Scott'
p4592
aa(lp4593
S'Scotti'
p4594
aa(lp4595
S'Scottie'
p4596
aa(lp4597
S'Scotty'
p4598
aa(lp4599
S'Seamus'
p4600
aa(lp4601
S'Sean'
p4602
aa(lp4603
S'Sebastian'
p4604
aa(lp4605
S'Sebastiano'
p4606
aa(lp4607
S'Sebastien'
p4608
aa(lp4609
S'See'
p4610
aa(lp4611
S'Selby'
p4612
aa(lp4613
S'Selig'
p4614
aa(lp4615
S'Serge'
p4616
aa(lp4617
S'Sergeant'
p4618
aa(lp4619
S'Sergei'
p4620
aa(lp4621
S'Sergent'
p4622
aa(lp4623
S'Sergio'
p4624
aa(lp4625
S'Seth'
p4626
aa(lp4627
S'Seymour'
p4628
aa(lp4629
S'Shadow'
p4630
aa(lp4631
S'Shaine'
p4632
aa(lp4633
S'Shalom'
p4634
aa(lp4635
S'Shamus'
p4636
aa(lp4637
S'Shanan'
p4638
aa(lp4639
S'Shane'
p4640
aa(lp4641
S'Shannan'
p4642
aa(lp4643
S'Shannon'
p4644
aa(lp4645
S'Shaughn'
p4646
aa(lp4647
S'Shaun'
p4648
aa(lp4649
S'Shaw'
p4650
aa(lp4651
S'Shawn'
p4652
aa(lp4653
S'Shay'
p4654
aa(lp4655
S'Shayne'
p4656
aa(lp4657
S'Shea'
p4658
aa(lp4659
S'Sheff'
p4660
aa(lp4661
S'Sheffie'
p4662
aa(lp4663
S'Sheffield'
p4664
aa(lp4665
S'Sheffy'
p4666
aa(lp4667
S'Shelby'
p4668
aa(lp4669
S'Shelden'
p4670
aa(lp4671
S'Sheldon'
p4672
aa(lp4673
S'Shell'
p4674
aa(lp4675
S'Shelley'
p4676
aa(lp4677
S'Shelton'
p4678
aa(lp4679
S'Shem'
p4680
aa(lp4681
S'Shep'
p4682
aa(lp4683
S'Shepard'
p4684
aa(lp4685
S'Shepherd'
p4686
aa(lp4687
S'Sheppard'
p4688
aa(lp4689
S'Shepperd'
p4690
aa(lp4691
S'Sheridan'
p4692
aa(lp4693
S'Sherlock'
p4694
aa(lp4695
S'Sherlocke'
p4696
aa(lp4697
S'Sherman'
p4698
aa(lp4699
S'Sherwin'
p4700
aa(lp4701
S'Sherwood'
p4702
aa(lp4703
S'Sherwynd'
p4704
aa(lp4705
S'Shimon'
p4706
aa(lp4707
S'Shlomo'
p4708
aa(lp4709
S'Sholom'
p4710
aa(lp4711
S'Shorty'
p4712
aa(lp4713
S'Shumeet'
p4714
aa(lp4715
S'Shurlock'
p4716
aa(lp4717
S'Shurlocke'
p4718
aa(lp4719
S'Shurwood'
p4720
aa(lp4721
S'Si'
p4722
aa(lp4723
S'Sibyl'
p4724
aa(lp4725
S'Sid'
p4726
aa(lp4727
S'Siddhartha'
p4728
aa(lp4729
S'Sidnee'
p4730
aa(lp4731
S'Sidney'
p4732
aa(lp4733
S'Siegfried'
p4734
aa(lp4735
S'Siffre'
p4736
aa(lp4737
S'Sig'
p4738
aa(lp4739
S'Sigfrid'
p4740
aa(lp4741
S'Sigfried'
p4742
aa(lp4743
S'Sigmund'
p4744
aa(lp4745
S'Silas'
p4746
aa(lp4747
S'Silvain'
p4748
aa(lp4749
S'Silvan'
p4750
aa(lp4751
S'Silvano'
p4752
aa(lp4753
S'Silvanus'
p4754
aa(lp4755
S'Silvester'
p4756
aa(lp4757
S'Silvio'
p4758
aa(lp4759
S'Sim'
p4760
aa(lp4761
S'Simeon'
p4762
aa(lp4763
S'Simmonds'
p4764
aa(lp4765
S'Simon'
p4766
aa(lp4767
S'Simone'
p4768
aa(lp4769
S'Sinclair'
p4770
aa(lp4771
S'Sinclare'
p4772
aa(lp4773
S'Sivert'
p4774
aa(lp4775
S'Siward'
p4776
aa(lp4777
S'Skell'
p4778
aa(lp4779
S'Skelly'
p4780
aa(lp4781
S'Skip'
p4782
aa(lp4783
S'Skipp'
p4784
aa(lp4785
S'Skipper'
p4786
aa(lp4787
S'Skippie'
p4788
aa(lp4789
S'Skippy'
p4790
aa(lp4791
S'Skipton'
p4792
aa(lp4793
S'Sky'
p4794
aa(lp4795
S'Skye'
p4796
aa(lp4797
S'Skylar'
p4798
aa(lp4799
S'Skyler'
p4800
aa(lp4801
S'Slade'
p4802
aa(lp4803
S'Slim'
p4804
aa(lp4805
S'Sloan'
p4806
aa(lp4807
S'Sloane'
p4808
aa(lp4809
S'Sly'
p4810
aa(lp4811
S'Smith'
p4812
aa(lp4813
S'Smitty'
p4814
aa(lp4815
S'Socrates'
p4816
aa(lp4817
S'Sol'
p4818
aa(lp4819
S'Sollie'
p4820
aa(lp4821
S'Solly'
p4822
aa(lp4823
S'Solomon'
p4824
aa(lp4825
S'Somerset'
p4826
aa(lp4827
S'Son'
p4828
aa(lp4829
S'Sonnie'
p4830
aa(lp4831
S'Sonny'
p4832
aa(lp4833
S'Sparky'
p4834
aa(lp4835
S'Spence'
p4836
aa(lp4837
S'Spencer'
p4838
aa(lp4839
S'Spense'
p4840
aa(lp4841
S'Spenser'
p4842
aa(lp4843
S'Spike'
p4844
aa(lp4845
S'Spiro'
p4846
aa(lp4847
S'Spiros'
p4848
aa(lp4849
S'Spud'
p4850
aa(lp4851
S'Srinivas'
p4852
aa(lp4853
S'Stacy'
p4854
aa(lp4855
S'Staffard'
p4856
aa(lp4857
S'Stafford'
p4858
aa(lp4859
S'Staford'
p4860
aa(lp4861
S'Stan'
p4862
aa(lp4863
S'Standford'
p4864
aa(lp4865
S'Stanfield'
p4866
aa(lp4867
S'Stanford'
p4868
aa(lp4869
S'Stanislaw'
p4870
aa(lp4871
S'Stanleigh'
p4872
aa(lp4873
S'Stanley'
p4874
aa(lp4875
S'Stanly'
p4876
aa(lp4877
S'Stanton'
p4878
aa(lp4879
S'Stanwood'
p4880
aa(lp4881
S'Stavros'
p4882
aa(lp4883
S'Stearn'
p4884
aa(lp4885
S'Stearne'
p4886
aa(lp4887
S'Stefan'
p4888
aa(lp4889
S'Stefano'
p4890
aa(lp4891
S'Steffen'
p4892
aa(lp4893
S'Stephan'
p4894
aa(lp4895
S'Stephanus'
p4896
aa(lp4897
S'Stephen'
p4898
aa(lp4899
S'Sterling'
p4900
aa(lp4901
S'Stern'
p4902
aa(lp4903
S'Sterne'
p4904
aa(lp4905
S'Steve'
p4906
aa(lp4907
S'Steven'
p4908
aa(lp4909
S'Stevie'
p4910
aa(lp4911
S'Stevy'
p4912
aa(lp4913
S'Stew'
p4914
aa(lp4915
S'Steward'
p4916
aa(lp4917
S'Stewart'
p4918
aa(lp4919
S'Stig'
p4920
aa(lp4921
S'Stillman'
p4922
aa(lp4923
S'Stillmann'
p4924
aa(lp4925
S'Sting'
p4926
aa(lp4927
S'Stinky'
p4928
aa(lp4929
S'Stirling'
p4930
aa(lp4931
S'Stu'
p4932
aa(lp4933
S'Stuart'
p4934
aa(lp4935
S'Sturgis'
p4936
aa(lp4937
S'Sullivan'
p4938
aa(lp4939
S'Sully'
p4940
aa(lp4941
S'Sumner'
p4942
aa(lp4943
S'Sunny'
p4944
aa(lp4945
S'Sutherland'
p4946
aa(lp4947
S'Sutton'
p4948
aa(lp4949
S'Sven'
p4950
aa(lp4951
S'Swen'
p4952
aa(lp4953
S'Syd'
p4954
aa(lp4955
S'Sydney'
p4956
aa(lp4957
S'Sylvan'
p4958
aa(lp4959
S'Sylvester'
p4960
aa(lp4961
S'Tab'
p4962
aa(lp4963
S'Tabb'
p4964
aa(lp4965
S'Tabbie'
p4966
aa(lp4967
S'Tabby'
p4968
aa(lp4969
S'Taber'
p4970
aa(lp4971
S'Tabor'
p4972
aa(lp4973
S'Tad'
p4974
aa(lp4975
S'Tadd'
p4976
aa(lp4977
S'Taddeo'
p4978
aa(lp4979
S'Taddeus'
p4980
aa(lp4981
S'Tadeas'
p4982
aa(lp4983
S'Tailor'
p4984
aa(lp4985
S'Tait'
p4986
aa(lp4987
S'Taite'
p4988
aa(lp4989
S'Talbert'
p4990
aa(lp4991
S'Talbot'
p4992
aa(lp4993
S'Tallie'
p4994
aa(lp4995
S'Tally'
p4996
aa(lp4997
S'Tam'
p4998
aa(lp4999
S'Tamas'
p5000
aa(lp5001
S'Tammie'
p5002
aa(lp5003
S'Tammy'
p5004
aa(lp5005
S'Tan'
p5006
aa(lp5007
S'Tann'
p5008
aa(lp5009
S'Tanner'
p5010
aa(lp5011
S'Tanney'
p5012
aa(lp5013
S'Tannie'
p5014
aa(lp5015
S'Tanny'
p5016
aa(lp5017
S'Tarrance'
p5018
aa(lp5019
S'Tarrant'
p5020
aa(lp5021
S'Tarzan'
p5022
aa(lp5023
S'Tate'
p5024
aa(lp5025
S'Taylor'
p5026
aa(lp5027
S'Teador'
p5028
aa(lp5029
S'Ted'
p5030
aa(lp5031
S'Tedd'
p5032
aa(lp5033
S'Teddie'
p5034
aa(lp5035
S'Teddy'
p5036
aa(lp5037
S'Tedie'
p5038
aa(lp5039
S'Tedman'
p5040
aa(lp5041
S'Tedmund'
p5042
aa(lp5043
S'Tedrick'
p5044
aa(lp5045
S'Temp'
p5046
aa(lp5047
S'Temple'
p5048
aa(lp5049
S'Templeton'
p5050
aa(lp5051
S'Teodoor'
p5052
aa(lp5053
S'Teodor'
p5054
aa(lp5055
S'Teodorico'
p5056
aa(lp5057
S'Teodoro'
p5058
aa(lp5059
S'Terence'
p5060
aa(lp5061
S'Terencio'
p5062
aa(lp5063
S'Terrance'
p5064
aa(lp5065
S'Terrel'
p5066
aa(lp5067
S'Terrell'
p5068
aa(lp5069
S'Terrence'
p5070
aa(lp5071
S'Terri'
p5072
aa(lp5073
S'Terrill'
p5074
aa(lp5075
S'Terry'
p5076
aa(lp5077
S'Thacher'
p5078
aa(lp5079
S'Thad'
p5080
aa(lp5081
S'Thaddeus'
p5082
aa(lp5083
S'Thaddius'
p5084
aa(lp5085
S'Thaddus'
p5086
aa(lp5087
S'Thadeus'
p5088
aa(lp5089
S'Thain'
p5090
aa(lp5091
S'Thaine'
p5092
aa(lp5093
S'Thane'
p5094
aa(lp5095
S'Tharen'
p5096
aa(lp5097
S'Thatch'
p5098
aa(lp5099
S'Thatcher'
p5100
aa(lp5101
S'Thaxter'
p5102
aa(lp5103
S'Thayne'
p5104
aa(lp5105
S'Thebault'
p5106
aa(lp5107
S'Thedric'
p5108
aa(lp5109
S'Thedrick'
p5110
aa(lp5111
S'Theo'
p5112
aa(lp5113
S'Theobald'
p5114
aa(lp5115
S'Theodor'
p5116
aa(lp5117
S'Theodore'
p5118
aa(lp5119
S'Theodoric'
p5120
aa(lp5121
S'Theophyllus'
p5122
aa(lp5123
S'Thibaud'
p5124
aa(lp5125
S'Thibaut'
p5126
aa(lp5127
S'Thom'
p5128
aa(lp5129
S'Thomas'
p5130
aa(lp5131
S'Thor'
p5132
aa(lp5133
S'Thorn'
p5134
aa(lp5135
S'Thorndike'
p5136
aa(lp5137
S'Thornie'
p5138
aa(lp5139
S'Thornton'
p5140
aa(lp5141
S'Thorny'
p5142
aa(lp5143
S'Thorpe'
p5144
aa(lp5145
S'Thorstein'
p5146
aa(lp5147
S'Thorsten'
p5148
aa(lp5149
S'Thorvald'
p5150
aa(lp5151
S'Thurstan'
p5152
aa(lp5153
S'Thurston'
p5154
aa(lp5155
S'Tibold'
p5156
aa(lp5157
S'Tiebold'
p5158
aa(lp5159
S'Tiebout'
p5160
aa(lp5161
S'Tiler'
p5162
aa(lp5163
S'Tim'
p5164
aa(lp5165
S'Timmie'
p5166
aa(lp5167
S'Timmy'
p5168
aa(lp5169
S'Timothee'
p5170
aa(lp5171
S'Timotheus'
p5172
aa(lp5173
S'Timothy'
p5174
aa(lp5175
S'Tirrell'
p5176
aa(lp5177
S'Tito'
p5178
aa(lp5179
S'Titos'
p5180
aa(lp5181
S'Titus'
p5182
aa(lp5183
S'Tobe'
p5184
aa(lp5185
S'Tobiah'
p5186
aa(lp5187
S'Tobias'
p5188
aa(lp5189
S'Tobie'
p5190
aa(lp5191
S'Tobin'
p5192
aa(lp5193
S'Tobit'
p5194
aa(lp5195
S'Toby'
p5196
aa(lp5197
S'Tod'
p5198
aa(lp5199
S'Todd'
p5200
aa(lp5201
S'Toddie'
p5202
aa(lp5203
S'Toddy'
p5204
aa(lp5205
S'Tom'
p5206
aa(lp5207
S'Tomas'
p5208
aa(lp5209
S'Tome'
p5210
aa(lp5211
S'Tomkin'
p5212
aa(lp5213
S'Tomlin'
p5214
aa(lp5215
S'Tommie'
p5216
aa(lp5217
S'Tommy'
p5218
aa(lp5219
S'Tonnie'
p5220
aa(lp5221
S'Tony'
p5222
aa(lp5223
S'Tore'
p5224
aa(lp5225
S'Torey'
p5226
aa(lp5227
S'Torin'
p5228
aa(lp5229
S'Torr'
p5230
aa(lp5231
S'Torrance'
p5232
aa(lp5233
S'Torre'
p5234
aa(lp5235
S'Torrence'
p5236
aa(lp5237
S'Torrey'
p5238
aa(lp5239
S'Torrin'
p5240
aa(lp5241
S'Torry'
p5242
aa(lp5243
S'Town'
p5244
aa(lp5245
S'Towney'
p5246
aa(lp5247
S'Townie'
p5248
aa(lp5249
S'Townsend'
p5250
aa(lp5251
S'Towny'
p5252
aa(lp5253
S'Trace'
p5254
aa(lp5255
S'Tracey'
p5256
aa(lp5257
S'Tracie'
p5258
aa(lp5259
S'Tracy'
p5260
aa(lp5261
S'Traver'
p5262
aa(lp5263
S'Travers'
p5264
aa(lp5265
S'Travis'
p5266
aa(lp5267
S'Tray'
p5268
aa(lp5269
S'Tre'
p5270
aa(lp5271
S'Tremain'
p5272
aa(lp5273
S'Tremaine'
p5274
aa(lp5275
S'Tremayne'
p5276
aa(lp5277
S'Trent'
p5278
aa(lp5279
S'Trenton'
p5280
aa(lp5281
S'Trev'
p5282
aa(lp5283
S'Trevar'
p5284
aa(lp5285
S'Trever'
p5286
aa(lp5287
S'Trevor'
p5288
aa(lp5289
S'Trey'
p5290
aa(lp5291
S'Trip'
p5292
aa(lp5293
S'Tristan'
p5294
aa(lp5295
S'Troy'
p5296
aa(lp5297
S'Truman'
p5298
aa(lp5299
S'Tuck'
p5300
aa(lp5301
S'Tucker'
p5302
aa(lp5303
S'Tuckie'
p5304
aa(lp5305
S'Tucky'
p5306
aa(lp5307
S'Tudor'
p5308
aa(lp5309
S'Tull'
p5310
aa(lp5311
S'Tulley'
p5312
aa(lp5313
S'Tully'
p5314
aa(lp5315
S'Turner'
p5316
aa(lp5317
S'Ty'
p5318
aa(lp5319
S'Tybalt'
p5320
aa(lp5321
S'Tye'
p5322
aa(lp5323
S'Tyler'
p5324
aa(lp5325
S'Tymon'
p5326
aa(lp5327
S'Tymothy'
p5328
aa(lp5329
S'Tynan'
p5330
aa(lp5331
S'Tyrone'
p5332
aa(lp5333
S'Tyrus'
p5334
aa(lp5335
S'Tyson'
p5336
aa(lp5337
S'Udale'
p5338
aa(lp5339
S'Udall'
p5340
aa(lp5341
S'Udell'
p5342
aa(lp5343
S'Ugo'
p5344
aa(lp5345
S'Ulberto'
p5346
aa(lp5347
S'Uli'
p5348
aa(lp5349
S'Ulick'
p5350
aa(lp5351
S'Ulises'
p5352
aa(lp5353
S'Ulric'
p5354
aa(lp5355
S'Ulrich'
p5356
aa(lp5357
S'Ulrick'
p5358
aa(lp5359
S'Ulysses'
p5360
aa(lp5361
S'Umberto'
p5362
aa(lp5363
S'Upton'
p5364
aa(lp5365
S'Urbain'
p5366
aa(lp5367
S'Urban'
p5368
aa(lp5369
S'Urbano'
p5370
aa(lp5371
S'Urbanus'
p5372
aa(lp5373
S'Uri'
p5374
aa(lp5375
S'Uriah'
p5376
aa(lp5377
S'Uriel'
p5378
aa(lp5379
S'Urson'
p5380
aa(lp5381
S'Vachel'
p5382
aa(lp5383
S'Vaclav'
p5384
aa(lp5385
S'Vail'
p5386
aa(lp5387
S'Val'
p5388
aa(lp5389
S'Valdemar'
p5390
aa(lp5391
S'Vale'
p5392
aa(lp5393
S'Valentin'
p5394
aa(lp5395
S'Valentine'
p5396
aa(lp5397
S'Van'
p5398
aa(lp5399
S'Vance'
p5400
aa(lp5401
S'Vasili'
p5402
aa(lp5403
S'Vasilis'
p5404
aa(lp5405
S'Vasily'
p5406
aa(lp5407
S'Vassili'
p5408
aa(lp5409
S'Vassily'
p5410
aa(lp5411
S'Vaughan'
p5412
aa(lp5413
S'Vaughn'
p5414
aa(lp5415
S'Venkat'
p5416
aa(lp5417
S'Verge'
p5418
aa(lp5419
S'Vergil'
p5420
aa(lp5421
S'Vern'
p5422
aa(lp5423
S'Verne'
p5424
aa(lp5425
S'Vernen'
p5426
aa(lp5427
S'Verney'
p5428
aa(lp5429
S'Vernon'
p5430
aa(lp5431
S'Vernor'
p5432
aa(lp5433
S'Vibhu'
p5434
aa(lp5435
S'Vic'
p5436
aa(lp5437
S'Vick'
p5438
aa(lp5439
S'Victor'
p5440
aa(lp5441
S'Vijay'
p5442
aa(lp5443
S'Vilhelm'
p5444
aa(lp5445
S'Vin'
p5446
aa(lp5447
S'Vince'
p5448
aa(lp5449
S'Vincent'
p5450
aa(lp5451
S'Vincents'
p5452
aa(lp5453
S'Vinnie'
p5454
aa(lp5455
S'Vinny'
p5456
aa(lp5457
S'Vinod'
p5458
aa(lp5459
S'Virge'
p5460
aa(lp5461
S'Virgie'
p5462
aa(lp5463
S'Virgil'
p5464
aa(lp5465
S'Virgilio'
p5466
aa(lp5467
S'Vite'
p5468
aa(lp5469
S'Vito'
p5470
aa(lp5471
S'Vlad'
p5472
aa(lp5473
S'Vladamir'
p5474
aa(lp5475
S'Vladimir'
p5476
aa(lp5477
S'Voltaire'
p5478
aa(lp5479
S'Von'
p5480
aa(lp5481
S'Wade'
p5482
aa(lp5483
S'Wadsworth'
p5484
aa(lp5485
S'Wain'
p5486
aa(lp5487
S'Waine'
p5488
aa(lp5489
S'Wainwright'
p5490
aa(lp5491
S'Wait'
p5492
aa(lp5493
S'Waite'
p5494
aa(lp5495
S'Waiter'
p5496
aa(lp5497
S'Wake'
p5498
aa(lp5499
S'Wakefield'
p5500
aa(lp5501
S'Wald'
p5502
aa(lp5503
S'Waldemar'
p5504
aa(lp5505
S'Walden'
p5506
aa(lp5507
S'Waldo'
p5508
aa(lp5509
S'Waldon'
p5510
aa(lp5511
S'Waleed'
p5512
aa(lp5513
S'Walker'
p5514
aa(lp5515
S'Wallace'
p5516
aa(lp5517
S'Wallache'
p5518
aa(lp5519
S'Wallas'
p5520
aa(lp5521
S'Wallie'
p5522
aa(lp5523
S'Wallis'
p5524
aa(lp5525
S'Wally'
p5526
aa(lp5527
S'Walsh'
p5528
aa(lp5529
S'Walt'
p5530
aa(lp5531
S'Walter'
p5532
aa(lp5533
S'Walther'
p5534
aa(lp5535
S'Walton'
p5536
aa(lp5537
S'Wang'
p5538
aa(lp5539
S'Ward'
p5540
aa(lp5541
S'Warde'
p5542
aa(lp5543
S'Warden'
p5544
aa(lp5545
S'Ware'
p5546
aa(lp5547
S'Waring'
p5548
aa(lp5549
S'Warner'
p5550
aa(lp5551
S'Warren'
p5552
aa(lp5553
S'Wash'
p5554
aa(lp5555
S'Washington'
p5556
aa(lp5557
S'Wat'
p5558
aa(lp5559
S'Waverley'
p5560
aa(lp5561
S'Waverly'
p5562
aa(lp5563
S'Way'
p5564
aa(lp5565
S'Waylan'
p5566
aa(lp5567
S'Wayland'
p5568
aa(lp5569
S'Waylen'
p5570
aa(lp5571
S'Waylin'
p5572
aa(lp5573
S'Waylon'
p5574
aa(lp5575
S'Wayne'
p5576
aa(lp5577
S'Web'
p5578
aa(lp5579
S'Webb'
p5580
aa(lp5581
S'Weber'
p5582
aa(lp5583
S'Webster'
p5584
aa(lp5585
S'Weidar'
p5586
aa(lp5587
S'Weider'
p5588
aa(lp5589
S'Welbie'
p5590
aa(lp5591
S'Welby'
p5592
aa(lp5593
S'Welch'
p5594
aa(lp5595
S'Wells'
p5596
aa(lp5597
S'Welsh'
p5598
aa(lp5599
S'Wendall'
p5600
aa(lp5601
S'Wendel'
p5602
aa(lp5603
S'Wendell'
p5604
aa(lp5605
S'Werner'
p5606
aa(lp5607
S'Wes'
p5608
aa(lp5609
S'Wesley'
p5610
aa(lp5611
S'Weslie'
p5612
aa(lp5613
S'West'
p5614
aa(lp5615
S'Westbrook'
p5616
aa(lp5617
S'Westbrooke'
p5618
aa(lp5619
S'Westleigh'
p5620
aa(lp5621
S'Westley'
p5622
aa(lp5623
S'Weston'
p5624
aa(lp5625
S'Weylin'
p5626
aa(lp5627
S'Wheeler'
p5628
aa(lp5629
S'Whit'
p5630
aa(lp5631
S'Whitaker'
p5632
aa(lp5633
S'Whitby'
p5634
aa(lp5635
S'Whitman'
p5636
aa(lp5637
S'Whitney'
p5638
aa(lp5639
S'Whittaker'
p5640
aa(lp5641
S'Wiatt'
p5642
aa(lp5643
S'Wilber'
p5644
aa(lp5645
S'Wilbert'
p5646
aa(lp5647
S'Wilbur'
p5648
aa(lp5649
S'Wilburn'
p5650
aa(lp5651
S'Wilburt'
p5652
aa(lp5653
S'Wilden'
p5654
aa(lp5655
S'Wildon'
p5656
aa(lp5657
S'Wilek'
p5658
aa(lp5659
S'Wiley'
p5660
aa(lp5661
S'Wilfred'
p5662
aa(lp5663
S'Wilfrid'
p5664
aa(lp5665
S'Wilhelm'
p5666
aa(lp5667
S'Will'
p5668
aa(lp5669
S'Willard'
p5670
aa(lp5671
S'Willdon'
p5672
aa(lp5673
S'Willem'
p5674
aa(lp5675
S'Willey'
p5676
aa(lp5677
S'Willi'
p5678
aa(lp5679
S'William'
p5680
aa(lp5681
S'Willie'
p5682
aa(lp5683
S'Willis'
p5684
aa(lp5685
S'Willmott'
p5686
aa(lp5687
S'Willy'
p5688
aa(lp5689
S'Wilmar'
p5690
aa(lp5691
S'Wilmer'
p5692
aa(lp5693
S'Wilson'
p5694
aa(lp5695
S'Wilt'
p5696
aa(lp5697
S'Wilton'
p5698
aa(lp5699
S'Win'
p5700
aa(lp5701
S'Windham'
p5702
aa(lp5703
S'Winfield'
p5704
aa(lp5705
S'Winford'
p5706
aa(lp5707
S'Winfred'
p5708
aa(lp5709
S'Winifield'
p5710
aa(lp5711
S'Winn'
p5712
aa(lp5713
S'Winnie'
p5714
aa(lp5715
S'Winny'
p5716
aa(lp5717
S'Winslow'
p5718
aa(lp5719
S'Winston'
p5720
aa(lp5721
S'Winthrop'
p5722
aa(lp5723
S'Winton'
p5724
aa(lp5725
S'Wit'
p5726
aa(lp5727
S'Witold'
p5728
aa(lp5729
S'Wittie'
p5730
aa(lp5731
S'Witty'
p5732
aa(lp5733
S'Wojciech'
p5734
aa(lp5735
S'Wolf'
p5736
aa(lp5737
S'Wolfgang'
p5738
aa(lp5739
S'Wolfie'
p5740
aa(lp5741
S'Wolfram'
p5742
aa(lp5743
S'Wolfy'
p5744
aa(lp5745
S'Woochang'
p5746
aa(lp5747
S'Wood'
p5748
aa(lp5749
S'Woodie'
p5750
aa(lp5751
S'Woodman'
p5752
aa(lp5753
S'Woodrow'
p5754
aa(lp5755
S'Woody'
p5756
aa(lp5757
S'Worden'
p5758
aa(lp5759
S'Worth'
p5760
aa(lp5761
S'Worthington'
p5762
aa(lp5763
S'Worthy'
p5764
aa(lp5765
S'Wright'
p5766
aa(lp5767
S'Wyatan'
p5768
aa(lp5769
S'Wyatt'
p5770
aa(lp5771
S'Wye'
p5772
aa(lp5773
S'Wylie'
p5774
aa(lp5775
S'Wyn'
p5776
aa(lp5777
S'Wyndham'
p5778
aa(lp5779
S'Wynn'
p5780
aa(lp5781
S'Wynton'
p5782
aa(lp5783
S'Xavier'
p5784
aa(lp5785
S'Xenos'
p5786
aa(lp5787
S'Xerxes'
p5788
aa(lp5789
S'Xever'
p5790
aa(lp5791
S'Ximenes'
p5792
aa(lp5793
S'Ximenez'
p5794
aa(lp5795
S'Xymenes'
p5796
aa(lp5797
S'Yaakov'
p5798
aa(lp5799
S'Yacov'
p5800
aa(lp5801
S'Yale'
p5802
aa(lp5803
S'Yanaton'
p5804
aa(lp5805
S'Yance'
p5806
aa(lp5807
S'Yancey'
p5808
aa(lp5809
S'Yancy'
p5810
aa(lp5811
S'Yank'
p5812
aa(lp5813
S'Yankee'
p5814
aa(lp5815
S'Yard'
p5816
aa(lp5817
S'Yardley'
p5818
aa(lp5819
S'Yehudi'
p5820
aa(lp5821
S'Yigal'
p5822
aa(lp5823
S'Yule'
p5824
aa(lp5825
S'Yuri'
p5826
aa(lp5827
S'Yves'
p5828
aa(lp5829
S'Zach'
p5830
aa(lp5831
S'Zacharia'
p5832
aa(lp5833
S'Zachariah'
p5834
aa(lp5835
S'Zacharias'
p5836
aa(lp5837
S'Zacharie'
p5838
aa(lp5839
S'Zachary'
p5840
aa(lp5841
S'Zacherie'
p5842
aa(lp5843
S'Zachery'
p5844
aa(lp5845
S'Zack'
p5846
aa(lp5847
S'Zackariah'
p5848
aa(lp5849
S'Zak'
p5850
aa(lp5851
S'Zalman'
p5852
aa(lp5853
S'Zane'
p5854
aa(lp5855
S'Zared'
p5856
aa(lp5857
S'Zary'
p5858
aa(lp5859
S'Zeb'
p5860
aa(lp5861
S'Zebadiah'
p5862
aa(lp5863
S'Zebedee'
p5864
aa(lp5865
S'Zebulen'
p5866
aa(lp5867
S'Zebulon'
p5868
aa(lp5869
S'Zechariah'
p5870
aa(lp5871
S'Zed'
p5872
aa(lp5873
S'Zedekiah'
p5874
aa(lp5875
S'Zeke'
p5876
aa(lp5877
S'Zelig'
p5878
aa(lp5879
S'Zerk'
p5880
aa(lp5881
S'Zeus'
p5882
aa(lp5883
S'Zippy'
p5884
aa(lp5885
S'Zollie'
p5886
aa(lp5887
S'Zolly'
p5888
aa(lp5889
S'Zorro'
p5890
aa.