c__builtin__
set
p1
((lp2
V['Jeffry']
p3
aV['Mead']
p4
aV['Barth']
p5
aV['Melvin']
p6
aV['Wes']
p7
aV['Brendan']
p8
aV['Cary']
p9
aV['Salomo']
p10
aV['Abelard']
p11
aV['Horatius']
p12
aV['Edmund']
p13
aV['Yaakov']
p14
aV['Thatch']
p15
aV['Vale']
p16
aV['Sargent']
p17
aV['Kaleb']
p18
aV['Emmery']
p19
aV['Giorgi']
p20
aV['Cobbie']
p21
aV['Darby']
p22
aV['Reza']
p23
aV['Stacy']
p24
aV['Randal']
p25
aV['Aguste']
p26
aV['Regan']
p27
aV['Hamlet']
p28
aV['Hamish']
p29
aV['Hanan']
p30
aV['Griff']
p31
aV['Merv']
p32
aV['Christophe']
p33
aV['Paul']
p34
aV['Zane']
p35
aV['Dmitri']
p36
aV['Waine']
p37
aV['Erick']
p38
aV['Benn']
p39
aV['Billy']
p40
aV['Herby']
p41
aV['Robb']
p42
aV['Bela']
p43
aV['Sheff']
p44
aV['Madison']
p45
aV['Hakeem']
p46
aV['Simeon']
p47
aV['Forrest']
p48
aV['Fletcher']
p49
aV['Clancy']
p50
aV['Ethelbert']
p51
aV['Gian']
p52
aV['Thedrick']
p53
aV['Douglass']
p54
aV['Ellsworth']
p55
aV['Leif']
p56
aV['Zak']
p57
aV['Jan']
p58
aV['Hamlen']
p59
aV['Barclay']
p60
aV['Richardo']
p61
aV['Urbanus']
p62
aV['Case']
p63
aV['Desmond']
p64
aV['Conway']
p65
aV['Siddhartha']
p66
aV['Walsh']
p67
aV['Roth']
p68
aV['Moss']
p69
aV['Abner']
p70
aV['Thorny']
p71
aV['Vassily']
p72
aV['Redford']
p73
aV['Andrey']
p74
aV['Ramon']
p75
aV['Erin']
p76
aV['Rik']
p77
aV['Mario']
p78
aV['Ernie']
p79
aV['Ewan']
p80
aV['Zebadiah']
p81
aV['Patty']
p82
aV['Urson']
p83
aV['Rufe']
p84
aV['Caldwell']
p85
aV['Tobit']
p86
aV['Bartel']
p87
aV['Dorian']
p88
aV['Baillie']
p89
aV['Rudy']
p90
aV['Tymon']
p91
aV['Abe']
p92
aV['Quinn']
p93
aV['Hoyt']
p94
aV['Mack']
p95
aV['Aguinaldo']
p96
aV['Micky']
p97
aV['Lance']
p98
aV['Filmore']
p99
aV['Antin']
p100
aV['Murdock']
p101
aV['Stanislaw']
p102
aV['Ronen']
p103
aV['Yankee']
p104
aV['Horatio']
p105
aV['Patric']
p106
aV['Gustave']
p107
aV['Uli']
p108
aV['Lawson']
p109
aV['Tobin']
p110
aV['Shalom']
p111
aV['Ronny']
p112
aV['Nevil']
p113
aV['Tannie']
p114
aV['Truman']
p115
aV['Churchill']
p116
aV['Enrique']
p117
aV['Sean']
p118
aV['Dave']
p119
aV['Emery']
p120
aV['Logan']
p121
aV['Neal']
p122
aV['Teodoor']
p123
aV['Oliver']
p124
aV['Percy']
p125
aV['Ryan']
p126
aV['Davy']
p127
aV['Rees']
p128
aV['Sergent']
p129
aV['Godfree']
p130
aV['Simone']
p131
aV['Linoel']
p132
aV['Hodge']
p133
aV['Millicent']
p134
aV['Mohamad']
p135
aV['Cris']
p136
aV['Windham']
p137
aV['Gus']
p138
aV['Frederich']
p139
aV['Sheldon']
p140
aV['Wojciech']
p141
aV['Peyter']
p142
aV['Zary']
p143
aV['Mayer']
p144
aV['Riley']
p145
aV['Erastus']
p146
aV['Tommy']
p147
aV['Aamir']
p148
aV['Zared']
p149
aV['Sibyl']
p150
aV['Sol']
p151
aV['Isador']
p152
aV['Clemmie']
p153
aV['Adair']
p154
aV['Mark']
p155
aV['Franz']
p156
aV['Dick']
p157
aV['Ragnar']
p158
aV['Wallace']
p159
aV['Chane']
p160
aV['Hollis']
p161
aV['Gerhard']
p162
aV['Winston']
p163
aV['Spense']
p164
aV['Nestor']
p165
aV['Corky']
p166
aV['Dustin']
p167
aV['Olin']
p168
aV['Rollin']
p169
aV['Gerold']
p170
aV['Waldemar']
p171
aV['Ricky']
p172
aV['Jerold']
p173
aV['Ephraim']
p174
aV['Reese']
p175
aV['Linus']
p176
aV['Abraham']
p177
aV['Parrnell']
p178
aV['Wilburt']
p179
aV['Waleed']
p180
aV['Dante']
p181
aV['Charles']
p182
aV['Son']
p183
aV['Bernard']
p184
aV['Alexander']
p185
aV['Othello']
p186
aV['Chester']
p187
aV['Gustavo']
p188
aV['Sidney']
p189
aV['Hewe']
p190
aV['Lionel']
p191
aV['Mitch']
p192
aV['Virgilio']
p193
aV['Tait']
p194
aV['Stevie']
p195
aV['Lemmie']
p196
aV['Romeo']
p197
aV['Mauritz']
p198
aV['Simon']
p199
aV['Moe']
p200
aV['Federico']
p201
aV['Tony']
p202
aV['Thorsten']
p203
aV['Spiros']
p204
aV['Hall']
p205
aV['Horace']
p206
aV['Woodie']
p207
aV['Tamas']
p208
aV['Ebenezer']
p209
aV['Marko']
p210
aV['Nevile']
p211
aV['Niccolo']
p212
aV['Kurt']
p213
aV['Jethro']
p214
aV['Everett']
p215
aV['Adams']
p216
aV['Dana']
p217
aV['Barrett']
p218
aV['Sammy']
p219
aV['Englebart']
p220
aV['Angel']
p221
aV['Hayward']
p222
aV['Cy']
p223
aV['Fonsie']
p224
aV['Quigly']
p225
aV['Arvie']
p226
aV['Lin']
p227
aV['Ulises']
p228
aV['Maxim']
p229
aV['Tod']
p230
aV['Salman']
p231
aV['Tre']
p232
aV['Sarge']
p233
aV['Rudie']
p234
aV['Sansone']
p235
aV['Nico']
p236
aV['Ulick']
p237
aV['Dominic']
p238
aV['Prescott']
p239
aV['Augustine']
p240
aV['Timmy']
p241
aV['Corrie']
p242
aV['Pooh']
p243
aV['Kimmo']
p244
aV['Johny']
p245
aV['Adolfo']
p246
aV['Sholom']
p247
aV['Patin']
p248
aV['Barnett']
p249
aV['Andie']
p250
aV['Giraldo']
p251
aV['Godwin']
p252
aV['Connor']
p253
aV['Wood']
p254
aV['Thom']
p255
aV['Laird']
p256
aV['Freemon']
p257
aV['Woodrow']
p258
aV['Johnathan']
p259
aV['Buster']
p260
aV['Verge']
p261
aV['Sting']
p262
aV['Hewie']
p263
aV['Ramsay']
p264
aV['Kenneth']
p265
aV['Karsten']
p266
aV['Floyd']
p267
aV['Andri']
p268
aV['Stuart']
p269
aV['Louis']
p270
aV['Obadias']
p271
aV['Aubrey']
p272
aV['Tanny']
p273
aV['Lazar']
p274
aV['Torey']
p275
aV['Stearne']
p276
aV['Erek']
p277
aV['Orin']
p278
aV['Bernie']
p279
aV['Nikki']
p280
aV['Stanley']
p281
aV['Leonerd']
p282
aV['Sinclare']
p283
aV['Jean-Paul']
p284
aV['Georges']
p285
aV['Waylin']
p286
aV['Clinten']
p287
aV['Konrad']
p288
aV['Enoch']
p289
aV['Ferguson']
p290
aV['Frederic']
p291
aV['Iggy']
p292
aV['Tito']
p293
aV['Duane']
p294
aV['Tarrant']
p295
aV['Mathias']
p296
aV['Phillip']
p297
aV['Dunc']
p298
aV['Aloysius']
p299
aV['Terrance']
p300
aV['Ashish']
p301
aV['Tomas']
p302
aV['Flipper']
p303
aV['Heathcliff']
p304
aV['Andy']
p305
aV['Ari']
p306
aV['Jimmie']
p307
aV['Dan']
p308
aV['Darryl']
p309
aV['Crawford']
p310
aV['Alfonso']
p311
aV['Denis']
p312
aV['Inglebert']
p313
aV['Jimmy']
p314
aV['Stephan']
p315
aV['Adolf']
p316
aV['Fidel']
p317
aV['Harcourt']
p318
aV['Adam']
p319
aV['Ulric']
p320
aV['Anatole']
p321
aV['Saul']
p322
aV['Jonah']
p323
aV['Chevy']
p324
aV['Hallam']
p325
aV['Clemente']
p326
aV['Barris']
p327
aV['Gill']
p328
aV['Ralph']
p329
aV['Pepito']
p330
aV['Harwell']
p331
aV['Shorty']
p332
aV['Gregor']
p333
aV['Hagen']
p334
aV['Andrew']
p335
aV['Tyler']
p336
aV['Towney']
p337
aV['Davey']
p338
aV['Michael']
p339
aV['Luce']
p340
aV['Valentine']
p341
aV['Voltaire']
p342
aV['Keith']
p343
aV['Winton']
p344
aV['Wally']
p345
aV['Chas']
p346
aV['Moises']
p347
aV['Meade']
p348
aV['Westbrook']
p349
aV['Beauregard']
p350
aV['Talbot']
p351
aV['Bartie']
p352
aV['Patrik']
p353
aV['Shayne']
p354
aV['Kyle']
p355
aV['Stillman']
p356
aV['Averil']
p357
aV['Martino']
p358
aV['Esme']
p359
aV['Moise']
p360
aV['Lucio']
p361
aV['Derrick']
p362
aV['Dennie']
p363
aV['Colin']
p364
aV['Sky']
p365
aV['Silvan']
p366
aV['Abbott']
p367
aV['Tobiah']
p368
aV['Donnie']
p369
aV['Hassan']
p370
aV['Jessie']
p371
aV['Flem']
p372
aV['Rawley']
p373
aV['West']
p374
aV['Jude']
p375
aV['Orville']
p376
aV['Rickie']
p377
aV['Ransell']
p378
aV['Aube']
p379
aV['Aron']
p380
aV['Flint']
p381
aV['Nealon']
p382
aV['Pedro']
p383
aV['Will']
p384
aV['Vasilis']
p385
aV['Joe']
p386
aV['Alejandro']
p387
aV['Hercule']
p388
aV['Whitney']
p389
aV['Darcy']
p390
aV['Morton']
p391
aV['Myke']
p392
aV['Hebert']
p393
aV['Frazier']
p394
aV['Nathan']
p395
aV['Hezekiah']
p396
aV['Dennis']
p397
aV['Thaddius']
p398
aV['Aldrich']
p399
aV['Jeremie']
p400
aV['Otis']
p401
aV['Abel']
p402
aV['Lovell']
p403
aV['Donald']
p404
aV['Uriel']
p405
aV['Scottie']
p406
aV['Broderic']
p407
aV['Pearce']
p408
aV['Morty']
p409
aV['Timotheus']
p410
aV['Bartholomew']
p411
aV['Arnold']
p412
aV['Tomkin']
p413
aV['Apollo']
p414
aV['Raynard']
p415
aV['Jacob']
p416
aV['Brooks']
p417
aV['Beale']
p418
aV['Fremont']
p419
aV['Norwood']
p420
aV['Wake']
p421
aV['Teddie']
p422
aV['Claude']
p423
aV['Collin']
p424
aV['Sherwood']
p425
aV['Rogers']
p426
aV['Quintin']
p427
aV['Irving']
p428
aV['Joaquin']
p429
aV['Caryl']
p430
aV['Garret']
p431
aV['Roy']
p432
aV['Michal']
p433
aV['Orren']
p434
aV['Parke']
p435
aV['Nickie']
p436
aV['John-David']
p437
aV['Nathanael']
p438
aV['Bengt']
p439
aV['Marcellus']
p440
aV['Shurwood']
p441
aV['Frederick']
p442
aV['Alfonzo']
p443
aV['Sturgis']
p444
aV['Shell']
p445
aV['Meryl']
p446
aV['Nat']
p447
aV['Torr']
p448
aV['Larry']
p449
aV['Arlo']
p450
aV['Antonius']
p451
aV['Darius']
p452
aV['Edmond']
p453
aV['Hyman']
p454
aV['Caleb']
p455
aV['Myles']
p456
aV['Salvatore']
p457
aV['Hernando']
p458
aV['Sayers']
p459
aV['Euclid']
p460
aV['Hiro']
p461
aV['Guthrie']
p462
aV['Alley']
p463
aV['Cyrill']
p464
aV['Johnny']
p465
aV['Sanford']
p466
aV['Jermain']
p467
aV['Rhett']
p468
aV['Lyndon']
p469
aV['Desmund']
p470
aV['Glen']
p471
aV['Ismail']
p472
aV['Benito']
p473
aV['Sherwynd']
p474
aV['Jake']
p475
aV['Hamel']
p476
aV['Flin']
p477
aV['Martainn']
p478
aV['Giffie']
p479
aV['Barny']
p480
aV['Quill']
p481
aV['Jonathan']
p482
aV['Garp']
p483
aV['Elden']
p484
aV['Jo']
p485
aV['Vinod']
p486
aV['Saundra']
p487
aV['Pierre']
p488
aV['Clay']
p489
aV['Ulrick']
p490
aV['Robin']
p491
aV['Skylar']
p492
aV['Greg']
p493
aV['Vincents']
p494
aV['Tim']
p495
aV['Orlando']
p496
aV['Brad']
p497
aV['Gerome']
p498
aV['Tuckie']
p499
aV['Hillel']
p500
aV['Yance']
p501
aV['Gardener']
p502
aV['Cole']
p503
aV['Emerson']
p504
aV['Dewitt']
p505
aV['Joshuah']
p506
aV['Mathew']
p507
aV['Terrel']
p508
aV['Clayton']
p509
aV['Allah']
p510
aV['Sigfrid']
p511
aV['Towny']
p512
aV['Ansel']
p513
aV['Kimball']
p514
aV['Henry']
p515
aV['Rikki']
p516
aV['Rupert']
p517
aV['Leopold']
p518
aV['Nick']
p519
aV['Anurag']
p520
aV['Sig']
p521
aV['Jens']
p522
aV['Adolphe']
p523
aV['Stanton']
p524
aV['Geoffry']
p525
aV['Randy']
p526
aV['Chengkun']
p527
aV['Rudolf']
p528
aV['Sid']
p529
aV['Rourke']
p530
aV['Mose']
p531
aV['Quigman']
p532
aV['Connolly']
p533
aV['Durant']
p534
aV['Plato']
p535
aV['Cecil']
p536
aV['Angelico']
p537
aV['Ozzie']
p538
aV['Richy']
p539
aV['Maynord']
p540
aV['Romain']
p541
aV['Andonis']
p542
aV['Jerrold']
p543
aV['Siward']
p544
aV['Salmon']
p545
aV['Waylon']
p546
aV['Paulo']
p547
aV['Kermit']
p548
aV['Cliff']
p549
aV['Donny']
p550
aV['Salomon']
p551
aV['Kristopher']
p552
aV['Herold']
p553
aV['Ximenes']
p554
aV['Muffin']
p555
aV['Hussein']
p556
aV['Sterling']
p557
aV['Gordon']
p558
aV['Tull']
p559
aV['Munmro']
p560
aV['Forrester']
p561
aV['Farley']
p562
aV['Oral']
p563
aV['Chaim']
p564
aV['Orson']
p565
aV['Marwin']
p566
aV['Bo']
p567
aV['Clemens']
p568
aV['Talbert']
p569
aV['Abram']
p570
aV['Woochang']
p571
aV['Tabbie']
p572
aV['Tanner']
p573
aV['Jock']
p574
aV['Laurence']
p575
aV['Wells']
p576
aV['Eddie']
p577
aV['Patricio']
p578
aV['Kendrick']
p579
aV['Rich']
p580
aV['Bailey']
p581
aV['Clint']
p582
aV['Warden']
p583
aV['Carlos']
p584
aV['Jared']
p585
aV['Avraham']
p586
aV['Mart']
p587
aV['Barron']
p588
aV['Jean-Lou']
p589
aV['Somerset']
p590
aV['Hilton']
p591
aV['Reinhard']
p592
aV['Wallache']
p593
aV['Tarrance']
p594
aV['Apostolos']
p595
aV['Hale']
p596
aV['Walden']
p597
aV['Alic']
p598
aV['Rahul']
p599
aV['Clarence']
p600
aV['Janos']
p601
aV['Spud']
p602
aV['Sebastien']
p603
aV['Leslie']
p604
aV['Brandy']
p605
aV['Hannibal']
p606
aV['Tabb']
p607
aV['Lambert']
p608
aV['Hartley']
p609
aV['Glynn']
p610
aV['Alvin']
p611
aV['Jud']
p612
aV['Vaughan']
p613
aV['Matthias']
p614
aV['Marlowe']
p615
aV['Guillermo']
p616
aV['Reynolds']
p617
aV['Ruddy']
p618
aV['Mattie']
p619
aV['Adolpho']
p620
aV['Markos']
p621
aV['Beck']
p622
aV['Claire']
p623
aV['Wilber']
p624
aV['Bayard']
p625
aV['Seamus']
p626
aV['Devin']
p627
aV['Jeremias']
p628
aV['Maxie']
p629
aV['Giraud']
p630
aV['Davon']
p631
aV['Gamaliel']
p632
aV['Immanuel']
p633
aV['Merell']
p634
aV['Octavius']
p635
aV['Shepherd']
p636
aV['Theodoric']
p637
aV['Bradley']
p638
aV['Constantin']
p639
aV['Zed']
p640
aV['Ray']
p641
aV['Jehu']
p642
aV['Carson']
p643
aV['Partha']
p644
aV['Herculie']
p645
aV['Daryl']
p646
aV['Thibaud']
p647
aV['Vick']
p648
aV['Wait']
p649
aV['Jeromy']
p650
aV['Bubba']
p651
aV['Adolphus']
p652
aV['Fyodor']
p653
aV['Tadd']
p654
aV['Olaf']
p655
aV['Neron']
p656
aV['Winford']
p657
aV['Sayre']
p658
aV['Willard']
p659
aV['Tirrell']
p660
aV['Benny']
p661
aV['Cesar']
p662
aV['Jackson']
p663
aV['Demetre']
p664
aV['Chadd']
p665
aV['Rolph']
p666
aV['Tremain']
p667
aV['Wilhelm']
p668
aV['Douglis']
p669
aV['Bentley']
p670
aV['Geof']
p671
aV['Jedediah']
p672
aV['Justis']
p673
aV['Neddie']
p674
aV['Morris']
p675
aV['Del']
p676
aV['Fergus']
p677
aV['Gale']
p678
aV['Nickolas']
p679
aV['Hilary']
p680
aV['Danie']
p681
aV['Che']
p682
aV['Husain']
p683
aV['Barty']
p684
aV['Yacov']
p685
aV['Clayborne']
p686
aV['Forbes']
p687
aV['Olle']
p688
aV['Tate']
p689
aV['Warde']
p690
aV['Isaak']
p691
aV['Rex']
p692
aV['Richie']
p693
aV['Dawson']
p694
aV['Stearn']
p695
aV['Wit']
p696
aV['Powell']
p697
aV['Cameron']
p698
aV['Wilton']
p699
aV['Waverley']
p700
aV['Domenico']
p701
aV['Ingram']
p702
aV['Stinky']
p703
aV['Waldon']
p704
aV['Reagan']
p705
aV['Taddeo']
p706
aV['Al']
p707
aV['Say']
p708
aV['Thaxter']
p709
aV['Knox']
p710
aV['Welbie']
p711
aV['John-Patrick']
p712
aV['Marshal']
p713
aV['Vinny']
p714
aV['Melvyn']
p715
aV['Torre']
p716
aV['Joachim']
p717
aV['Titus']
p718
aV['Tam']
p719
aV['Reynard']
p720
aV['Darin']
p721
aV['Dion']
p722
aV['Nils']
p723
aV['Fernando']
p724
aV['Murphy']
p725
aV['Alex']
p726
aV['Broddie']
p727
aV['Gilbert']
p728
aV['Ash']
p729
aV['Verney']
p730
aV['Toddie']
p731
aV['Eliot']
p732
aV['Casper']
p733
aV['Billie']
p734
aV['Angus']
p735
aV['Torin']
p736
aV['Osmund']
p737
aV['Nathaniel']
p738
aV['Tiebold']
p739
aV['Weslie']
p740
aV['Bud']
p741
aV['Marlow']
p742
aV['Adlai']
p743
aV['Winfield']
p744
aV['Tucker']
p745
aV['Thornie']
p746
aV['Spiro']
p747
aV['Leroy']
p748
aV['Michele']
p749
aV['Leonid']
p750
aV['Bogart']
p751
aV['Jule']
p752
aV['Carsten']
p753
aV['Sanders']
p754
aV['Omar']
p755
aV['Shane']
p756
aV['Shea']
p757
aV['Dwayne']
p758
aV['Brodie']
p759
aV['Garfield']
p760
aV['Kenny']
p761
aV['Geoffrey']
p762
aV['Addie']
p763
aV['Donn']
p764
aV['Wayne']
p765
aV['Mahmud']
p766
aV['Christy']
p767
aV['Stirling']
p768
aV['Hill']
p769
aV['Zolly']
p770
aV['Marcelo']
p771
aV['Howie']
p772
aV['Carlyle']
p773
aV['Reggy']
p774
aV['Owen']
p775
aV['Reube']
p776
aV['Daniel']
p777
aV['Oswald']
p778
aV['Etienne']
p779
aV['Wilmar']
p780
aV['Judah']
p781
aV['Lloyd']
p782
aV['Kostas']
p783
aV['Hiram']
p784
aV['Guthrey']
p785
aV['Ingamar']
p786
aV['Niall']
p787
aV['Micah']
p788
aV['Reilly']
p789
aV['Ritch']
p790
aV['Gunner']
p791
aV['Fran']
p792
aV['Worthy']
p793
aV['Bob']
p794
aV['Bradly']
p795
aV['Luther']
p796
aV['Luis']
p797
aV['Maxfield']
p798
aV['Willey']
p799
aV['Welsh']
p800
aV['Raymond']
p801
aV['Lindsey']
p802
aV['Warren']
p803
aV['Trenton']
p804
aV['Riccardo']
p805
aV['Merrick']
p806
aV['Buddy']
p807
aV['Otho']
p808
aV['Rowland']
p809
aV['Mike']
p810
aV['Fairfax']
p811
aV['Tracie']
p812
aV['Irvine']
p813
aV['Aziz']
p814
aV['Nealy']
p815
aV['Quinton']
p816
aV['Giffer']
p817
aV['Frederico']
p818
aV['Giorgio']
p819
aV['Sim']
p820
aV['Thad']
p821
aV['Butch']
p822
aV['Thorn']
p823
aV['Lyle']
p824
aV['Friedric']
p825
aV['Rickey']
p826
aV['Caspar']
p827
aV['Lawrence']
p828
aV['Elbert']
p829
aV['Max']
p830
aV['Cleland']
p831
aV['Martin']
p832
aV['Dylan']
p833
aV['Creighton']
p834
aV['Tucky']
p835
aV['Wright']
p836
aV['Irvin']
p837
aV['Randolf']
p838
aV['Bancroft']
p839
aV['Elvis']
p840
aV['Serge']
p841
aV['Benedict']
p842
aV['Sherlocke']
p843
aV['Flemming']
p844
aV['Mick']
p845
aV['Reginauld']
p846
aV['Karl']
p847
aV['Zebulen']
p848
aV['Christof']
p849
aV['Red']
p850
aV['Renato']
p851
aV['Ollie']
p852
aV['Redmond']
p853
aV['Taylor']
p854
aV['Neale']
p855
aV['Pierson']
p856
aV['Dom']
p857
aV['Laurent']
p858
aV['Enrico']
p859
aV['Whitby']
p860
aV['Saunderson']
p861
aV['Gail']
p862
aV['Morry']
p863
aV['Axel']
p864
aV['Marion']
p865
aV['Price']
p866
aV['Eli']
p867
aV['Matty']
p868
aV['Aleks']
p869
aV['Bryn']
p870
aV['Barde']
p871
aV['Wilt']
p872
aV['Levon']
p873
aV['Damian']
p874
aV['Barret']
p875
aV['Ronald']
p876
aV['Mikel']
p877
aV['Georgia']
p878
aV['Tobie']
p879
aV['Piggy']
p880
aV['Jean-Francois']
p881
aV['Bernhard']
p882
aV['Ham']
p883
aV['Moshe']
p884
aV['Vasili']
p885
aV['Lawton']
p886
aV['Peter']
p887
aV['Bertrand']
p888
aV['Carroll']
p889
aV['Gifford']
p890
aV['Bartholemy']
p891
aV['Obie']
p892
aV['Bucky']
p893
aV['Benjy']
p894
aV['Parker']
p895
aV['Wolfgang']
p896
aV['Wolfram']
p897
aV['Laurie']
p898
aV['Warner']
p899
aV['Moore']
p900
aV['Schroeder']
p901
aV['Mischa']
p902
aV['Sax']
p903
aV['Gasper']
p904
aV['Ulrich']
p905
aV['Ferinand']
p906
aV['Shurlocke']
p907
aV['Garcon']
p908
aV['Vladamir']
p909
aV['Tudor']
p910
aV['Fletch']
p911
aV['Morly']
p912
aV['Neil']
p913
aV['Lee']
p914
aV['Heinz']
p915
aV['Abbot']
p916
aV['Wadsworth']
p917
aV['Ashley']
p918
aV['Isidore']
p919
aV['Keefe']
p920
aV['Quiggly']
p921
aV['Pat']
p922
aV['Thain']
p923
aV['Niels']
p924
aV['Mikhail']
p925
aV['Norton']
p926
aV['Pavel']
p927
aV['Dimitri']
p928
aV['Renard']
p929
aV['Roland']
p930
aV['Boniface']
p931
aV['Mic']
p932
aV['Godart']
p933
aV['Kelley']
p934
aV['Binky']
p935
aV['Les']
p936
aV['Dimitrou']
p937
aV['Vernon']
p938
aV['Jean-Marc']
p939
aV['Gilburt']
p940
aV['Wade']
p941
aV['Wilek']
p942
aV['Christofer']
p943
aV['Jervis']
p944
aV['Allyn']
p945
aV['Washington']
p946
aV['Levin']
p947
aV['Cyrus']
p948
aV['Demetris']
p949
aV['Dionysus']
p950
aV['Antonino']
p951
aV['Vibhu']
p952
aV['Jeffrey']
p953
aV['Antonio']
p954
aV['Gay']
p955
aV['Costa']
p956
aV['Britt']
p957
aV['Judson']
p958
aV['Parry']
p959
aV['Quent']
p960
aV['Marietta']
p961
aV['Dickie']
p962
aV['Andreas']
p963
aV['Silvain']
p964
aV['Claus']
p965
aV['Clare']
p966
aV['Luciano']
p967
aV['Garwood']
p968
aV['Ivor']
p969
aV['Roscoe']
p970
aV['Hartwell']
p971
aV['Srinivas']
p972
aV['Theobald']
p973
aV['Noland']
p974
aV['Adrian']
p975
aV['Damien']
p976
aV['Val']
p977
aV['Leonhard']
p978
aV['Andrus']
p979
aV['Harold']
p980
aV['Kelly']
p981
aV['Shannon']
p982
aV['Jereme']
p983
aV['Alexei']
p984
aV['Berkley']
p985
aV['Ronnie']
p986
aV['Gearard']
p987
aV['Ricki']
p988
aV['Pasquale']
p989
aV['Zack']
p990
aV['Emilio']
p991
aV['Gershom']
p992
aV['Herrmann']
p993
aV['Austen']
p994
aV['Craig']
p995
aV['Taite']
p996
aV['Albrecht']
p997
aV['Chandler']
p998
aV['Rochester']
p999
aV['Frank']
p1000
aV['Gerrard']
p1001
aV['Drake']
p1002
aV['Abdulkarim']
p1003
aV['Boris']
p1004
aV['Marvin']
p1005
aV['Julio']
p1006
aV['Gustav']
p1007
aV['Kaiser']
p1008
aV['Chad']
p1009
aV['Jose']
p1010
aV['Maximilien']
p1011
aV['Nikos']
p1012
aV['Sparky']
p1013
aV['Bryce']
p1014
aV['Wilfrid']
p1015
aV['Odin']
p1016
aV['Maurise']
p1017
aV['Amery']
p1018
aV['Boyd']
p1019
aV['Saunders']
p1020
aV['Zelig']
p1021
aV['Daryle']
p1022
aV['Ali']
p1023
aV['Jean-Luc']
p1024
aV['Braden']
p1025
aV['Maddy']
p1026
aV['Francis']
p1027
aV['Jimbo']
p1028
aV['Engelbart']
p1029
aV['Horacio']
p1030
aV['Hanford']
p1031
aV['Mateo']
p1032
aV['Ugo']
p1033
aV['Saxon']
p1034
aV['Felipe']
p1035
aV['Barrie']
p1036
aV['Tome']
p1037
aV['Hudson']
p1038
aV['Weylin']
p1039
aV['Wallie']
p1040
aV['Husein']
p1041
aV['Jean-Pierre']
p1042
aV['Gideon']
p1043
aV['Ingelbert']
p1044
aV['Reuben']
p1045
aV['Augie']
p1046
aV['Barnabe']
p1047
aV['Sullivan']
p1048
aV['Kim']
p1049
aV['Ichabod']
p1050
aV['Elroy']
p1051
aV['Vito']
p1052
aV['King']
p1053
aV['Bertram']
p1054
aV['Clarance']
p1055
aV['Paddie']
p1056
aV['Sandor']
p1057
aV['Chan']
p1058
aV['Duffie']
p1059
aV['Ingemar']
p1060
aV['Sam']
p1061
aV['Merwin']
p1062
aV['Shelley']
p1063
aV['Bary']
p1064
aV['Samson']
p1065
aV['Baldwin']
p1066
aV['Willis']
p1067
aV['Jef']
p1068
aV['Udall']
p1069
aV['Clement']
p1070
aV['Jeramie']
p1071
aV['Lefty']
p1072
aV['Xenos']
p1073
aV['Judy']
p1074
aV['Bailie']
p1075
aV['Erich']
p1076
aV['Harman']
p1077
aV['Boyce']
p1078
aV['Lindy']
p1079
aV['Bharat']
p1080
aV['Rajeev']
p1081
aV['Yale']
p1082
aV['Thaine']
p1083
aV['Alberto']
p1084
aV['Marcello']
p1085
aV['Tremayne']
p1086
aV['Terrence']
p1087
aV['Von']
p1088
aV['Wilden']
p1089
aV['Sivert']
p1090
aV['Odell']
p1091
aV['Royal']
p1092
aV['Calvin']
p1093
aV['Marcus']
p1094
aV['Lenard']
p1095
aV['Michale']
p1096
aV['Patel']
p1097
aV['Bjorne']
p1098
aV['Lowell']
p1099
aV['Huey']
p1100
aV['Anton']
p1101
aV['Thayne']
p1102
aV['Hirsch']
p1103
aV['Kenn']
p1104
aV['Mervin']
p1105
aV['Harris']
p1106
aV['Hamid']
p1107
aV['Ram']
p1108
aV['Rodney']
p1109
aV['Leonardo']
p1110
aV['Osgood']
p1111
aV['Waverly']
p1112
aV['Francisco']
p1113
aV['Skelly']
p1114
aV['Michel']
p1115
aV['Meier']
p1116
aV['Flinn']
p1117
aV['Hervey']
p1118
aV['Jody']
p1119
aV['Bernardo']
p1120
aV['Sven']
p1121
aV['Rudolph']
p1122
aV['Bartlett']
p1123
aV['Engelbert']
p1124
aV['Conroy']
p1125
aV['Zachary']
p1126
aV['Toddy']
p1127
aV['Kingsley']
p1128
aV['Palmer']
p1129
aV['Kris']
p1130
aV['Barnaby']
p1131
aV['Jennings']
p1132
aV['Rocky']
p1133
aV['Walter']
p1134
aV['Vic']
p1135
aV['Juergen']
p1136
aV['Willem']
p1137
aV['Shannan']
p1138
aV['Rolfe']
p1139
aV['Cortese']
p1140
aV['Danny']
p1141
aV['Parnell']
p1142
aV['Durante']
p1143
aV['Rutledge']
p1144
aV['Rory']
p1145
aV['Stavros']
p1146
aV['Cleveland']
p1147
aV['Marve']
p1148
aV['Joey']
p1149
aV['Park']
p1150
aV['Jonny']
p1151
aV['Jodie']
p1152
aV['Levi']
p1153
aV['Jules']
p1154
aV['Matthus']
p1155
aV['Gabriel']
p1156
aV['Quentin']
p1157
aV['Mika']
p1158
aV['Gonzalo']
p1159
aV['Mohammed']
p1160
aV['Carleigh']
p1161
aV['Winthrop']
p1162
aV['Lucien']
p1163
aV['Carlie']
p1164
aV['Mason']
p1165
aV['Dwaine']
p1166
aV['Eric']
p1167
aV['Waite']
p1168
aV['Edwin']
p1169
aV['Halvard']
p1170
aV['Humphrey']
p1171
aV['Hershel']
p1172
aV['Vance']
p1173
aV['Reginald']
p1174
aV['Marlin']
p1175
aV['Rock']
p1176
aV['Yancey']
p1177
aV['Way']
p1178
aV['Webster']
p1179
aV['Darrell']
p1180
aV['Cyrillus']
p1181
aV['Murdoch']
p1182
aV['Lazarus']
p1183
aV['Thurston']
p1184
aV['Pepillo']
p1185
aV['Juan']
p1186
aV['Joab']
p1187
aV['Walt']
p1188
aV['Jeth']
p1189
aV['Lothar']
p1190
aV['Wilbur']
p1191
aV['Thaddeus']
p1192
aV['Irwin']
p1193
aV['Zerk']
p1194
aV['Judith']
p1195
aV['Tonnie']
p1196
aV['Wayland']
p1197
aV['Carmine']
p1198
aV['Prince']
p1199
aV['Weston']
p1200
aV['Rodrick']
p1201
aV['Zacharias']
p1202
aV['Niven']
p1203
aV['Patsy']
p1204
aV['Giordano']
p1205
aV['Scott']
p1206
aV['August']
p1207
aV['Patrick']
p1208
aV['Alford']
p1209
aV['Cooper']
p1210
aV['Ajay']
p1211
aV['Batholomew']
p1212
aV['Ambrosius']
p1213
aV['Fazeel']
p1214
aV['Giles']
p1215
aV['Jacques']
p1216
aV['Manuel']
p1217
aV['William']
p1218
aV['Grover']
p1219
aV['Durward']
p1220
aV['Sandro']
p1221
aV['Wyatt']
p1222
aV['Giancarlo']
p1223
aV['Brock']
p1224
aV['Graham']
p1225
aV['Arne']
p1226
aV['Derrin']
p1227
aV['Adnan']
p1228
aV['Kristos']
p1229
aV['Derek']
p1230
aV['Ric']
p1231
aV['Milo']
p1232
aV['Pietro']
p1233
aV['Andrea']
p1234
aV['Wyatan']
p1235
aV['Stig']
p1236
aV['Cobb']
p1237
aV['Markus']
p1238
aV['Arturo']
p1239
aV['Ehud']
p1240
aV['Reece']
p1241
aV['Chancey']
p1242
aV['Zacherie']
p1243
aV['Chalmers']
p1244
aV['Antonin']
p1245
aV['Patrice']
p1246
aV['Lew']
p1247
aV['Hillery']
p1248
aV['Allie']
p1249
aV['Milton']
p1250
aV['Maurice']
p1251
aV['Selby']
p1252
aV['Archy']
p1253
aV['Janus']
p1254
aV['Yehudi']
p1255
aV['Domenic']
p1256
aV['Oberon']
p1257
aV['Salvidor']
p1258
aV['Fitzgerald']
p1259
aV['Hamlin']
p1260
aV['Constantinos']
p1261
aV['Eustace']
p1262
aV['Franky']
p1263
aV['Garv']
p1264
aV['Dugan']
p1265
aV['Salomone']
p1266
aV['Raphael']
p1267
aV['Arvin']
p1268
aV['Gavin']
p1269
aV['Grant']
p1270
aV['Meir']
p1271
aV['Ellwood']
p1272
aV['Pascal']
p1273
aV['Nels']
p1274
aV['Durand']
p1275
aV['Michail']
p1276
aV['Vladimir']
p1277
aV['Efram']
p1278
aV['Abdul']
p1279
aV['Emmett']
p1280
aV['Pieter']
p1281
aV['Clark']
p1282
aV['Vernor']
p1283
aV['Waylen']
p1284
aV['Davide']
p1285
aV['Jerzy']
p1286
aV['Garfinkel']
p1287
aV['Alfie']
p1288
aV['Roarke']
p1289
aV['Rodolphe']
p1290
aV['Graeme']
p1291
aV['Mortie']
p1292
aV['Gershon']
p1293
aV['Syd']
p1294
aV['Taddeus']
p1295
aV['Gretchen']
p1296
aV['Christ']
p1297
aV['Pen']
p1298
aV['Albert']
p1299
aV['Merle']
p1300
aV['Elwin']
p1301
aV['Easton']
p1302
aV['Heywood']
p1303
aV['Silvanus']
p1304
aV['Rodolph']
p1305
aV['Huntington']
p1306
aV['Shlomo']
p1307
aV['Samuele']
p1308
aV['Ted']
p1309
aV['Ralf']
p1310
aV['Berk']
p1311
aV['Werner']
p1312
aV['Ximenez']
p1313
aV['Lancelot']
p1314
aV['Constantine']
p1315
aV['Orion']
p1316
aV['Freddie']
p1317
aV['Amadeus']
p1318
aV['Marchall']
p1319
aV['Mauricio']
p1320
aV['Lenny']
p1321
aV['Francesco']
p1322
aV['Saxe']
p1323
aV['Fox']
p1324
aV['Donal']
p1325
aV['Ezechiel']
p1326
aV['Webb']
p1327
aV['Wynn']
p1328
aV['Witold']
p1329
aV['Vlad']
p1330
aV['Lemuel']
p1331
aV['Jerald']
p1332
aV['Wakefield']
p1333
aV['Brody']
p1334
aV['Templeton']
p1335
aV['Lamont']
p1336
aV['Harvie']
p1337
aV['Lazlo']
p1338
aV['Briggs']
p1339
aV['Tann']
p1340
aV['Lane']
p1341
aV['Fredric']
p1342
aV['Kendal']
p1343
aV['Friedrich']
p1344
aV['Arie']
p1345
aV['Roice']
p1346
aV['Kincaid']
p1347
aV['Gerrit']
p1348
aV['Ozzy']
p1349
aV['Russ']
p1350
aV['French']
p1351
aV['Garold']
p1352
aV['Jordan']
p1353
aV['Chelton']
p1354
aV['Garvin']
p1355
aV['Ulberto']
p1356
aV['Rinaldo']
p1357
aV['Evelyn']
p1358
aV['Anselm']
p1359
aV['Valdemar']
p1360
aV['Ritchie']
p1361
aV['Verne']
p1362
aV['Joshua']
p1363
aV['Umberto']
p1364
aV['Marty']
p1365
aV['Puff']
p1366
aV['Kent']
p1367
aV['Royce']
p1368
aV['Renaldo']
p1369
aV['Lindsay']
p1370
aV['Jack']
p1371
aV['Barbabas']
p1372
aV['Sydney']
p1373
aV['Wyndham']
p1374
aV['Teodor']
p1375
aV['Alfonse']
p1376
aV['Rod']
p1377
aV['Konstantin']
p1378
aV['Salvador']
p1379
aV['Raul']
p1380
aV['Berkie']
p1381
aV['Christoph']
p1382
aV['Xever']
p1383
aV['Leonard']
p1384
aV['Kirby']
p1385
aV['Maury']
p1386
aV['Kam']
p1387
aV['Salim']
p1388
aV['Orbadiah']
p1389
aV['Derby']
p1390
aV['Orton']
p1391
aV['Basil']
p1392
aV['Garey']
p1393
aV['David']
p1394
aV['Ephram']
p1395
aV['Rusty']
p1396
aV['Hayden']
p1397
aV['Jessee']
p1398
aV['Mitchel']
p1399
aV['Carlo']
p1400
aV['Quillan']
p1401
aV['Sigfried']
p1402
aV['Randie']
p1403
aV['Steward']
p1404
aV['Ambros']
p1405
aV['Worthington']
p1406
aV['Tray']
p1407
aV['Piet']
p1408
aV['Spence']
p1409
aV['Haley']
p1410
aV['Trever']
p1411
aV['Tommie']
p1412
aV['Cletus']
p1413
aV['Hector']
p1414
aV['Saw']
p1415
aV['Judas']
p1416
aV['Hanson']
p1417
aV['Berke']
p1418
aV['Winifield']
p1419
aV['Davin']
p1420
aV['Wainwright']
p1421
aV['Andrzej']
p1422
aV['Daren']
p1423
aV['Nealson']
p1424
aV['Grove']
p1425
aV['Skip']
p1426
aV['Augustus']
p1427
aV['Everard']
p1428
aV['Regen']
p1429
aV['Winny']
p1430
aV['Gregory']
p1431
aV['Keenan']
p1432
aV['Biff']
p1433
aV['Munroe']
p1434
aV['Lawerence']
p1435
aV['Ty']
p1436
aV['Rustin']
p1437
aV['Darrin']
p1438
aV['Dickey']
p1439
aV['Josiah']
p1440
aV['Dwight']
p1441
aV['Frederik']
p1442
aV['Russel']
p1443
aV['Ebeneser']
p1444
aV['Garrot']
p1445
aV['Barr']
p1446
aV['Mylo']
p1447
aV['Theo']
p1448
aV['Hugo']
p1449
aV['Barnard']
p1450
aV['Noah']
p1451
aV['Natale']
p1452
aV['Artur']
p1453
aV['Sunny']
p1454
aV['Tulley']
p1455
aV['Marsh']
p1456
aV['Rabbi']
p1457
aV['Hermy']
p1458
aV['Deane']
p1459
aV['Tibold']
p1460
aV['Bartholomeo']
p1461
aV['Haydon']
p1462
aV['Burl']
p1463
aV['Bartolomeo']
p1464
aV['Nelson']
p1465
aV['Hendrick']
p1466
aV['Bard']
p1467
aV['Shawn']
p1468
aV['Sheffield']
p1469
aV['Caesar']
p1470
aV['Sawyere']
p1471
aV['Huntlee']
p1472
aV['Ephrayim']
p1473
aV['Ashby']
p1474
aV['Lou']
p1475
aV['Taber']
p1476
aV['Merry']
p1477
aV['Harley']
p1478
aV['Raynor']
p1479
aV['Benjie']
p1480
aV['Ahmet']
p1481
aV['Doug']
p1482
aV['Shaughn']
p1483
aV['Anthony']
p1484
aV['Menard']
p1485
aV['Johnnie']
p1486
aV['Sheppard']
p1487
aV['Ripley']
p1488
aV['Paton']
p1489
aV['Urbano']
p1490
aV['Sigmund']
p1491
aV['Loren']
p1492
aV['Elnar']
p1493
aV['Gordie']
p1494
aV['Buck']
p1495
aV['Rad']
p1496
aV['Hyatt']
p1497
aV['Emmet']
p1498
aV['Chance']
p1499
aV['Zacharie']
p1500
aV['Napoleon']
p1501
aV['Raoul']
p1502
aV['Wallis']
p1503
aV['Remus']
p1504
aV['Damon']
p1505
aV['Roberto']
p1506
aV['Griswold']
p1507
aV['Forester']
p1508
aV['Alfredo']
p1509
aV['Page']
p1510
aV['Hamil']
p1511
aV['Oran']
p1512
aV['Magnum']
p1513
aV['Baxter']
p1514
aV['Neville']
p1515
aV['Randall']
p1516
aV['Jamie']
p1517
aV['Giuseppe']
p1518
aV['Kane']
p1519
aV['Giffy']
p1520
aV['Renado']
p1521
aV['Barnabas']
p1522
aV['Orazio']
p1523
aV['Tabor']
p1524
aV['Teodoro']
p1525
aV['Herschel']
p1526
aV['Micheil']
p1527
aV['Roman']
p1528
aV['Stanford']
p1529
aV['Gibb']
p1530
aV['Dabney']
p1531
aV['Smitty']
p1532
aV['Charlton']
p1533
aV['Norman']
p1534
aV['Quintus']
p1535
aV['Silvio']
p1536
aV['Errol']
p1537
aV['Gallagher']
p1538
aV['Anders']
p1539
aV['Rey']
p1540
aV['Huntley']
p1541
aV['Zachery']
p1542
aV['Esau']
p1543
aV['Skyler']
p1544
aV['Jim']
p1545
aV['Roger']
p1546
aV['Nevin']
p1547
aV['Travers']
p1548
aV['Casey']
p1549
aV['Phineas']
p1550
aV['Matt']
p1551
aV['Monroe']
p1552
aV['Pate']
p1553
aV['Keil']
p1554
aV['Jaime']
p1555
aV['Nathanial']
p1556
aV['Bryon']
p1557
aV['Trey']
p1558
aV['Byron']
p1559
aV['Meredeth']
p1560
aV['Kaspar']
p1561
aV['Stew']
p1562
aV['Rodrique']
p1563
aV['Titos']
p1564
aV['Monty']
p1565
aV['Willy']
p1566
aV['Godfry']
p1567
aV['Griffith']
p1568
aV['Stu']
p1569
aV['Len']
p1570
aV['Fabian']
p1571
aV['Winnie']
p1572
aV['Phillipp']
p1573
aV['Lesley']
p1574
aV['Ned']
p1575
aV['Aristotle']
p1576
aV['Meredith']
p1577
aV['Jere']
p1578
aV['Hasheem']
p1579
aV['Claudius']
p1580
aV['Dimitry']
p1581
aV['Tomlin']
p1582
aV['Fred']
p1583
aV['Johnathon']
p1584
aV['Heinrich']
p1585
aV['Zorro']
p1586
aV['Theodor']
p1587
aV['Tadeas']
p1588
aV['Ruby']
p1589
aV['Denny']
p1590
aV['Randi']
p1591
aV['Lewis']
p1592
aV['Nunzio']
p1593
aV['Zackariah']
p1594
aV['Fraser']
p1595
aV['Lay']
p1596
aV['Shaine']
p1597
aV['Christian']
p1598
aV['Gerri']
p1599
aV['Kraig']
p1600
aV['Cat']
p1601
aV['Ravi']
p1602
aV['Josephus']
p1603
aV['Herman']
p1604
aV['Wilmer']
p1605
aV['Oscar']
p1606
aV['Timothy']
p1607
aV['Teodorico']
p1608
aV['Alfred']
p1609
aV['Kirk']
p1610
aV['Abbey']
p1611
aV['Marcio']
p1612
aV['Ward']
p1613
aV['Sutton']
p1614
aV['Claybourne']
p1615
aV['Stern']
p1616
aV['Kalil']
p1617
aV['Goober']
p1618
aV['Swen']
p1619
aV['Tymothy']
p1620
aV['Marv']
p1621
aV['Galen']
p1622
aV['Fons']
p1623
aV['Tammy']
p1624
aV['Sebastian']
p1625
aV['Dario']
p1626
aV['Georg']
p1627
aV['Kalle']
p1628
aV['Theophyllus']
p1629
aV['Holly']
p1630
aV['Vincent']
p1631
aV['Vachel']
p1632
aV['Lionello']
p1633
aV['Hart']
p1634
aV['Clyde']
p1635
aV['Oswell']
p1636
aV['Tedmund']
p1637
aV['Ole']
p1638
aV['Georgie']
p1639
aV['Si']
p1640
aV['Hermon']
p1641
aV['Ely']
p1642
aV['Berkeley']
p1643
aV['Rand']
p1644
aV['Elliott']
p1645
aV['Olivier']
p1646
aV['Julian']
p1647
aV['Devon']
p1648
aV['Berchtold']
p1649
aV['Noble']
p1650
aV['Baird']
p1651
aV['Matthieu']
p1652
aV['Pail']
p1653
aV['Marlo']
p1654
aV['Aleck']
p1655
aV['Josef']
p1656
aV['Granville']
p1657
aV['Dell']
p1658
aV['Pascale']
p1659
aV['Horst']
p1660
aV['Tybalt']
p1661
aV['Jess']
p1662
aV['Nigel']
p1663
aV['Marius']
p1664
aV['Nero']
p1665
aV['Thane']
p1666
aV['Rollins']
p1667
aV['Lanny']
p1668
aV['Benton']
p1669
aV['Reuven']
p1670
aV['Ransom']
p1671
aV['Temp']
p1672
aV['Toby']
p1673
aV['Fulton']
p1674
aV['Jae']
p1675
aV['Scarface']
p1676
aV['Mackenzie']
p1677
aV['Morse']
p1678
aV['Elias']
p1679
aV['Kurtis']
p1680
aV['Kit']
p1681
aV['Stanfield']
p1682
aV['Perceval']
p1683
aV['Dudley']
p1684
aV['Northrup']
p1685
aV['Johan']
p1686
aV['Jonas']
p1687
aV['Delbert']
p1688
aV['Archibald']
p1689
aV['Wittie']
p1690
aV['Franklin']
p1691
aV['Marlon']
p1692
aV['Wiley']
p1693
aV['Averill']
p1694
aV['Teador']
p1695
aV['Roderigo']
p1696
aV['Roddy']
p1697
aV['Reynold']
p1698
aV['Ruddie']
p1699
aV['Gino']
p1700
aV['Paten']
p1701
aV['Mugsy']
p1702
aV['Art']
p1703
aV['Roderic']
p1704
aV['Augustin']
p1705
aV['Penn']
p1706
aV['Sidnee']
p1707
aV['Sayres']
p1708
aV['Tabby']
p1709
aV['Edward']
p1710
aV['Eugene']
p1711
aV['Pembroke']
p1712
aV['Kellen']
p1713
aV['Garvy']
p1714
aV['Shamus']
p1715
aV['Armstrong']
p1716
aV['Hammad']
p1717
aV['Kareem']
p1718
aV['Foster']
p1719
aV['Barry']
p1720
aV['Alan']
p1721
aV['Magnus']
p1722
aV['Gerald']
p1723
aV['Travis']
p1724
aV['Slade']
p1725
aV['Wald']
p1726
aV['Jeremy']
p1727
aV['George']
p1728
aV['Sandy']
p1729
aV['Maxwell']
p1730
aV['Trevar']
p1731
aV['Morlee']
p1732
aV['Brandon']
p1733
aV['James']
p1734
aV['Traver']
p1735
aV['Bernd']
p1736
aV['Juanita']
p1737
aV['Padraig']
p1738
aV['Dale']
p1739
aV['Fleming']
p1740
aV['Gunther']
p1741
aV['Sinclair']
p1742
aV['Kevan']
p1743
aV['Coleman']
p1744
aV['Stafford']
p1745
aV['Willmott']
p1746
aV['Benji']
p1747
aV['Blaine']
p1748
aV['Pepe']
p1749
aV['Noam']
p1750
aV['Gilberto']
p1751
aV['Shep']
p1752
aV['Blake']
p1753
aV['Xerxes']
p1754
aV['Mendie']
p1755
aV['Hiralal']
p1756
aV['Garrott']
p1757
aV['Lennie']
p1758
aV['Brady']
p1759
aV['Vasily']
p1760
aV['Pierce']
p1761
aV['Ferdy']
p1762
aV['Garvey']
p1763
aV['Jerrie']
p1764
aV['Chevalier']
p1765
aV['Morrie']
p1766
aV['Morgan']
p1767
aV['Ambrosio']
p1768
aV['Godfrey']
p1769
aV['Westleigh']
p1770
aV['Krishna']
p1771
aV['Tedman']
p1772
aV['Cristopher']
p1773
aV['Leonidas']
p1774
aV['Gustaf']
p1775
aV['Abby']
p1776
aV['Wendell']
p1777
aV['Marilu']
p1778
aV['Burnaby']
p1779
aV['Ricard']
p1780
aV['Grace']
p1781
aV['Chauncey']
p1782
aV['Paddy']
p1783
aV['Aharon']
p1784
aV['Darth']
p1785
aV['Inigo']
p1786
aV['Parsifal']
p1787
aV['Jephthah']
p1788
aV['Abdullah']
p1789
aV['Chadwick']
p1790
aV['Jodi']
p1791
aV['Victor']
p1792
aV['Avram']
p1793
aV['Mikael']
p1794
aV['Jotham']
p1795
aV['Ruben']
p1796
aV['Mel']
p1797
aV['Barthel']
p1798
aV['Tailor']
p1799
aV['Ishmael']
p1800
aV['Putnam']
p1801
aV['Vail']
p1802
aV['Yuri']
p1803
aV['Sollie']
p1804
aV['Corwin']
p1805
aV['Elwyn']
p1806
aV['Seymour']
p1807
aV['Scotty']
p1808
aV['Abdel']
p1809
aV['Tyrone']
p1810
aV['Lorne']
p1811
aV['Godard']
p1812
aV['Erhart']
p1813
aV['Erl']
p1814
aV['Stillmann']
p1815
aV['Turner']
p1816
aV['Hillard']
p1817
aV['Alister']
p1818
aV['Purcell']
p1819
aV['Arnie']
p1820
aV['Kingsly']
p1821
aV['Dov']
p1822
aV['Israel']
p1823
aV['Clarke']
p1824
aV['Charley']
p1825
aV['Siffre']
p1826
aV['Bartolomei']
p1827
aV['Hilliard']
p1828
aV['Ave']
p1829
aV['Brant']
p1830
aV['Reed']
p1831
aV['Georgy']
p1832
aV['Zach']
p1833
aV['Collins']
p1834
aV['Yank']
p1835
aV['Rudiger']
p1836
aV['Randolph']
p1837
aV['Fredrick']
p1838
aV['Glenn']
p1839
aV['Sergei']
p1840
aV['Leland']
p1841
aV['Jason']
p1842
aV['Poul']
p1843
aV['Wolfie']
p1844
aV['Jackie']
p1845
aV['Stephanus']
p1846
aV['Norm']
p1847
aV['Carey']
p1848
aV['Levy']
p1849
aV['Sergeant']
p1850
aV['Leighton']
p1851
aV['Gerard']
p1852
aV['Ross']
p1853
aV['Zacharia']
p1854
aV['Florian']
p1855
aV['Osbourne']
p1856
aV['Felicio']
p1857
aV['Martyn']
p1858
aV['Marco']
p1859
aV['Raj']
p1860
aV['Cobby']
p1861
aV['Fonzie']
p1862
aV['Wallas']
p1863
aV['Ernst']
p1864
aV['Chip']
p1865
aV['Sauncho']
p1866
aV['Jory']
p1867
aV['Felix']
p1868
aV['Cal']
p1869
aV['Nicolas']
p1870
aV['Guthry']
p1871
aV['Torrin']
p1872
aV['Penny']
p1873
aV['Reggis']
p1874
aV['Torry']
p1875
aV['Rab']
p1876
aV['Pennie']
p1877
aV['Ginger']
p1878
aV['Radcliffe']
p1879
aV['Tye']
p1880
aV['Clayborn']
p1881
aV['Derk']
p1882
aV['Barnebas']
p1883
aV['Edgardo']
p1884
aV['Stephen']
p1885
aV['Tammie']
p1886
aV['Mitchell']
p1887
aV['Tad']
p1888
aV['Greggory']
p1889
aV['Derick']
p1890
aV['Henderson']
p1891
aV['Wyn']
p1892
aV['Cheston']
p1893
aV['Zippy']
p1894
aV['Harland']
p1895
aV['Jerry']
p1896
aV['Rabi']
p1897
aV['Barnie']
p1898
aV['Urban']
p1899
aV['Philbert']
p1900
aV['Ramsey']
p1901
aV['Vergil']
p1902
aV['Sylvester']
p1903
aV['Henrik']
p1904
aV['Kendall']
p1905
aV['Stan']
p1906
aV['Freddy']
p1907
aV['Tuck']
p1908
aV['Arnoldo']
p1909
aV['Weider']
p1910
aV['Nichols']
p1911
aV['Walther']
p1912
aV['Terence']
p1913
aV['Ferdie']
p1914
aV['Skippy']
p1915
aV['Wang']
p1916
aV['Klaus']
p1917
aV['Andrej']
p1918
aV['Terry']
p1919
aV['Pincas']
p1920
aV['Terencio']
p1921
aV['Avrom']
p1922
aV['Preston']
p1923
aV['Amory']
p1924
aV['Homer']
p1925
aV['Hy']
p1926
aV['Tynan']
p1927
aV['Louie']
p1928
aV['Robinson']
p1929
aV['Thor']
p1930
aV['Jerrome']
p1931
aV['Hagan']
p1932
aV['Sasha']
p1933
aV['Jon']
p1934
aV['Eddy']
p1935
aV['Schuyler']
p1936
aV['Geoff']
p1937
aV['Mitchael']
p1938
aV['Doyle']
p1939
aV['Eliott']
p1940
aV['Seth']
p1941
aV['Bruce']
p1942
aV['Hobart']
p1943
aV['Tedie']
p1944
aV['Steven']
p1945
aV['Davidde']
p1946
aV['Carter']
p1947
aV['Myron']
p1948
aV['Morten']
p1949
aV['Ramesh']
p1950
aV['Drew']
p1951
aV['Anatollo']
p1952
aV['Shepperd']
p1953
aV['Clair']
p1954
aV['Ajai']
p1955
aV['Kennedy']
p1956
aV['Gaspar']
p1957
aV['Alessandro']
p1958
aV['Reg']
p1959
aV['Shelton']
p1960
aV['Christiano']
p1961
aV['Ravil']
p1962
aV['Jefferson']
p1963
aV['Welch']
p1964
aV['Mickey']
p1965
aV['Hilbert']
p1966
aV['Kalman']
p1967
aV['Hurley']
p1968
aV['Maurie']
p1969
aV['Gabriello']
p1970
aV['Harv']
p1971
aV['Flynn']
p1972
aV['Izaak']
p1973
aV['Jefferey']
p1974
aV['Chaddy']
p1975
aV['Peirce']
p1976
aV['Bogdan']
p1977
aV['Rufus']
p1978
aV['Fritz']
p1979
aV['Malcolm']
p1980
aV['Townie']
p1981
aV['Ambrose']
p1982
aV['Broddy']
p1983
aV['Dougie']
p1984
aV['Izak']
p1985
aV['Oren']
p1986
aV['Garrett']
p1987
aV['Ariel']
p1988
aV['Sampson']
p1989
aV['Smith']
p1990
aV['Jonathon']
p1991
aV['Dryke']
p1992
aV['Nevins']
p1993
aV['Bret']
p1994
aV['Renaud']
p1995
aV['Hadleigh']
p1996
aV['Gaston']
p1997
aV['Donovan']
p1998
aV['Erwin']
p1999
aV['Forster']
p2000
aV['Locke']
p2001
aV['Shumeet']
p2002
aV['Hersh']
p2003
aV['Robbert']
p2004
aV['Carl']
p2005
aV['Osbert']
p2006
aV['Mahesh']
p2007
aV['Marc']
p2008
aV['Stewart']
p2009
aV['Rubin']
p2010
aV['Ron']
p2011
aV['Thatcher']
p2012
aV['Hymie']
p2013
aV['Derrek']
p2014
aV['Emmott']
p2015
aV['Porter']
p2016
aV['Barton']
p2017
aV['Thorpe']
p2018
aV['Tom']
p2019
aV['Lev']
p2020
aV['Alasdair']
p2021
aV['Valentin']
p2022
aV['Marshall']
p2023
aV['Sancho']
p2024
aV['Charleton']
p2025
aV['Adrick']
p2026
aV['Sterne']
p2027
aV['Chase']
p2028
aV['Lukas']
p2029
aV['Thadeus']
p2030
aV['Zalman']
p2031
aV['Zechariah']
p2032
aV['Ian']
p2033
aV['Isadore']
p2034
aV['Torrance']
p2035
aV['Benjamin']
p2036
aV['Jay']
p2037
aV['Guido']
p2038
aV['Marven']
p2039
aV['Win']
p2040
aV['Thomas']
p2041
aV['Upton']
p2042
aV['Arthur']
p2043
aV['Niles']
p2044
aV['Marcel']
p2045
aV['Kerry']
p2046
aV['Aram']
p2047
aV['Davoud']
p2048
aV['Aldus']
p2049
aV['Willdon']
p2050
aV['Giffard']
p2051
aV['Dimitris']
p2052
aV['Anatoly']
p2053
aV['Slim']
p2054
aV['Ike']
p2055
aV['Petr']
p2056
aV['Christorpher']
p2057
aV['Nickey']
p2058
aV['Willi']
p2059
aV['Geo']
p2060
aV['Bearnard']
p2061
aV['Rayner']
p2062
aV['Ingmar']
p2063
aV['Venkat']
p2064
aV['Brett']
p2065
aV['Monte']
p2066
aV['Erasmus']
p2067
aV['Hew']
p2068
aV['Normand']
p2069
aV['Wilfred']
p2070
aV['Pattie']
p2071
aV['Shem']
p2072
aV['Ludwig']
p2073
aV['Charlie']
p2074
aV['Orrin']
p2075
aV['Burke']
p2076
aV['Curt']
p2077
aV['Noe']
p2078
aV['Townsend']
p2079
aV['Corbin']
p2080
aV['Haskel']
p2081
aV['Wilson']
p2082
aV['Ruperto']
p2083
aV['Griffin']
p2084
aV['Trevor']
p2085
aV['Ervin']
p2086
aV['Gustavus']
p2087
aV['Goddart']
p2088
aV['Benjamen']
p2089
aV['Bryant']
p2090
aV['Raimund']
p2091
aV['Prentiss']
p2092
aV['Gregg']
p2093
aV['Raymundo']
p2094
aV['Filbert']
p2095
aV['Zebedee']
p2096
aV['Dirk']
p2097
aV['Zeke']
p2098
aV['Maddie']
p2099
aV['Cain']
p2100
aV['Hamnet']
p2101
aV['Dunstan']
p2102
aV['Newton']
p2103
aV['Antoni']
p2104
aV['Bjorn']
p2105
aV['Ivan']
p2106
aV['Bennet']
p2107
aV['Dominick']
p2108
aV['Beau']
p2109
aV['Jordon']
p2110
aV['Pip']
p2111
aV['Germaine']
p2112
aV['Hailey']
p2113
aV['Eldon']
p2114
aV['Theodore']
p2115
aV['Gavriel']
p2116
aV['Rob']
p2117
aV['Wiatt']
p2118
aV['Gav']
p2119
aV['Hank']
p2120
aV['Rutger']
p2121
aV['Javier']
p2122
aV['Raleigh']
p2123
aV['Raymund']
p2124
aV['Mayor']
p2125
aV['Thorndike']
p2126
aV['Lorenzo']
p2127
aV['Ashton']
p2128
aV['Skell']
p2129
aV['Kin']
p2130
aV['Milt']
p2131
aV['Isa']
p2132
aV['Rickard']
p2133
aV['Mohamed']
p2134
aV['Hewett']
p2135
aV['Iggie']
p2136
aV['Udell']
p2137
aV['Duncan']
p2138
aV['Jessey']
p2139
aV['Montgomery']
p2140
aV['Egbert']
p2141
aV['Evan']
p2142
aV['Kelwin']
p2143
aV['Ahmed']
p2144
aV['Bartlet']
p2145
aV['Hadley']
p2146
aV['Philip']
p2147
aV['Guillaume']
p2148
aV['Sumner']
p2149
aV['Walker']
p2150
aV['Kalvin']
p2151
aV['Cyril']
p2152
aV['Spencer']
p2153
aV['Ewart']
p2154
aV['Chris']
p2155
aV['Rodrigo']
p2156
aV['Prent']
p2157
aV['Demetrius']
p2158
aV['Mac']
p2159
aV['Nichole']
p2160
aV['Anson']
p2161
aV['Lincoln']
p2162
aV['Ethan']
p2163
aV['Haywood']
p2164
aV['Matias']
p2165
aV['Wolfy']
p2166
aV['Judd']
p2167
aV['Joseph']
p2168
aV['Lazaro']
p2169
aV['Gomer']
p2170
aV['Shepard']
p2171
aV['Brewster']
p2172
aV['Zeus']
p2173
aV['Miles']
p2174
aV['Chen']
p2175
aV['Lockwood']
p2176
aV['Rene']
p2177
aV['Staffard']
p2178
aV['Joel']
p2179
aV['Dwane']
p2180
aV['Bart']
p2181
aV['Gabe']
p2182
aV['Lorrie']
p2183
aV['Leon']
p2184
aV['Aditya']
p2185
aV['Montague']
p2186
aV['Baron']
p2187
aV['Arel']
p2188
aV['Ernest']
p2189
aV['Martie']
p2190
aV['Karel']
p2191
aV['Gene']
p2192
aV['Richard']
p2193
aV['Brook']
p2194
aV['Alec']
p2195
aV['Gilles']
p2196
aV['Quint']
p2197
aV['Skippie']
p2198
aV['Igor']
p2199
aV['Iago']
p2200
aV['Heath']
p2201
aV['Jean-Christophe']
p2202
aV['Eduardo']
p2203
aV['Barn']
p2204
aV['Hansel']
p2205
aV['Welby']
p2206
aV['Chanderjit']
p2207
aV['Thebault']
p2208
aV['Lester']
p2209
aV['Emmy']
p2210
aV['Blayne']
p2211
aV['Lauren']
p2212
aV['Nathanil']
p2213
aV['Rolland']
p2214
aV['Aub']
p2215
aV['Shanan']
p2216
aV['Izzy']
p2217
aV['Chaddie']
p2218
aV['Bartolemo']
p2219
aV['Sully']
p2220
aV['Ford']
p2221
aV['Sergio']
p2222
aV['Town']
p2223
aV['Jarvis']
p2224
aV['Merril']
p2225
aV['Albatros']
p2226
aV['Neall']
p2227
aV['Rutherford']
p2228
aV['Percival']
p2229
aV['Thaddus']
p2230
aV['Tobias']
p2231
aV['Adolph']
p2232
aV['Henrie']
p2233
aV['Gordan']
p2234
aV['Giovanne']
p2235
aV['Tristan']
p2236
aV['Woody']
p2237
aV['Northrop']
p2238
aV['Forest']
p2239
aV['Harvard']
p2240
aV['Pete']
p2241
aV['Vinnie']
p2242
aV['Pinchas']
p2243
aV['Cornelius']
p2244
aV['Derrol']
p2245
aV['Matteo']
p2246
aV['Yanaton']
p2247
aV['Silvester']
p2248
aV['Tracey']
p2249
aV['Vernen']
p2250
aV['Quinlan']
p2251
aV['Jesse']
p2252
aV['Elihu']
p2253
aV['Aubert']
p2254
aV['Clem']
p2255
aV['Spike']
p2256
aV['Noel']
p2257
aV['Winslow']
p2258
aV['Ez']
p2259
aV['Goran']
p2260
aV['Lemar']
p2261
aV['Tan']
p2262
aV['Merill']
p2263
aV['Elmer']
p2264
aV['Roddie']
p2265
aV['Arther']
p2266
aV['Sanderson']
p2267
aV['Brinkley']
p2268
aV['Dionis']
p2269
aV['Leigh']
p2270
aV['Miguel']
p2271
aV['Matthaeus']
p2272
aV['Agamemnon']
p2273
aV['Erny']
p2274
aV['Gabriell']
p2275
aV['Klee']
p2276
aV['Bertie']
p2277
aV['Gerhardt']
p2278
aV['Cosmo']
p2279
aV['Bishop']
p2280
aV['Web']
p2281
aV['Manish']
p2282
aV['Allen']
p2283
aV['Trent']
p2284
aV['Rollo']
p2285
aV['Cory']
p2286
aV['Elric']
p2287
aV['Kory']
p2288
aV['Cornellis']
p2289
aV['Selig']
p2290
aV['Wilbert']
p2291
aV['Udale']
p2292
aV['Kristian']
p2293
aV['Noach']
p2294
aV['Gere']
p2295
aV['Sly']
p2296
aV['Bert']
p2297
aV['Norbert']
p2298
aV['Hari']
p2299
aV['Mickie']
p2300
aV['Gregorio']
p2301
aV['Tully']
p2302
aV['Byram']
p2303
aV['Connie']
p2304
aV['Tally']
p2305
aV['Gary']
p2306
aV['Dory']
p2307
aV['Iain']
p2308
aV['Jabez']
p2309
aV['Bobbie']
p2310
aV['Hal']
p2311
aV['Shay']
p2312
aV['Earl']
p2313
aV['Lucas']
p2314
aV['Ignaz']
p2315
aV['Harald']
p2316
aV['Ender']
p2317
aV['Ev']
p2318
aV['Derron']
p2319
aV['Armond']
p2320
aV['Hadrian']
p2321
aV['Finn']
p2322
aV['Hastings']
p2323
aV['Guy']
p2324
aV['Corey']
p2325
aV['Burgess']
p2326
aV['Worth']
p2327
aV['Garwin']
p2328
aV['Piotr']
p2329
aV['Walton']
p2330
aV['Mortimer']
p2331
aV['Paolo']
p2332
aV['Goddard']
p2333
aV['Saunder']
p2334
aV['Chariot']
p2335
aV['Jeffery']
p2336
aV['Erik']
p2337
aV['Don']
p2338
aV['Ricardo']
p2339
aV['Westley']
p2340
aV['Cyrille']
p2341
aV['Rodolfo']
p2342
aV['Shurlock']
p2343
aV['Alastair']
p2344
aV['Skipper']
p2345
aV['Hazel']
p2346
aV['Roni']
p2347
aV['Reggie']
p2348
aV['Mattheus']
p2349
aV['Van']
p2350
aV['Elijah']
p2351
aV['Ludvig']
p2352
aV['Elliot']
p2353
aV['Hewitt']
p2354
aV['Alonso']
p2355
aV['Alonzo']
p2356
aV['Duke']
p2357
aV['Vince']
p2358
aV['Skipp']
p2359
aV['Quincey']
p2360
aV['Uriah']
p2361
aV['Aaron']
p2362
aV['Lynn']
p2363
aV['Rem']
p2364
aV['Jakob']
p2365
aV['Gil']
p2366
aV['Rafe']
p2367
aV['Karim']
p2368
aV['Avery']
p2369
aV['Archie']
p2370
aV['Layton']
p2371
aV['Finley']
p2372
aV['Kingston']
p2373
aV['Eugen']
p2374
aV['Julie']
p2375
aV['Cam']
p2376
aV['Isaac']
p2377
aV['Ken']
p2378
aV['Rudolfo']
p2379
aV['Prasad']
p2380
aV['Manfred']
p2381
aV['Harvey']
p2382
aV['Andros']
p2383
aV['Harlin']
p2384
aV['Nelsen']
p2385
aV['Sheffie']
p2386
aV['Chaunce']
p2387
aV['Filipe']
p2388
aV['Alphonso']
p2389
aV['Kip']
p2390
aV['Emil']
p2391
aV['Aleksandrs']
p2392
aV['Jerome']
p2393
aV['Trip']
p2394
aV['Dexter']
p2395
aV['Elton']
p2396
aV['Reinhold']
p2397
aV['Trace']
p2398
aV['Tyson']
p2399
aV['Maynard']
p2400
aV['Averell']
p2401
aV['Elvin']
p2402
aV['Waiter']
p2403
aV['Arvy']
p2404
aV['Rodger']
p2405
aV['Roderich']
p2406
aV['Arron']
p2407
aV['Vaclav']
p2408
aV['Weber']
p2409
aV['Vite']
p2410
aV['Geri']
p2411
aV['Ignacio']
p2412
aV['Todd']
p2413
aV['Anatol']
p2414
aV['Elisha']
p2415
aV['Rainer']
p2416
aV['Zachariah']
p2417
aV['Barney']
p2418
aV['Odie']
p2419
aV['Giacomo']
p2420
aV['Tiebout']
p2421
aV['Garcia']
p2422
aV['Dalton']
p2423
aV['Hans']
p2424
aV['Whit']
p2425
aV['Ware']
p2426
aV['Yardley']
p2427
aV['Samuel']
p2428
aV['Brewer']
p2429
aV['Calhoun']
p2430
aV['Barri']
p2431
aV['Ignatius']
p2432
aV['Dwain']
p2433
aV['Urbain']
p2434
aV['Cob']
p2435
aV['Worden']
p2436
aV['Murray']
p2437
aV['Sebastiano']
p2438
aV['Shimon']
p2439
aV['Earle']
p2440
aV['Obadiah']
p2441
aV['Wendall']
p2442
aV['Randell']
p2443
aV['Rudyard']
p2444
aV['Salem']
p2445
aV['Neddy']
p2446
aV['Bill']
p2447
aV['Moses']
p2448
aV['Osmond']
p2449
aV['Emmit']
p2450
aV['Dru']
p2451
aV['Wynton']
p2452
aV['Angelo']
p2453
aV['Pincus']
p2454
aV['Ira']
p2455
aV['Hubert']
p2456
aV['Petey']
p2457
aV['Nicky']
p2458
aV['Steffen']
p2459
aV['Osborne']
p2460
aV['Shaw']
p2461
aV['Rube']
p2462
aV['Sanson']
p2463
aV['Harlan']
p2464
aV['Sascha']
p2465
aV['Marcos']
p2466
aV['Austin']
p2467
aV['Skipton']
p2468
aV['Chuck']
p2469
aV['Christie']
p2470
aV['Tracy']
p2471
aV['Ethelred']
p2472
aV['Vassili']
p2473
aV['Renault']
p2474
aV['Tallie']
p2475
aV['Lex']
p2476
aV['Sutherland']
p2477
aV['Alix']
p2478
aV['Sayer']
p2479
aV['Fowler']
p2480
aV['Otto']
p2481
aV['Aldwin']
p2482
aV['Edgar']
p2483
aV['Conan']
p2484
aV['Dieter']
p2485
aV['Douglas']
p2486
aV['Ibrahim']
p2487
aV['Pyotr']
p2488
aV['Frankie']
p2489
aV['Bealle']
p2490
aV['Harrold']
p2491
aV['Zeb']
p2492
aV['Terrell']
p2493
aV['Rolando']
p2494
aV['Rice']
p2495
aV['Alphonse']
p2496
aV['Archon']
p2497
aV['Virge']
p2498
aV['Jamey']
p2499
aV['Wesley']
p2500
aV['Hogan']
p2501
aV['Uri']
p2502
aV['Terrill']
p2503
aV['Bing']
p2504
aV['Ferd']
p2505
aV['Hillary']
p2506
aV['Bryan']
p2507
aV['Socrates']
p2508
aV['Otes']
p2509
aV['Sherman']
p2510
aV['Clive']
p2511
aV['Ikey']
p2512
aV['Bartholomeus']
p2513
aV['Ernesto']
p2514
aV['Demosthenis']
p2515
aV['Emmanuel']
p2516
aV['Teddy']
p2517
aV['Stanly']
p2518
aV['Ben']
p2519
aV['Torrey']
p2520
aV['Hans-Peter']
p2521
aV['Jed']
p2522
aV['Meyer']
p2523
aV['Nate']
p2524
aV['Beowulf']
p2525
aV['Clifton']
p2526
aV['Blare']
p2527
aV['Darwin']
p2528
aV['Ignace']
p2529
aV['Moishe']
p2530
aV['Dimitrios']
p2531
aV['Jeb']
p2532
aV['Marmaduke']
p2533
aV['Gerry']
p2534
aV['Mohammad']
p2535
aV['Liam']
p2536
aV['Virgie']
p2537
aV['Antoine']
p2538
aV['Dannie']
p2539
aV['Bennie']
p2540
aV['Darren']
p2541
aV['Timmie']
p2542
aV['Tarzan']
p2543
aV['Maison']
p2544
aV['Artie']
p2545
aV['Tore']
p2546
aV['Solly']
p2547
aV['Norris']
p2548
aV['Phip']
p2549
aV['Bradford']
p2550
aV['Tab']
p2551
aV['Standford']
p2552
aV['Abbie']
p2553
aV['Jarrett']
p2554
aV['Eben']
p2555
aV['Hendrik']
p2556
aV['Darrel']
p2557
aV['Henrique']
p2558
aV['Elmore']
p2559
aV['Stefan']
p2560
aV['Alain']
p2561
aV['Mendel']
p2562
aV['Silas']
p2563
aV['See']
p2564
aV['Merlin']
p2565
aV['Hugh']
p2566
aV['Mace']
p2567
aV['Aldo']
p2568
aV['Harry']
p2569
aV['Maurits']
p2570
aV['Mahmoud']
p2571
aV['Ignacius']
p2572
aV['Phil']
p2573
aV['Carlton']
p2574
aV['Thedric']
p2575
aV['Claudio']
p2576
aV['Rockwell']
p2577
aV['Xavier']
p2578
aV['Armand']
p2579
aV['Frans']
p2580
aV['Lon']
p2581
aV['Luigi']
p2582
aV['Neel']
p2583
aV['Jerri']
p2584
aV['Lamar']
p2585
aV['Dillon']
p2586
aV['Sylvan']
p2587
aV['Gardiner']
p2588
aV['Chev']
p2589
aV['Laurens']
p2590
aV['Nahum']
p2591
aV['Hercules']
p2592
aV['Wylie']
p2593
aV['Manny']
p2594
aV['Ossie']
p2595
aV['Temple']
p2596
aV['Kenton']
p2597
aV['Timothee']
p2598
aV['Job']
p2599
aV['Terri']
p2600
aV['Woodman']
p2601
aV['Peyton']
p2602
aV['Tremaine']
p2603
aV['Zebulon']
p2604
aV['Dean']
p2605
aV['Sherlock']
p2606
aV['Chet']
p2607
aV['Hamilton']
p2608
aV['Wye']
p2609
aV['Gabriele']
p2610
aV['Dewey']
p2611
aV['Phillipe']
p2612
aV['Mohan']
p2613
aV['Clifford']
p2614
aV['Shelden']
p2615
aV['Eduard']
p2616
aV['Corby']
p2617
aV['Kelsey']
p2618
aV['Hermann']
p2619
aV['Alton']
p2620
aV['Scot']
p2621
aV['Sheffy']
p2622
aV['Darrick']
p2623
aV['Dino']
p2624
aV['Kelvin']
p2625
aV['Amos']
p2626
aV['Giavani']
p2627
aV['Ulysses']
p2628
aV['Alexis']
p2629
aV['Llewellyn']
p2630
aV['Herve']
p2631
aV['Gardner']
p2632
aV['Wat']
p2633
aV['Rafael']
p2634
aV['Jeffie']
p2635
aV['Willie']
p2636
aV['Brent']
p2637
aV['Tedrick']
p2638
aV['Robbie']
p2639
aV['Freeman']
p2640
aV['Zollie']
p2641
aV['Curtice']
p2642
aV['Hakim']
p2643
aV['Matthew']
p2644
aV['Elwood']
p2645
aV['Kermie']
p2646
aV['Luke']
p2647
aV['Thacher']
p2648
aV['Erhard']
p2649
aV['Lonnie']
p2650
aV['Avi']
p2651
aV['Curtis']
p2652
aV['Osbourn']
p2653
aV['Filip']
p2654
aV['Nicholas']
p2655
aV['Langston']
p2656
aV['Whitman']
p2657
aV['Mikey']
p2658
aV['Lonny']
p2659
aV['Witty']
p2660
aV['Vin']
p2661
aV['Istvan']
p2662
aV['Pryce']
p2663
aV['Stanwood']
p2664
aV['Harrison']
p2665
aV['Haleigh']
p2666
aV['Burt']
p2667
aV['Jermayne']
p2668
aV['Angie']
p2669
aV['Allan']
p2670
aV['Torrence']
p2671
aV['Jameson']
p2672
aV['Sloan']
p2673
aV['Ed']
p2674
aV['Wain']
p2675
aV['Nikolai']
p2676
aV['Adrien']
p2677
aV['Mordecai']
p2678
aV['Franklyn']
p2679
aV['Jeff']
p2680
aV['Richmond']
p2681
aV['Christopher']
p2682
aV['Thibaut']
p2683
aV['Quincy']
p2684
aV['Keene']
p2685
aV['Lem']
p2686
aV['Sonny']
p2687
aV['Rodge']
p2688
aV['Leo']
p2689
aV['Wildon']
p2690
aV['Johannes']
p2691
aV['Graehme']
p2692
aV['Herbert']
p2693
aV['Emile']
p2694
aV['Sawyer']
p2695
aV['Jefry']
p2696
aV['Solomon']
p2697
aV['Marten']
p2698
aV['Westbrooke']
p2699
aV['Herrick']
p2700
aV['Yves']
p2701
aV['Jermaine']
p2702
aV['Scotti']
p2703
aV['Roosevelt']
p2704
aV['Yigal']
p2705
aV['Fonz']
p2706
aV['Robert']
p2707
aV['Er']
p2708
aV['Giff']
p2709
aV['Hunt']
p2710
aV['Nev']
p2711
aV['Christos']
p2712
aV['Pablo']
p2713
aV['Yard']
p2714
aV['Ace']
p2715
aV['Hasty']
p2716
aV['Joao']
p2717
aV['Han']
p2718
aV['Sal']
p2719
aV['Diego']
p2720
aV['Julius']
p2721
aV['Ferdinand']
p2722
aV['Daffy']
p2723
aV['Carlin']
p2724
aV['Chrissy']
p2725
aV['Maximilian']
p2726
aV['Felice']
p2727
aV['Darien']
p2728
aV['Alwin']
p2729
aV['Englebert']
p2730
aV['Cass']
p2731
aV['Emory']
p2732
aV['Roderick']
p2733
aV['Hewet']
p2734
aV['Paco']
p2735
aV['Francois']
p2736
aV['Odysseus']
p2737
aV['Pace']
p2738
aV['Silvano']
p2739
aV['Higgins']
p2740
aV['Algernon']
p2741
aV['Stevy']
p2742
aV['Ezra']
p2743
aV['Yule']
p2744
aV['Darian']
p2745
aV['Stanleigh']
p2746
aV['Arvind']
p2747
aV['Prasun']
p2748
aV['Vilhelm']
p2749
aV['Matthiew']
p2750
aV['Clinton']
p2751
aV['Vern']
p2752
aV['Steve']
p2753
aV['Dallas']
p2754
aV['Tharen']
p2755
aV['Tobe']
p2756
aV['Giovanni']
p2757
aV['Isaiah']
p2758
aV['Grady']
p2759
aV['Ephrem']
p2760
aV['Mort']
p2761
aV['Whittaker']
p2762
aV['Benson']
p2763
aV['Archibold']
p2764
aV['Agustin']
p2765
aV['Mattias']
p2766
aV['Weidar']
p2767
aV['Dane']
p2768
aV['Spenser']
p2769
aV['Lind']
p2770
aV['Major']
p2771
aV['Aylmer']
p2772
aV['Rick']
p2773
aV['Prentice']
p2774
aV['Emanuel']
p2775
aV['Ignazio']
p2776
aV['Fitz']
p2777
aV['Aldric']
p2778
aV['Harmon']
p2779
aV['Waring']
p2780
aV['Winfred']
p2781
aV['Thornton']
p2782
aV['Nikita']
p2783
aV['Edouard']
p2784
aV['Rutter']
p2785
aV['Jasper']
p2786
aV['John']
p2787
aV['Wilburn']
p2788
aV['Graig']
p2789
aV['Johann']
p2790
aV['Hayes']
p2791
aV['Nolan']
p2792
aV['Xymenes']
p2793
aV['Henri']
p2794
aV['Sherwin']
p2795
aV['Douggie']
p2796
aV['Edsel']
p2797
aV['Cammy']
p2798
aV['Siegfried']
p2799
aV['Lucius']
p2800
aV['Hersch']
p2801
aV['Lion']
p2802
aV['Brian']
p2803
aV['Garry']
p2804
aV['Gunter']
p2805
aV['Ambrosi']
p2806
aV['Merrill']
p2807
aV['Beaufort']
p2808
aV['Courtney']
p2809
aV['Zedekiah']
p2810
aV['Paige']
p2811
aV['Jorge']
p2812
aV['Sonnie']
p2813
aV['Bay']
p2814
aV['Adger']
p2815
aV['Andre']
p2816
aV['Normie']
p2817
aV['Garth']
p2818
aV['Duffy']
p2819
aV['Shaun']
p2820
aV['Armando']
p2821
aV['Vijay']
p2822
aV['Tyrus']
p2823
aV['Lemmy']
p2824
aV['Gaven']
p2825
aV['Edie']
p2826
aV['Rolf']
p2827
aV['Shadow']
p2828
aV['Chrisy']
p2829
aV['Troy']
p2830
aV['Alden']
p2831
aV['Brice']
p2832
aV['Demetri']
p2833
aV['Micheal']
p2834
aV['Whitaker']
p2835
aV['Trev']
p2836
aV['Sheridan']
p2837
aV['Humbert']
p2838
aV['Ahmad']
p2839
aV['Gonzales']
p2840
aV['Simmonds']
p2841
aV['Haskell']
p2842
aV['Augusto']
p2843
aV['Friedrick']
p2844
aV['Antony']
p2845
aV['Hashim']
p2846
aV['Nester']
p2847
aV['Sammie']
p2848
aV['Esteban']
p2849
aV['Herbie']
p2850
aV['Rodd']
p2851
aV['Ezekiel']
p2852
aV['Merrel']
p2853
aV['Ansell']
p2854
aV['Sloane']
p2855
aV['Deryl']
p2856
aV['Skye']
p2857
aV['Perry']
p2858
aV['Waldo']
p2859
aV['Herb']
p2860
aV['Lucian']
p2861
aV['Penrod']
p2862
aV['Reid']
p2863
aV['Kenyon']
p2864
aV['Mustafa']
p2865
aV['Wheeler']
p2866
aV['Gayle']
p2867
aV['Jean']
p2868
aV['Blair']
p2869
aV['Ellis']
p2870
aV['Osborn']
p2871
aV['Wolf']
p2872
aV['Brooke']
p2873
aV['Eberhard']
p2874
aV['Haven']
p2875
aV['Jesus']
p2876
aV['Hunter']
p2877
aV['Dani']
p2878
aV['Alston']
p2879
aV['Josh']
p2880
aV['Davie']
p2881
aV['Praneetf']
p2882
aV['Thurstan']
p2883
aV['Fabio']
p2884
aV['Bobby']
p2885
aV['Sander']
p2886
aV['Stefano']
p2887
aV['Jordy']
p2888
aV['Allin']
p2889
aV['Lyn']
p2890
aV['Dominique']
p2891
aV['Rog']
p2892
aV['Geraldo']
p2893
aV['Yancy']
p2894
aV['Wash']
p2895
aV['Cody']
p2896
aV['Niki']
p2897
aV['Bear']
p2898
aV['Remington']
p2899
aV['Burton']
p2900
aV['Bennett']
p2901
aV['Kevin']
p2902
aV['Oleg']
p2903
aV['Morley']
p2904
aV['Dietrich']
p2905
aV['Thorvald']
p2906
aV['Rudd']
p2907
aV['Davidson']
p2908
aV['Wendel']
p2909
aV['Howard']
p2910
aV['Colbert']
p2911
aV['Davis']
p2912
aV['Andres']
p2913
aV['Thorstein']
p2914
aV['Helmuth']
p2915
aV['Tiler']
p2916
aV['Justin']
p2917
aV['Olag']
p2918
aV['Bruno']
p2919
aV['Broderick']
p2920
aV['Delmar']
p2921
aV['Shelby']
p2922
aV['Bronson']
p2923
aV['Goose']
p2924
aV['Russell']
p2925
aV['Winn']
p2926
aV['Rustie']
p2927
aV['Conrad']
p2928
aV['Aldis']
p2929
aV['Vaughn']
p2930
aV['Baily']
p2931
aV['Dyson']
p2932
aV['Alf']
p2933
aV['Nilson']
p2934
aV['Virgil']
p2935
aV['Jeremiah']
p2936
aV['Antone']
p2937
aV['Waylan']
p2938
aV['Tanney']
p2939
aV['Lars']
p2940
aV['Butler']
p2941
aV['Alaa']
p2942
aV['Muhammad']
p2943
aV['Laurance']
p2944
aV['Staford']
p2945
aV['Tedd']
p2946
aV['Lazare']
p2947
atRp2948
.