c__builtin__
set
p1
((lp2
(VMatthiew
tp3
a(VEuclid
tp4
a(VLennie
tp5
a(VSarge
tp6
a(VPatric
tp7
a(VHartley
tp8
a(VTeador
tp9
a(VLeonerd
tp10
a(VBart
tp11
a(VRicard
tp12
a(VWalton
tp13
a(VLocke
tp14
a(VArvie
tp15
a(VWyn
tp16
a(VTobiah
tp17
a(VCase
tp18
a(VVerge
tp19
a(VMaurise
tp20
a(VNate
tp21
a(VDamian
tp22
a(VShannan
tp23
a(VBlair
tp24
a(VJuanita
tp25
a(VWashington
tp26
a(VKris
tp27
a(VDurand
tp28
a(VObie
tp29
a(VBronson
tp30
a(VAxel
tp31
a(VInglebert
tp32
a(VRuby
tp33
a(VStuart
tp34
a(VLemuel
tp35
a(VAvi
tp36
a(VWinifield
tp37
a(VVictor
tp38
a(VHyman
tp39
a(VUmberto
tp40
a(VMarcus
tp41
a(VEtienne
tp42
a(VAdolfo
tp43
a(VWilmar
tp44
a(VKareem
tp45
a(VAbdel
tp46
a(VAdolph
tp47
a(VKennedy
tp48
a(VReggis
tp49
a(VNico
tp50
a(VNathanial
tp51
a(VRandolph
tp52
a(VYaakov
tp53
a(VGonzales
tp54
a(VCain
tp55
a(VJoe
tp56
a(VOren
tp57
a(VDavidson
tp58
a(VArmand
tp59
a(VReynold
tp60
a(VWitty
tp61
a(VGerold
tp62
a(VIsador
tp63
a(VHobart
tp64
a(VGreg
tp65
a(VAamir
tp66
a(VMoises
tp67
a(VLorrie
tp68
a(VSaxon
tp69
a(VWeider
tp70
a(VEllsworth
tp71
a(VSholom
tp72
a(VBeaufort
tp73
a(VLee
tp74
a(VGerry
tp75
a(VHodge
tp76
a(VSauncho
tp77
a(VQuillan
tp78
a(VShep
tp79
a(VKurt
tp80
a(VLloyd
tp81
a(VSutton
tp82
a(VGriffin
tp83
a(VGustavo
tp84
a(VEgbert
tp85
a(VEmerson
tp86
a(VGarv
tp87
a(VCaesar
tp88
a(VCletus
tp89
a(VRaimund
tp90
a(VJeramie
tp91
a(VGiorgio
tp92
a(VArnie
tp93
a(VShaun
tp94
a(VZachariah
tp95
a(VTobe
tp96
a(VStirling
tp97
a(VMatthias
tp98
a(VTremayne
tp99
a(VWilli
tp100
a(VLew
tp101
a(VGraig
tp102
a(VKelvin
tp103
a(VMischa
tp104
a(VUli
tp105
a(VLorenzo
tp106
a(VRudy
tp107
a(VBenji
tp108
a(VStillmann
tp109
a(VBailie
tp110
a(VTimothee
tp111
a(VHagan
tp112
a(VGearard
tp113
a(VPhillipe
tp114
a(VRandolf
tp115
a(VPhil
tp116
a(VFernando
tp117
a(VTanny
tp118
a(VBarth
tp119
a(VTaber
tp120
a(VHale
tp121
a(VDenny
tp122
a(VFletcher
tp123
a(VHuey
tp124
a(VGaspar
tp125
a(VStern
tp126
a(VHamish
tp127
a(VMaury
tp128
a(VDomenico
tp129
a(VWaylon
tp130
a(VGraeme
tp131
a(VJosef
tp132
a(VMattie
tp133
a(VByron
tp134
a(VWood
tp135
a(VBubba
tp136
a(VMorgan
tp137
a(VAntonino
tp138
a(VKristian
tp139
a(VHowie
tp140
a(VHarvey
tp141
a(VSylvester
tp142
a(VGeri
tp143
a(VGay
tp144
a(VFilmore
tp145
a(VGeoff
tp146
a(VRamsey
tp147
a(VShamus
tp148
a(VThorsten
tp149
a(VLemmie
tp150
a(VOsborn
tp151
a(VBen
tp152
a(VAlec
tp153
a(VHenrik
tp154
a(VHeathcliff
tp155
a(VJim
tp156
a(VKurtis
tp157
a(VFlin
tp158
a(VChaddie
tp159
a(VMarlowe
tp160
a(VBert
tp161
a(VSpiros
tp162
a(VMayor
tp163
a(VNickolas
tp164
a(VRonald
tp165
a(VAlic
tp166
a(VDomenic
tp167
a(VRajeev
tp168
a(VGustaf
tp169
a(VChuck
tp170
a(VRolfe
tp171
a(VTerrill
tp172
a(VHalvard
tp173
a(VThornie
tp174
a(VKendal
tp175
a(VNikolai
tp176
a(VAvrom
tp177
a(VDom
tp178
a(VElden
tp179
a(VMohan
tp180
a(VMichale
tp181
a(VRupert
tp182
a(VMike
tp183
a(VBarnaby
tp184
a(VMohamed
tp185
a(VThor
tp186
a(VSigfrid
tp187
a(VNeall
tp188
a(VElmore
tp189
a(VTirrell
tp190
a(VClayborne
tp191
a(VSargent
tp192
a(VBernie
tp193
a(VArchibold
tp194
a(VWalker
tp195
a(VRaymund
tp196
a(VUlick
tp197
a(VHerold
tp198
a(VMicky
tp199
a(VForrester
tp200
a(VClemmie
tp201
a(VTraver
tp202
a(VBinky
tp203
a(VMorton
tp204
a(VUrban
tp205
a(VNahum
tp206
a(VGeorge
tp207
a(VRon
tp208
a(VRodrick
tp209
a(VGodfrey
tp210
a(VLindsey
tp211
a(VTemple
tp212
a(VRolando
tp213
a(VCraig
tp214
a(VRicki
tp215
a(VGoose
tp216
a(VRichard
tp217
a(VHayden
tp218
a(VPark
tp219
a(VPatrice
tp220
a(VConnolly
tp221
a(VBarron
tp222
a(VValentine
tp223
a(VEthan
tp224
a(VSalvatore
tp225
a(VIkey
tp226
a(VBertram
tp227
a(VCobby
tp228
a(VJoab
tp229
a(VPail
tp230
a(VTre
tp231
a(VHarris
tp232
a(VBasil
tp233
a(VJohan
tp234
a(VElvin
tp235
a(VNolan
tp236
a(VBary
tp237
a(VPatricio
tp238
a(VYard
tp239
a(VNeddie
tp240
a(VJens
tp241
a(VSkylar
tp242
a(VWally
tp243
a(VStearne
tp244
a(VTabb
tp245
a(VWiatt
tp246
a(VLucian
tp247
a(VNickie
tp248
a(VGiacomo
tp249
a(VAlwin
tp250
a(VJodi
tp251
a(VBrendan
tp252
a(VClifford
tp253
a(VGiovanne
tp254
a(VTymon
tp255
a(VAntoni
tp256
a(VPepillo
tp257
a(VRudd
tp258
a(VAngelico
tp259
a(VIra
tp260
a(VDominick
tp261
a(VDonn
tp262
a(VFrancois
tp263
a(VTudor
tp264
a(VGary
tp265
a(VRamesh
tp266
a(VBartolemo
tp267
a(VRawley
tp268
a(VSiegfried
tp269
a(VSidney
tp270
a(VRenard
tp271
a(VHailey
tp272
a(VWinton
tp273
a(VJeffrey
tp274
a(VVinnie
tp275
a(VVern
tp276
a(VSibyl
tp277
a(VFran
tp278
a(VPietro
tp279
a(VUpton
tp280
a(VZary
tp281
a(VQuinn
tp282
a(VJessie
tp283
a(VWarner
tp284
a(VSchuyler
tp285
a(VLouie
tp286
a(VOsgood
tp287
a(VHiggins
tp288
a(VIstvan
tp289
a(VNester
tp290
a(VMead
tp291
a(VSanders
tp292
a(VDominic
tp293
a(VZane
tp294
a(VUlric
tp295
a(VMeredeth
tp296
a(VWain
tp297
a(VRudolfo
tp298
a(VRoderick
tp299
a(VBarny
tp300
a(VDorian
tp301
a(VDarren
tp302
a(VErek
tp303
a(VZolly
tp304
a(VAlfonso
tp305
a(VBrock
tp306
a(VOberon
tp307
a(VJean-Marc
tp308
a(VOral
tp309
a(VIggy
tp310
a(VRollins
tp311
a(VJanus
tp312
a(VVirgil
tp313
a(VBrooks
tp314
a(VTerence
tp315
a(VPaul
tp316
a(VLaird
tp317
a(VGoddard
tp318
a(VLemmy
tp319
a(VDuffy
tp320
a(VDimitri
tp321
a(VRudolph
tp322
a(VMarmaduke
tp323
a(VFrans
tp324
a(VAlston
tp325
a(VGuillaume
tp326
a(VOdysseus
tp327
a(VElisha
tp328
a(VMason
tp329
a(VSidnee
tp330
a(VCasper
tp331
a(VPepito
tp332
a(VWorthy
tp333
a(VNeville
tp334
a(VOliver
tp335
a(VJustin
tp336
a(VJoey
tp337
a(VShurlocke
tp338
a(VMorse
tp339
a(VIrving
tp340
a(VMiguel
tp341
a(VHasheem
tp342
a(VZeb
tp343
a(VKent
tp344
a(VHezekiah
tp345
a(VWeylin
tp346
a(VRad
tp347
a(VImmanuel
tp348
a(VConstantin
tp349
a(VNeil
tp350
a(VYankee
tp351
a(VSawyer
tp352
a(VMenard
tp353
a(VGabriell
tp354
a(VBlaine
tp355
a(VGlen
tp356
a(VPhineas
tp357
a(VTitos
tp358
a(VZebadiah
tp359
a(VWalther
tp360
a(VLewis
tp361
a(VGardner
tp362
a(VEverett
tp363
a(VPaton
tp364
a(VSolomon
tp365
a(VBurton
tp366
a(VDickie
tp367
a(VJeffery
tp368
a(VHewett
tp369
a(VMylo
tp370
a(VHewet
tp371
a(VTerri
tp372
a(VShay
tp373
a(VNeal
tp374
a(VCalhoun
tp375
a(VStephen
tp376
a(VSaul
tp377
a(VDonal
tp378
a(VGabe
tp379
a(VSpencer
tp380
a(VMichail
tp381
a(VOscar
tp382
a(VOlaf
tp383
a(VHercule
tp384
a(VRolf
tp385
a(VJules
tp386
a(VThebault
tp387
a(VWaldo
tp388
a(VPen
tp389
a(VJeffry
tp390
a(VJean-Paul
tp391
a(VVlad
tp392
a(VBrad
tp393
a(VMajor
tp394
a(VPaddie
tp395
a(VBrewster
tp396
a(VMikael
tp397
a(VWynn
tp398
a(VTy
tp399
a(VWest
tp400
a(VLon
tp401
a(VRockwell
tp402
a(VBrandy
tp403
a(VKalle
tp404
a(VHans
tp405
a(VGrover
tp406
a(VKaleb
tp407
a(VWalter
tp408
a(VPablo
tp409
a(VWilfrid
tp410
a(VVinod
tp411
a(VTarrance
tp412
a(VVernor
tp413
a(VEphram
tp414
a(VAbdulkarim
tp415
a(VTheo
tp416
a(VKonstantin
tp417
a(VAube
tp418
a(VOrton
tp419
a(VAbbott
tp420
a(VPattie
tp421
a(VHuntley
tp422
a(VKevin
tp423
a(VChristos
tp424
a(VErin
tp425
a(VReggy
tp426
a(VOllie
tp427
a(VAvraham
tp428
a(VOtto
tp429
a(VArie
tp430
a(VConnor
tp431
a(VThaxter
tp432
a(VRock
tp433
a(VStefan
tp434
a(VBennie
tp435
a(VSancho
tp436
a(VMeade
tp437
a(VLeonhard
tp438
a(VBaxter
tp439
a(VWilden
tp440
a(VJermaine
tp441
a(VBenedict
tp442
a(VVick
tp443
a(VMerell
tp444
a(VHendrik
tp445
a(VRamsay
tp446
a(VHunt
tp447
a(VSam
tp448
a(VAbbey
tp449
a(VPate
tp450
a(VTore
tp451
a(VOzzie
tp452
a(VEphrayim
tp453
a(VShawn
tp454
a(VTuckie
tp455
a(VBlayne
tp456
a(VHamid
tp457
a(VBartlet
tp458
a(VJordon
tp459
a(VTyrone
tp460
a(VThorny
tp461
a(VPip
tp462
a(VGiavani
tp463
a(VPeirce
tp464
a(VDarrick
tp465
a(VSimon
tp466
a(VDario
tp467
a(VAnton
tp468
a(VToddy
tp469
a(VTempleton
tp470
a(VAntonius
tp471
a(VAhmad
tp472
a(VElliott
tp473
a(VEarl
tp474
a(VGasper
tp475
a(VBurke
tp476
a(VBarclay
tp477
a(VBryn
tp478
a(VIsaak
tp479
a(VFreemon
tp480
a(VTed
tp481
a(VTeddy
tp482
a(VDemetris
tp483
a(VJoshua
tp484
a(VBarris
tp485
a(VTarrant
tp486
a(VJimmy
tp487
a(VOtes
tp488
a(VRaj
tp489
a(VTucky
tp490
a(VLin
tp491
a(VChristophe
tp492
a(VZachary
tp493
a(VRedford
tp494
a(VMarv
tp495
a(VGarrot
tp496
a(VGerri
tp497
a(VBay
tp498
a(VQuigly
tp499
a(VEphraim
tp500
a(VBryan
tp501
a(VKing
tp502
a(VRoni
tp503
a(VDavey
tp504
a(VBroderic
tp505
a(VBartolomeo
tp506
a(VDemetrius
tp507
a(VBaily
tp508
a(VFrench
tp509
a(VFleming
tp510
a(VRourke
tp511
a(VGranville
tp512
a(VCollin
tp513
a(VRudyard
tp514
a(VGodfry
tp515
a(VTroy
tp516
a(VRoderich
tp517
a(VOrson
tp518
a(VRyan
tp519
a(VKarsten
tp520
a(VKendrick
tp521
a(VAce
tp522
a(VMarc
tp523
a(VArchibald
tp524
a(VSig
tp525
a(VFranklin
tp526
a(VMartin
tp527
a(VThurstan
tp528
a(VRaymond
tp529
a(VTerencio
tp530
a(VJess
tp531
a(VLionello
tp532
a(VIvan
tp533
a(VAguinaldo
tp534
a(VWat
tp535
a(VWayne
tp536
a(VKirby
tp537
a(VEvelyn
tp538
a(VLen
tp539
a(VFerdy
tp540
a(VYule
tp541
a(VThorpe
tp542
a(VPenny
tp543
a(VMendel
tp544
a(VAlain
tp545
a(VSimmonds
tp546
a(VRodd
tp547
a(VTerrance
tp548
a(VKam
tp549
a(VChaddy
tp550
a(VHamlet
tp551
a(VTurner
tp552
a(VJohny
tp553
a(VFons
tp554
a(VMaurie
tp555
a(VGustav
tp556
a(VDamien
tp557
a(VGerald
tp558
a(VKerry
tp559
a(VDewey
tp560
a(VGiffer
tp561
a(VTrace
tp562
a(VChet
tp563
a(VMohammed
tp564
a(VJeff
tp565
a(VCarlton
tp566
a(VHarvard
tp567
a(VRollin
tp568
a(VMontgomery
tp569
a(VSomerset
tp570
a(VJonathon
tp571
a(VHannibal
tp572
a(VSamuel
tp573
a(VRuddie
tp574
a(VTait
tp575
a(VElmer
tp576
a(VNed
tp577
a(VGerrit
tp578
a(VBarri
tp579
a(VCarl
tp580
a(VTodd
tp581
a(VJerald
tp582
a(VJeremy
tp583
a(VOlag
tp584
a(VLaurence
tp585
a(VFoster
tp586
a(VWelby
tp587
a(VLayton
tp588
a(VVinny
tp589
a(VWorthington
tp590
a(VSascha
tp591
a(VShalom
tp592
a(VThorn
tp593
a(VKarel
tp594
a(VTedie
tp595
a(VShea
tp596
a(VDenis
tp597
a(VRicky
tp598
a(VKen
tp599
a(VHarlin
tp600
a(VStearn
tp601
a(VHarv
tp602
a(VTracy
tp603
a(VAdam
tp604
a(VPrasad
tp605
a(VMyles
tp606
a(VFilipe
tp607
a(VFletch
tp608
a(VDante
tp609
a(VDavis
tp610
a(VWestbrooke
tp611
a(VGil
tp612
a(VConnie
tp613
a(VUrbain
tp614
a(VRobert
tp615
a(VDuffie
tp616
a(VNiles
tp617
a(VJory
tp618
a(VVale
tp619
a(VPrice
tp620
a(VAllah
tp621
a(VWitold
tp622
a(VZechariah
tp623
a(VEnoch
tp624
a(VRavil
tp625
a(VAlister
tp626
a(VSammy
tp627
a(VRenato
tp628
a(VSiddhartha
tp629
a(VIan
tp630
a(VParke
tp631
a(VSigfried
tp632
a(VFrederich
tp633
a(VByram
tp634
a(VSal
tp635
a(VKeenan
tp636
a(VJereme
tp637
a(VDevon
tp638
a(VChristorpher
tp639
a(VFerdinand
tp640
a(VShlomo
tp641
a(VDemosthenis
tp642
a(VRoderic
tp643
a(VJudith
tp644
a(VLincoln
tp645
a(VRobinson
tp646
a(VBarney
tp647
a(VTownsend
tp648
a(VRob
tp649
a(VWarde
tp650
a(VMagnus
tp651
a(VMoishe
tp652
a(VNoel
tp653
a(VLeopold
tp654
a(VMonte
tp655
a(VZacharia
tp656
a(VDarin
tp657
a(VChadwick
tp658
a(VFitzgerald
tp659
a(VGomer
tp660
a(VJoachim
tp661
a(VGallagher
tp662
a(VPercival
tp663
a(VAngie
tp664
a(VLinoel
tp665
a(VCaspar
tp666
a(VEthelred
tp667
a(VVan
tp668
a(VFriedrich
tp669
a(VDarth
tp670
a(VBobby
tp671
a(VMarsh
tp672
a(VHusein
tp673
a(VElias
tp674
a(VScotti
tp675
a(VHilbert
tp676
a(VOle
tp677
a(VTorey
tp678
a(VEv
tp679
a(VMortimer
tp680
a(VAllin
tp681
a(VAntoine
tp682
a(VMartainn
tp683
a(VSilvain
tp684
a(VAlf
tp685
a(VGiovanni
tp686
a(VShurwood
tp687
a(VRussell
tp688
a(VPaulo
tp689
a(VChan
tp690
a(VHoward
tp691
a(VRipley
tp692
a(VGoddart
tp693
a(VOlivier
tp694
a(VJesse
tp695
a(VWillis
tp696
a(VHashim
tp697
a(VJermayne
tp698
a(VDabney
tp699
a(VManuel
tp700
a(VIsmail
tp701
a(VTab
tp702
a(VClaybourne
tp703
a(VIrvin
tp704
a(VSanford
tp705
a(VJarvis
tp706
a(VEberhard
tp707
a(VMatias
tp708
a(VWells
tp709
a(VSayers
tp710
a(VTedman
tp711
a(VDylan
tp712
a(VVincents
tp713
a(VZed
tp714
a(VLester
tp715
a(VShimon
tp716
a(VPetr
tp717
a(VEmmet
tp718
a(VKenn
tp719
a(VHaydon
tp720
a(VUgo
tp721
a(VEdgardo
tp722
a(VStanwood
tp723
a(VAndrus
tp724
a(VCyrus
tp725
a(VHermy
tp726
a(VTammy
tp727
a(VRobbert
tp728
a(VKermit
tp729
a(VWillie
tp730
a(VAub
tp731
a(VJulie
tp732
a(VGarcia
tp733
a(VNikita
tp734
a(VJaime
tp735
a(VWestleigh
tp736
a(VEdmond
tp737
a(VBrant
tp738
a(VHasty
tp739
a(VMarcellus
tp740
a(VKeith
tp741
a(VGodfree
tp742
a(VRab
tp743
a(VStinky
tp744
a(VClarence
tp745
a(VDuane
tp746
a(VDwaine
tp747
a(VHari
tp748
a(VAlejandro
tp749
a(VFriedric
tp750
a(VWinford
tp751
a(VStafford
tp752
a(VWilly
tp753
a(VErny
tp754
a(VGerome
tp755
a(VAustin
tp756
a(VUriel
tp757
a(VDavin
tp758
a(VKingston
tp759
a(VMarwin
tp760
a(VGilles
tp761
a(VTim
tp762
a(VRoderigo
tp763
a(VJerome
tp764
a(VBarthel
tp765
a(VTyrus
tp766
a(VMohamad
tp767
a(VSalman
tp768
a(VGabriello
tp769
a(VSheridan
tp770
a(VAndres
tp771
a(VAshley
tp772
a(VPatty
tp773
a(VBela
tp774
a(VTorry
tp775
a(VLyle
tp776
a(VOdell
tp777
a(VJudah
tp778
a(VConan
tp779
a(VFabian
tp780
a(VTibold
tp781
a(VCyrille
tp782
a(VShadow
tp783
a(VLowell
tp784
a(VNichole
tp785
a(VMauricio
tp786
a(VAgamemnon
tp787
a(VJudy
tp788
a(VMac
tp789
a(VKyle
tp790
a(VPenn
tp791
a(VRansell
tp792
a(VHumphrey
tp793
a(VHewie
tp794
a(VVijay
tp795
a(VLaurens
tp796
a(VAnatollo
tp797
a(VClaire
tp798
a(VOswald
tp799
a(VWoodrow
tp800
a(VReggie
tp801
a(VDawson
tp802
a(VWeidar
tp803
a(VAndrea
tp804
a(VCam
tp805
a(VLyn
tp806
a(VGordie
tp807
a(VRonny
tp808
a(VCarter
tp809
a(VTad
tp810
a(VDewitt
tp811
a(VFitz
tp812
a(VMatteo
tp813
a(VRiccardo
tp814
a(VChristie
tp815
a(VSloane
tp816
a(VZachery
tp817
a(VHastings
tp818
a(VDeane
tp819
a(VFyodor
tp820
a(VIgnacio
tp821
a(VBaldwin
tp822
a(VPieter
tp823
a(VZeke
tp824
a(VKip
tp825
a(VCarroll
tp826
a(VEmory
tp827
a(VSherman
tp828
a(VTynan
tp829
a(VGavin
tp830
a(VTiebout
tp831
a(VReese
tp832
a(VHenry
tp833
a(VMadison
tp834
a(VHallam
tp835
a(VGregor
tp836
a(VAmbrosius
tp837
a(VVernon
tp838
a(VLeighton
tp839
a(VTorre
tp840
a(VYardley
tp841
a(VJavier
tp842
a(VElvis
tp843
a(VErwin
tp844
a(VAnurag
tp845
a(VWaite
tp846
a(VRubin
tp847
a(VClarance
tp848
a(VLazaro
tp849
a(VMarve
tp850
a(VDemetri
tp851
a(VDarcy
tp852
a(VChariot
tp853
a(VClem
tp854
a(VLawerence
tp855
a(VGoober
tp856
a(VAli
tp857
a(VPearce
tp858
a(VDudley
tp859
a(VVibhu
tp860
a(VMorten
tp861
a(VScarface
tp862
a(VBharat
tp863
a(VHersch
tp864
a(VTemp
tp865
a(VAditya
tp866
a(VBroddie
tp867
a(VShorty
tp868
a(VWindham
tp869
a(VGarwood
tp870
a(VBud
tp871
a(VRalph
tp872
a(VSol
tp873
a(VHeath
tp874
a(VThaddius
tp875
a(VJerrold
tp876
a(VEmmy
tp877
a(VManish
tp878
a(VPrasun
tp879
a(VMicah
tp880
a(VIsadore
tp881
a(VMaxwell
tp882
a(VHumbert
tp883
a(VSheldon
tp884
a(VSunny
tp885
a(VOlin
tp886
a(VJehu
tp887
a(VJakob
tp888
a(VCharley
tp889
a(VSaw
tp890
a(VFrederico
tp891
a(VRichy
tp892
a(VLorne
tp893
a(VWalt
tp894
a(VIngram
tp895
a(VLogan
tp896
a(VEllwood
tp897
a(VVito
tp898
a(VStewart
tp899
a(VMohammad
tp900
a(VDimitrios
tp901
a(VNevil
tp902
a(VSansone
tp903
a(VDino
tp904
a(VHogan
tp905
a(VMalcolm
tp906
a(VIbrahim
tp907
a(VRickie
tp908
a(VAve
tp909
a(VBillie
tp910
a(VAdrian
tp911
a(VGarvy
tp912
a(VJeremias
tp913
a(VZacherie
tp914
a(VLeigh
tp915
a(VWash
tp916
a(VWit
tp917
a(VEsau
tp918
a(VFarley
tp919
a(VXymenes
tp920
a(VRowland
tp921
a(VZelig
tp922
a(VMurray
tp923
a(VRagnar
tp924
a(VBernard
tp925
a(VRoman
tp926
a(VDarian
tp927
a(VAlasdair
tp928
a(VLeonidas
tp929
a(VEben
tp930
a(VHendrick
tp931
a(VBarry
tp932
a(VXenos
tp933
a(VElliot
tp934
a(VPercy
tp935
a(VReginald
tp936
a(VWendall
tp937
a(VVladamir
tp938
a(VAshton
tp939
a(VJean-Luc
tp940
a(VAbraham
tp941
a(VTye
tp942
a(VRudie
tp943
a(VCarleigh
tp944
a(VKellen
tp945
a(VCyrillus
tp946
a(VSting
tp947
a(VSasha
tp948
a(VPeter
tp949
a(VVergil
tp950
a(VMarty
tp951
a(VGale
tp952
a(VFox
tp953
a(VStandford
tp954
a(VWakefield
tp955
a(VHartwell
tp956
a(VBennet
tp957
a(VLucius
tp958
a(VPartha
tp959
a(VTanney
tp960
a(VJoseph
tp961
a(VUdall
tp962
a(VLambert
tp963
a(VReinhard
tp964
a(VDurward
tp965
a(VTremain
tp966
a(VHuntlee
tp967
a(VBennett
tp968
a(VSkyler
tp969
a(VBlare
tp970
a(VMaison
tp971
a(VAlan
tp972
a(VMateo
tp973
a(VGaven
tp974
a(VBoris
tp975
a(VKaiser
tp976
a(VRickey
tp977
a(VSinclare
tp978
a(VGustavus
tp979
a(VDarby
tp980
a(VMika
tp981
a(VErnest
tp982
a(VThedric
tp983
a(VGene
tp984
a(VHarwell
tp985
a(VLeif
tp986
a(VAmbrose
tp987
a(VHagen
tp988
a(VRaynard
tp989
a(VLaurent
tp990
a(VNorwood
tp991
a(VTheodoric
tp992
a(VRickard
tp993
a(VHart
tp994
a(VWeslie
tp995
a(VCal
tp996
a(VAlvin
tp997
a(VSpence
tp998
a(VZalman
tp999
a(VVirgilio
tp1000
a(VTucker
tp1001
a(VCrawford
tp1002
a(VLesley
tp1003
a(VLothar
tp1004
a(VAldric
tp1005
a(VSolly
tp1006
a(VBob
tp1007
a(VRonen
tp1008
a(VNicolas
tp1009
a(VBuck
tp1010
a(VArtur
tp1011
a(VMattias
tp1012
a(VHayward
tp1013
a(VMerwin
tp1014
a(VShem
tp1015
a(VKelwin
tp1016
a(VAllan
tp1017
a(VZollie
tp1018
a(VHewe
tp1019
a(VDavoud
tp1020
a(VRenado
tp1021
a(VQuill
tp1022
a(VStig
tp1023
a(VTristan
tp1024
a(VArther
tp1025
a(VFergus
tp1026
a(VArnold
tp1027
a(VArvind
tp1028
a(VThaine
tp1029
a(VZippy
tp1030
a(VJudas
tp1031
a(VVance
tp1032
a(VHadrian
tp1033
a(VHymie
tp1034
a(VGerard
tp1035
a(VChe
tp1036
a(VRaphael
tp1037
a(VTannie
tp1038
a(VRod
tp1039
a(VGrant
tp1040
a(VJacob
tp1041
a(VAlphonse
tp1042
a(VArchon
tp1043
a(VArvin
tp1044
a(VChev
tp1045
a(VVerne
tp1046
a(VMicheil
tp1047
a(VDerby
tp1048
a(VMilt
tp1049
a(VAndri
tp1050
a(VCaldwell
tp1051
a(VCody
tp1052
a(VTito
tp1053
a(VPaige
tp1054
a(VWaylin
tp1055
a(VAnatole
tp1056
a(VPennie
tp1057
a(VRufus
tp1058
a(VBear
tp1059
a(VHenderson
tp1060
a(VVal
tp1061
a(VHerculie
tp1062
a(VSebastiano
tp1063
a(VHoratius
tp1064
a(VRoice
tp1065
a(VSterling
tp1066
a(VEbenezer
tp1067
a(VSrinivas
tp1068
a(VLamar
tp1069
a(VHerman
tp1070
a(VIngemar
tp1071
a(VNoam
tp1072
a(VCliff
tp1073
a(VRainer
tp1074
a(VSkipton
tp1075
a(VAlden
tp1076
a(VJerry
tp1077
a(VCarmine
tp1078
a(VNorton
tp1079
a(VRandal
tp1080
a(VMerill
tp1081
a(VMortie
tp1082
a(VOswell
tp1083
a(VMickie
tp1084
a(VFreeman
tp1085
a(VDarien
tp1086
a(VCobbie
tp1087
a(VJotham
tp1088
a(VArt
tp1089
a(VVaughan
tp1090
a(VAugust
tp1091
a(VVoltaire
tp1092
a(VDerick
tp1093
a(VChance
tp1094
a(VHamilton
tp1095
a(VDarrell
tp1096
a(VEz
tp1097
a(VRex
tp1098
a(VFinley
tp1099
a(VWyatt
tp1100
a(VBryon
tp1101
a(VSpiro
tp1102
a(VAmbrosi
tp1103
a(VForest
tp1104
a(VLance
tp1105
a(VDani
tp1106
a(VFrederik
tp1107
a(VSid
tp1108
a(VVon
tp1109
a(VJeffie
tp1110
a(VSandy
tp1111
a(VWillem
tp1112
a(VCorwin
tp1113
a(VChristoph
tp1114
a(VCy
tp1115
a(VJo
tp1116
a(VJude
tp1117
a(VMoses
tp1118
a(VConrad
tp1119
a(VAristotle
tp1120
a(VCarlyle
tp1121
a(VTravers
tp1122
a(VDwight
tp1123
a(VHorace
tp1124
a(VTrev
tp1125
a(VUrbano
tp1126
a(VWelbie
tp1127
a(VPatel
tp1128
a(VHans-Peter
tp1129
a(VAndros
tp1130
a(VKendall
tp1131
a(VCole
tp1132
a(VKirk
tp1133
a(VFlorian
tp1134
a(VTiler
tp1135
a(VAbby
tp1136
a(VMarlon
tp1137
a(VCris
tp1138
a(VWhittaker
tp1139
a(VGino
tp1140
a(VArnoldo
tp1141
a(VAmbros
tp1142
a(VTravis
tp1143
a(VTownie
tp1144
a(VReube
tp1145
a(VLazar
tp1146
a(VPraneetf
tp1147
a(VDoyle
tp1148
a(VAngelo
tp1149
a(VWhitaker
tp1150
a(VKraig
tp1151
a(VMartie
tp1152
a(VAbram
tp1153
a(VJackson
tp1154
a(VFraser
tp1155
a(VMeryl
tp1156
a(VSkell
tp1157
a(VFremont
tp1158
a(VNorbert
tp1159
a(VIzaak
tp1160
a(VTeodoro
tp1161
a(VRandy
tp1162
a(VJeremie
tp1163
a(VMose
tp1164
a(VHerby
tp1165
a(VShelton
tp1166
a(VKostas
tp1167
a(VSutherland
tp1168
a(VTom
tp1169
a(VGrace
tp1170
a(VNathanael
tp1171
a(VNealy
tp1172
a(VNikki
tp1173
a(VSteffen
tp1174
a(VSayres
tp1175
a(VSollie
tp1176
a(VMahesh
tp1177
a(VToddie
tp1178
a(VLionel
tp1179
a(VLane
tp1180
a(VPage
tp1181
a(VChanderjit
tp1182
a(VChip
tp1183
a(VJeb
tp1184
a(VKevan
tp1185
a(VMaddie
tp1186
a(VAllen
tp1187
a(VRaleigh
tp1188
a(VSydney
tp1189
a(VNorris
tp1190
a(VGarvey
tp1191
a(VFilbert
tp1192
a(VMace
tp1193
a(VNils
tp1194
a(VHaskel
tp1195
a(VAleks
tp1196
a(VThomas
tp1197
a(VSmitty
tp1198
a(VBruce
tp1199
a(VLucas
tp1200
a(VWeston
tp1201
a(VBartholemy
tp1202
a(VWittie
tp1203
a(VHenri
tp1204
a(VGarry
tp1205
a(VForbes
tp1206
a(VLyndon
tp1207
a(VAbel
tp1208
a(VDouglass
tp1209
a(VGraham
tp1210
a(VGarth
tp1211
a(VRaoul
tp1212
a(VChristian
tp1213
a(VFranklyn
tp1214
a(VLudvig
tp1215
a(VButler
tp1216
a(VLazarus
tp1217
a(VErastus
tp1218
a(VPaco
tp1219
a(VAmery
tp1220
a(VCarsten
tp1221
a(VMaxim
tp1222
a(VBarnabe
tp1223
a(VMarkos
tp1224
a(VGuido
tp1225
a(VFreddy
tp1226
a(VGuthrie
tp1227
a(VIsidore
tp1228
a(VJephthah
tp1229
a(VNeale
tp1230
a(VGifford
tp1231
a(VCarlin
tp1232
a(VTerrel
tp1233
a(VCesar
tp1234
a(VAverell
tp1235
a(VBoniface
tp1236
a(VKristos
tp1237
a(VDarrin
tp1238
a(VReza
tp1239
a(VLay
tp1240
a(VNiccolo
tp1241
a(VTadeas
tp1242
a(VPenrod
tp1243
a(VPerceval
tp1244
a(VKingsly
tp1245
a(VKrishna
tp1246
a(VWolfgang
tp1247
a(VSchroeder
tp1248
a(VWaring
tp1249
a(VMatthew
tp1250
a(VDietrich
tp1251
a(VSocrates
tp1252
a(VQuigman
tp1253
a(VBearnard
tp1254
a(VRory
tp1255
a(VBeale
tp1256
a(VCory
tp1257
a(VJulius
tp1258
a(VAram
tp1259
a(VFonsie
tp1260
a(VOsborne
tp1261
a(VGalen
tp1262
a(VPatin
tp1263
a(VBret
tp1264
a(VGail
tp1265
a(VLuther
tp1266
a(VTobin
tp1267
a(VBurl
tp1268
a(VYank
tp1269
a(VErasmus
tp1270
a(VHarman
tp1271
a(VOlle
tp1272
a(VArtie
tp1273
a(VGuillermo
tp1274
a(VIgnacius
tp1275
a(VWald
tp1276
a(VDennis
tp1277
a(VMorlee
tp1278
a(VVin
tp1279
a(VAshish
tp1280
a(VBarn
tp1281
a(VMillicent
tp1282
a(VTabby
tp1283
a(VGarey
tp1284
a(VPepe
tp1285
a(VHassan
tp1286
a(VSamson
tp1287
a(VEmmett
tp1288
a(VSparky
tp1289
a(VGodwin
tp1290
a(VIzak
tp1291
a(VJean-Christophe
tp1292
a(VSiward
tp1293
a(VCameron
tp1294
a(VNevile
tp1295
a(VWilmer
tp1296
a(VBobbie
tp1297
a(VRussel
tp1298
a(VDavide
tp1299
a(VClive
tp1300
a(VEmile
tp1301
a(VGarp
tp1302
a(VMaurice
tp1303
a(VStanleigh
tp1304
a(VSeth
tp1305
a(VKermie
tp1306
a(VWestley
tp1307
a(VSalomone
tp1308
a(VChristofer
tp1309
a(VEdgar
tp1310
a(VLawton
tp1311
a(VBarrie
tp1312
a(VRey
tp1313
a(VLem
tp1314
a(VAziz
tp1315
a(VTeodorico
tp1316
a(VDerek
tp1317
a(VKnox
tp1318
a(VWebb
tp1319
a(VRegen
tp1320
a(VShell
tp1321
a(VLonny
tp1322
a(VRene
tp1323
a(VAngel
tp1324
a(VChas
tp1325
a(VLawrence
tp1326
a(VFrederic
tp1327
a(VAlfie
tp1328
a(VWilfred
tp1329
a(VThayne
tp1330
a(VMaynard
tp1331
a(VLeland
tp1332
a(VSteven
tp1333
a(VMatt
tp1334
a(VRhett
tp1335
a(VGeorges
tp1336
a(VChevy
tp1337
a(VPierre
tp1338
a(VTyler
tp1339
a(VHanson
tp1340
a(VRick
tp1341
a(VHaywood
tp1342
a(VGrove
tp1343
a(VNealson
tp1344
a(VSayer
tp1345
a(VRoyce
tp1346
a(VTaite
tp1347
a(VBradley
tp1348
a(VAubrey
tp1349
a(VHusain
tp1350
a(VReuben
tp1351
a(VVirgie
tp1352
a(VSterne
tp1353
a(VAlexei
tp1354
a(VHamnet
tp1355
a(VDerrek
tp1356
a(VPaolo
tp1357
a(VWinnie
tp1358
a(VFelipe
tp1359
a(VDallas
tp1360
a(VFranz
tp1361
a(VAri
tp1362
a(VWoody
tp1363
a(VClemens
tp1364
a(VChancey
tp1365
a(VJameson
tp1366
a(VUrbanus
tp1367
a(VReagan
tp1368
a(VChaunce
tp1369
a(VKonrad
tp1370
a(VJordan
tp1371
a(VHamlen
tp1372
a(VThibaut
tp1373
a(VJonny
tp1374
a(VPaddy
tp1375
a(VRobbie
tp1376
a(VGarrott
tp1377
a(VArthur
tp1378
a(VOctavius
tp1379
a(VRolland
tp1380
a(VLeonard
tp1381
a(VFord
tp1382
a(VTheodore
tp1383
a(VRand
tp1384
a(VRoberto
tp1385
a(VClair
tp1386
a(VOran
tp1387
a(VArturo
tp1388
a(VTimotheus
tp1389
a(VOrlando
tp1390
a(VBrewer
tp1391
a(VFonzie
tp1392
a(VRabi
tp1393
a(VAjay
tp1394
a(VMeier
tp1395
a(VTerrence
tp1396
a(VTimothy
tp1397
a(VBerkeley
tp1398
a(VElijah
tp1399
a(VAbbie
tp1400
a(VRenaud
tp1401
a(VPalmer
tp1402
a(VSheffie
tp1403
a(VJoaquin
tp1404
a(VCorey
tp1405
a(VParry
tp1406
a(VPiet
tp1407
a(VLiam
tp1408
a(VInigo
tp1409
a(VJean-Francois
tp1410
a(VLeonid
tp1411
a(VWallis
tp1412
a(VErik
tp1413
a(VBarnebas
tp1414
a(VRabbi
tp1415
a(VEllis
tp1416
a(VIngelbert
tp1417
a(VSergio
tp1418
a(VTeodor
tp1419
a(VStanford
tp1420
a(VTony
tp1421
a(VAddie
tp1422
a(VSergeant
tp1423
a(VBenjamin
tp1424
a(VFrancis
tp1425
a(VWyndham
tp1426
a(VWilt
tp1427
a(VQuinlan
tp1428
a(VMorly
tp1429
a(VHugo
tp1430
a(VKalman
tp1431
a(VDavidde
tp1432
a(VElwood
tp1433
a(VNiels
tp1434
a(VErnst
tp1435
a(VGamaliel
tp1436
a(VEugene
tp1437
a(VButch
tp1438
a(VFlynn
tp1439
a(VHerb
tp1440
a(VSpike
tp1441
a(VClint
tp1442
a(VThain
tp1443
a(VJay
tp1444
a(VEddy
tp1445
a(VHerbert
tp1446
a(VMelvin
tp1447
a(VNat
tp1448
a(VCheston
tp1449
a(VRadcliffe
tp1450
a(VDell
tp1451
a(VParnell
tp1452
a(VGarrett
tp1453
a(VSamuele
tp1454
a(VBenny
tp1455
a(VLuciano
tp1456
a(VPatsy
tp1457
a(VRik
tp1458
a(VGreggory
tp1459
a(VStanly
tp1460
a(VCleland
tp1461
a(VJere
tp1462
a(VDan
tp1463
a(VSlim
tp1464
a(VScot
tp1465
a(VWinn
tp1466
a(VOrazio
tp1467
a(VTorr
tp1468
a(VMeredith
tp1469
a(VChurchill
tp1470
a(VCristopher
tp1471
a(VClayton
tp1472
a(VJohann
tp1473
a(VWaldemar
tp1474
a(VZebulen
tp1475
a(VPutnam
tp1476
a(VElton
tp1477
a(VWeber
tp1478
a(VGriswold
tp1479
a(VGodart
tp1480
a(VBo
tp1481
a(VEugen
tp1482
a(VQuint
tp1483
a(VPhillipp
tp1484
a(VShanan
tp1485
a(VMickey
tp1486
a(VBerkley
tp1487
a(VBishop
tp1488
a(VHunter
tp1489
a(VJon
tp1490
a(VFelicio
tp1491
a(VEdsel
tp1492
a(VPatrick
tp1493
a(VUlises
tp1494
a(VElric
tp1495
a(VPadraig
tp1496
a(VSean
tp1497
a(VJae
tp1498
a(VMitchell
tp1499
a(VStanislaw
tp1500
a(VEd
tp1501
a(VSilvio
tp1502
a(VUlrich
tp1503
a(VWhitman
tp1504
a(VAnthony
tp1505
a(VWinston
tp1506
a(VSkippie
tp1507
a(VBrian
tp1508
a(VSi
tp1509
a(VAl
tp1510
a(VDavy
tp1511
a(VSandro
tp1512
a(VNoah
tp1513
a(VDale
tp1514
a(VMonroe
tp1515
a(VStanton
tp1516
a(VSully
tp1517
a(VThane
tp1518
a(VJule
tp1519
a(VHamel
tp1520
a(VSalim
tp1521
a(VIvor
tp1522
a(VGunner
tp1523
a(VColeman
tp1524
a(VChane
tp1525
a(VOdie
tp1526
a(VWolfie
tp1527
a(VRandi
tp1528
a(VTowney
tp1529
a(VMurphy
tp1530
a(VCaleb
tp1531
a(VWendel
tp1532
a(VBernhard
tp1533
a(VJonah
tp1534
a(VReynard
tp1535
a(VElihu
tp1536
a(VPaten
tp1537
a(VRich
tp1538
a(VRaynor
tp1539
a(VSelby
tp1540
a(VEdwin
tp1541
a(VAugustine
tp1542
a(VSky
tp1543
a(VDaryl
tp1544
a(VErl
tp1545
a(VTheophyllus
tp1546
a(VFlem
tp1547
a(VHerrmann
tp1548
a(VDane
tp1549
a(VMayer
tp1550
a(VCaryl
tp1551
a(VDarryl
tp1552
a(VUlberto
tp1553
a(VWilek
tp1554
a(VIrvine
tp1555
a(VMugsy
tp1556
a(VHall
tp1557
a(VAdair
tp1558
a(VIngmar
tp1559
a(VCurtis
tp1560
a(VWait
tp1561
a(VNeel
tp1562
a(VBurnaby
tp1563
a(VThaddeus
tp1564
a(VGiraldo
tp1565
a(VWilley
tp1566
a(VJack
tp1567
a(VEnglebert
tp1568
a(VOsbourn
tp1569
a(VMart
tp1570
a(VMorley
tp1571
a(VStevy
tp1572
a(VSwen
tp1573
a(VOrville
tp1574
a(VAndrew
tp1575
a(VBrooke
tp1576
a(VLeon
tp1577
a(VHervey
tp1578
a(VWilburn
tp1579
a(VAlaa
tp1580
a(VArmando
tp1581
a(VIshmael
tp1582
a(VBill
tp1583
a(VKenneth
tp1584
a(VAlfredo
tp1585
a(VWalden
tp1586
a(VForster
tp1587
a(VDalton
tp1588
a(VMikel
tp1589
a(VAugusto
tp1590
a(VSaunderson
tp1591
a(VQuiggly
tp1592
a(VPhilbert
tp1593
a(VMurdoch
tp1594
a(VTracie
tp1595
a(VBenjie
tp1596
a(VWright
tp1597
a(VEly
tp1598
a(VFredrick
tp1599
a(VEdmund
tp1600
a(VWare
tp1601
a(VAmbrosio
tp1602
a(VEnglebart
tp1603
a(VWinthrop
tp1604
a(VBritt
tp1605
a(VNathanil
tp1606
a(VMyke
tp1607
a(VEbeneser
tp1608
a(VChristy
tp1609
a(VOtho
tp1610
a(VJoshuah
tp1611
a(VTammie
tp1612
a(VEmmit
tp1613
a(VBryce
tp1614
a(VReece
tp1615
a(VYehudi
tp1616
a(VRudiger
tp1617
a(VGinger
tp1618
a(VBrice
tp1619
a(VKit
tp1620
a(VRustie
tp1621
a(VTomas
tp1622
a(VHarry
tp1623
a(VGriffith
tp1624
a(VPascale
tp1625
a(VGilburt
tp1626
a(VNorman
tp1627
a(VFreddie
tp1628
a(VHugh
tp1629
a(VWoodie
tp1630
a(VDesmond
tp1631
a(VWake
tp1632
a(VGregory
tp1633
a(VJasper
tp1634
a(VCosta
tp1635
a(VAnatol
tp1636
a(VWyatan
tp1637
a(VJamey
tp1638
a(VSalomo
tp1639
a(VClinten
tp1640
a(VReuven
tp1641
a(VGraehme
tp1642
a(VReinhold
tp1643
a(VWolf
tp1644
a(VRog
tp1645
a(VBarbabas
tp1646
a(VDuke
tp1647
a(VIngamar
tp1648
a(VCourtney
tp1649
a(VBenton
tp1650
a(VAbdul
tp1651
a(VJosephus
tp1652
a(VMunroe
tp1653
a(VHerve
tp1654
a(VJud
tp1655
a(VDemetre
tp1656
a(VColin
tp1657
a(VMarietta
tp1658
a(VHilton
tp1659
a(VObadiah
tp1660
a(VTome
tp1661
a(VTrever
tp1662
a(VBrady
tp1663
a(VJerri
tp1664
a(VRinaldo
tp1665
a(VGerhardt
tp1666
a(VDimitrou
tp1667
a(VBaron
tp1668
a(VStan
tp1669
a(VSherwin
tp1670
a(VJared
tp1671
a(VAndy
tp1672
a(VHarlan
tp1673
a(VAlberto
tp1674
a(VClay
tp1675
a(VJeth
tp1676
a(VLevin
tp1677
a(VDelmar
tp1678
a(VRodolfo
tp1679
a(VBentley
tp1680
a(VRoy
tp1681
a(VJackie
tp1682
a(VMorry
tp1683
a(VRoarke
tp1684
a(VNero
tp1685
a(VSumner
tp1686
a(VOzzy
tp1687
a(VMarcello
tp1688
a(VJose
tp1689
a(VReginauld
tp1690
a(VHaleigh
tp1691
a(VCosmo
tp1692
a(VVic
tp1693
a(VSkye
tp1694
a(VHeinz
tp1695
a(VRedmond
tp1696
a(VAlex
tp1697
a(VBarnard
tp1698
a(VXavier
tp1699
a(VFrederick
tp1700
a(VAlessandro
tp1701
a(VIsaac
tp1702
a(VSpense
tp1703
a(VAlphonso
tp1704
a(VLindy
tp1705
a(VVail
tp1706
a(VNathan
tp1707
a(VYanaton
tp1708
a(VMilo
tp1709
a(VHarald
tp1710
a(VLeo
tp1711
a(VCornelius
tp1712
a(VBrent
tp1713
a(VHurley
tp1714
a(VGiffy
tp1715
a(VMerrel
tp1716
a(VClancy
tp1717
a(VUri
tp1718
a(VSilas
tp1719
a(VGustave
tp1720
a(VTobit
tp1721
a(VParsifal
tp1722
a(VDionysus
tp1723
a(VWadsworth
tp1724
a(VYves
tp1725
a(VNelsen
tp1726
a(VRoss
tp1727
a(VTulley
tp1728
a(VStanley
tp1729
a(VTuck
tp1730
a(VEdward
tp1731
a(VArmond
tp1732
a(VHarland
tp1733
a(VReilly
tp1734
a(VRolph
tp1735
a(VCurtice
tp1736
a(VShannon
tp1737
a(VDick
tp1738
a(VThibaud
tp1739
a(VIgnazio
tp1740
a(VOsmond
tp1741
a(VKincaid
tp1742
a(VJefry
tp1743
a(VMark
tp1744
a(VSlade
tp1745
a(VRodrique
tp1746
a(VHubert
tp1747
a(VBernd
tp1748
a(VSayre
tp1749
a(VGiorgi
tp1750
a(VDouglas
tp1751
a(VMarlo
tp1752
a(VEmanuel
tp1753
a(VVasilis
tp1754
a(VDirk
tp1755
a(VPierson
tp1756
a(VMerv
tp1757
a(VAndie
tp1758
a(VJessey
tp1759
a(VFerdie
tp1760
a(VCary
tp1761
a(VPhillip
tp1762
a(VClarke
tp1763
a(VTedrick
tp1764
a(VElwin
tp1765
a(VWerner
tp1766
a(VSilvano
tp1767
a(VHakeem
tp1768
a(VGrady
tp1769
a(VZackariah
tp1770
a(VPembroke
tp1771
a(VChandler
tp1772
a(VEmmott
tp1773
a(VRam
tp1774
a(VMerril
tp1775
a(VGeoffrey
tp1776
a(VPierce
tp1777
a(VWorden
tp1778
a(VHakim
tp1779
a(VRamon
tp1780
a(VLuis
tp1781
a(VGiff
tp1782
a(VThatcher
tp1783
a(VGuthry
tp1784
a(VJean-Pierre
tp1785
a(VParker
tp1786
a(VBarrett
tp1787
a(VNormand
tp1788
a(VAbdullah
tp1789
a(VSven
tp1790
a(VGarfield
tp1791
a(VTailor
tp1792
a(VEmery
tp1793
a(VEliott
tp1794
a(VDerk
tp1795
a(VAdrien
tp1796
a(VLemar
tp1797
a(VPreston
tp1798
a(VRikki
tp1799
a(VMarshal
tp1800
a(VHew
tp1801
a(VGeraldo
tp1802
a(VJohannes
tp1803
a(VMagnum
tp1804
a(VHollis
tp1805
a(VTorrey
tp1806
a(VGretchen
tp1807
a(VDurante
tp1808
a(VWade
tp1809
a(VBartie
tp1810
a(VMathias
tp1811
a(VKenton
tp1812
a(VThedrick
tp1813
a(VShepperd
tp1814
a(VRitch
tp1815
a(VXimenes
tp1816
a(VClark
tp1817
a(VChevalier
tp1818
a(VSyd
tp1819
a(VJustis
tp1820
a(VSpenser
tp1821
a(VIchabod
tp1822
a(VReed
tp1823
a(VIain
tp1824
a(VJohn
tp1825
a(VBenjy
tp1826
a(VAldus
tp1827
a(VCob
tp1828
a(VSeamus
tp1829
a(VJermain
tp1830
a(VCooper
tp1831
a(VSanderson
tp1832
a(VYancey
tp1833
a(VWye
tp1834
a(VTobias
tp1835
a(VTamas
tp1836
a(VEnrique
tp1837
a(VWaylan
tp1838
a(VNiall
tp1839
a(VArne
tp1840
a(VWaleed
tp1841
a(VStevie
tp1842
a(VMarcio
tp1843
a(VRichardo
tp1844
a(VMoore
tp1845
a(VGilberto
tp1846
a(VRusty
tp1847
a(VDamon
tp1848
a(VRayner
tp1849
a(VYale
tp1850
a(VFrazier
tp1851
a(VRobin
tp1852
a(VClare
tp1853
a(VRiley
tp1854
a(VJuergen
tp1855
a(VKelsey
tp1856
a(VOrrin
tp1857
a(VMaurits
tp1858
a(VBrodie
tp1859
a(VAloysius
tp1860
a(VLauren
tp1861
a(VRube
tp1862
a(VBryant
tp1863
a(VTowny
tp1864
a(VRodolphe
tp1865
a(VAndre
tp1866
a(VWinny
tp1867
a(VGregg
tp1868
a(VTonnie
tp1869
a(VZebedee
tp1870
a(VBarde
tp1871
a(VGodard
tp1872
a(VPatrik
tp1873
a(VNicholas
tp1874
a(VWilson
tp1875
a(VRobb
tp1876
a(VJefferey
tp1877
a(VWallace
tp1878
a(VHamlin
tp1879
a(VMichal
tp1880
a(VMattheus
tp1881
a(VDonovan
tp1882
a(VAsh
tp1883
a(VDerrol
tp1884
a(VRollo
tp1885
a(VPedro
tp1886
a(VWillard
tp1887
a(VKarl
tp1888
a(VGunter
tp1889
a(VBing
tp1890
a(VZacharias
tp1891
a(VNoe
tp1892
a(VDickey
tp1893
a(VLion
tp1894
a(VOsbert
tp1895
a(VWainwright
tp1896
a(VAdger
tp1897
a(VFlipper
tp1898
a(VErnesto
tp1899
a(VAndreas
tp1900
a(VRem
tp1901
a(VQuent
tp1902
a(VQuentin
tp1903
a(VHarold
tp1904
a(VWynton
tp1905
a(VEduard
tp1906
a(VChristopher
tp1907
a(VEustace
tp1908
a(VMatty
tp1909
a(VRodrigo
tp1910
a(VEhud
tp1911
a(VLucien
tp1912
a(VEmmanuel
tp1913
a(VEaston
tp1914
a(VAllie
tp1915
a(VBenn
tp1916
a(VBancroft
tp1917
a(VTully
tp1918
a(VThorndike
tp1919
a(VMort
tp1920
a(VVasily
tp1921
a(VArron
tp1922
a(VHussein
tp1923
a(VAnsel
tp1924
a(VAvery
tp1925
a(VKaspar
tp1926
a(VSanson
tp1927
a(VChen
tp1928
a(VSalvidor
tp1929
a(VGershom
tp1930
a(VShane
tp1931
a(VFelice
tp1932
a(VJohnathon
tp1933
a(VGerrard
tp1934
a(VHarmon
tp1935
a(VSherlock
tp1936
a(VHudson
tp1937
a(VJulian
tp1938
a(VThorstein
tp1939
a(VChrissy
tp1940
a(VLarry
tp1941
a(VVirge
tp1942
a(VHarrison
tp1943
a(VValdemar
tp1944
a(VWhitby
tp1945
a(VFrank
tp1946
a(VJacques
tp1947
a(VMichele
tp1948
a(VBuddy
tp1949
a(VAlix
tp1950
a(VVladimir
tp1951
a(VGaston
tp1952
a(VAlbrecht
tp1953
a(VClyde
tp1954
a(VDerrick
tp1955
a(VMauritz
tp1956
a(VBrandon
tp1957
a(VJulio
tp1958
a(VEsteban
tp1959
a(VAleksandrs
tp1960
a(VPrentice
tp1961
a(VJeromy
tp1962
a(VWallache
tp1963
a(VClayborn
tp1964
a(VAlfonse
tp1965
a(VDave
tp1966
a(VLukas
tp1967
a(VSteward
tp1968
a(VGerhard
tp1969
a(VMerry
tp1970
a(VDexter
tp1971
a(VConroy
tp1972
a(VSly
tp1973
a(VFelix
tp1974
a(VTrent
tp1975
a(VVernen
tp1976
a(VApollo
tp1977
a(VAbner
tp1978
a(VTrenton
tp1979
a(VDwayne
tp1980
a(VClement
tp1981
a(VStillman
tp1982
a(VPetey
tp1983
a(VWesley
tp1984
a(VIrwin
tp1985
a(VNevins
tp1986
a(VThaddus
tp1987
a(VLancelot
tp1988
a(VOssie
tp1989
a(VSherlocke
tp1990
a(VZerk
tp1991
a(VEli
tp1992
a(VQuintin
tp1993
a(VAdams
tp1994
a(VWes
tp1995
a(VSampson
tp1996
a(VThorvald
tp1997
a(VShelby
tp1998
a(VJamie
tp1999
a(VSergent
tp2000
a(VJef
tp2001
a(VLevon
tp2002
a(VWaylen
tp2003
a(VRees
tp2004
a(VRonnie
tp2005
a(VHanford
tp2006
a(VDugan
tp2007
a(VDaffy
tp2008
a(VLovell
tp2009
a(VHayes
tp2010
a(VPeyton
tp2011
a(VWilber
tp2012
a(VLars
tp2013
a(VJonathan
tp2014
a(VMoss
tp2015
a(VDoug
tp2016
a(VHillel
tp2017
a(VAgustin
tp2018
a(VXerxes
tp2019
a(VAldrich
tp2020
a(VMorris
tp2021
a(VTedd
tp2022
a(VOrren
tp2023
a(VCharlton
tp2024
a(VGian
tp2025
a(VEngelbert
tp2026
a(VSaxe
tp2027
a(VHanan
tp2028
a(VBraden
tp2029
a(VDunstan
tp2030
a(VRodolph
tp2031
a(VSteve
tp2032
a(VEwan
tp2033
a(VDevin
tp2034
a(VPascal
tp2035
a(VBerke
tp2036
a(VLeslie
tp2037
a(VMarchall
tp2038
a(VBradford
tp2039
a(VMahmoud
tp2040
a(VJimmie
tp2041
a(VGiffie
tp2042
a(VMerlin
tp2043
a(VBeau
tp2044
a(VMarshall
tp2045
a(VAdolf
tp2046
a(VTally
tp2047
a(VGunther
tp2048
a(VEphrem
tp2049
a(VChalmers
tp2050
a(VGordon
tp2051
a(VFranky
tp2052
a(VNoach
tp2053
a(VLucio
tp2054
a(VAjai
tp2055
a(VMarco
tp2056
a(VBerk
tp2057
a(VErrol
tp2058
a(VTown
tp2059
a(VArmstrong
tp2060
a(VJason
tp2061
a(VGuy
tp2062
a(VBogart
tp2063
a(VTray
tp2064
a(VAnders
tp2065
a(VWinfred
tp2066
a(VRochester
tp2067
a(VWilbur
tp2068
a(VElnar
tp2069
a(VDory
tp2070
a(VDennie
tp2071
a(VDaniel
tp2072
a(VMerle
tp2073
a(VHuntington
tp2074
a(VHank
tp2075
a(VPurcell
tp2076
a(VQuincey
tp2077
a(VPrent
tp2078
a(VFrankie
tp2079
a(VMarko
tp2080
a(VTarzan
tp2081
a(VHilary
tp2082
a(VAntonio
tp2083
a(VHansel
tp2084
a(VCorby
tp2085
a(VNichols
tp2086
a(VDiego
tp2087
a(VDionis
tp2088
a(VTerry
tp2089
a(VNicky
tp2090
a(VJodie
tp2091
a(VDyson
tp2092
a(VRoth
tp2093
a(VAnatoly
tp2094
a(VBeauregard
tp2095
a(VTeddie
tp2096
a(VDanie
tp2097
a(VHamil
tp2098
a(VEmilio
tp2099
a(VCecil
tp2100
a(VAriel
tp2101
a(VNiven
tp2102
a(VMustafa
tp2103
a(VZack
tp2104
a(VThatch
tp2105
a(VRutger
tp2106
a(VChelton
tp2107
a(VHoracio
tp2108
a(VSandor
tp2109
a(VCharleton
tp2110
a(VRalf
tp2111
a(VShumeet
tp2112
a(VAndrej
tp2113
a(VFairfax
tp2114
a(VPowell
tp2115
a(VAlonso
tp2116
a(VStephanus
tp2117
a(VSkip
tp2118
a(VThom
tp2119
a(VKane
tp2120
a(VElroy
tp2121
a(VNick
tp2122
a(VLuke
tp2123
a(VDwane
tp2124
a(VMario
tp2125
a(VJethro
tp2126
a(VHirsch
tp2127
a(VFabio
tp2128
a(VAndonis
tp2129
a(VQuinton
tp2130
a(VMatthus
tp2131
a(VNunzio
tp2132
a(VKristopher
tp2133
a(VSay
tp2134
a(VFloyd
tp2135
a(VAmadeus
tp2136
a(VOrin
tp2137
a(VDion
tp2138
a(VDillon
tp2139
a(VWylie
tp2140
a(VAron
tp2141
a(VRoddy
tp2142
a(VNewton
tp2143
a(VChauncey
tp2144
a(VFred
tp2145
a(VBurgess
tp2146
a(VGeo
tp2147
a(VClaudius
tp2148
a(VEarle
tp2149
a(VSturgis
tp2150
a(VKenyon
tp2151
a(VCasey
tp2152
a(VDean
tp2153
a(VChristof
tp2154
a(VDarius
tp2155
a(VDmitri
tp2156
a(VRandie
tp2157
a(VJosh
tp2158
a(VHercules
tp2159
a(VDelbert
tp2160
a(VTalbert
tp2161
a(VLeonardo
tp2162
a(VCleveland
tp2163
a(VDunc
tp2164
a(VVerney
tp2165
a(VWin
tp2166
a(VEzechiel
tp2167
a(VTeodoor
tp2168
a(VRemus
tp2169
a(VForester
tp2170
a(VChengkun
tp2171
a(VGiffard
tp2172
a(VCarlo
tp2173
a(VEngelbart
tp2174
a(VNevin
tp2175
a(VWilton
tp2176
a(VTitus
tp2177
a(VMelvyn
tp2178
a(VGiraud
tp2179
a(VLazare
tp2180
a(VBailey
tp2181
a(VLes
tp2182
a(VTrevor
tp2183
a(VWildon
tp2184
a(VAdolphus
tp2185
a(VKory
tp2186
a(VSim
tp2187
a(VMaynord
tp2188
a(VGarold
tp2189
a(VGabriele
tp2190
a(VUrson
tp2191
a(VOsmund
tp2192
a(VKalil
tp2193
a(VStacy
tp2194
a(VPooh
tp2195
a(VErvin
tp2196
a(VSalomon
tp2197
a(VOdin
tp2198
a(VPhip
tp2199
a(VPrince
tp2200
a(VMarten
tp2201
a(VRoscoe
tp2202
a(VHenrie
tp2203
a(VFidel
tp2204
a(VAnson
tp2205
a(VLamont
tp2206
a(VJonas
tp2207
a(VNoble
tp2208
a(VRice
tp2209
a(VAveril
tp2210
a(VWelsh
tp2211
a(VMuffin
tp2212
a(VEzekiel
tp2213
a(VVince
tp2214
a(VMarlow
tp2215
a(VBarnie
tp2216
a(VErnie
tp2217
a(VNiki
tp2218
a(VGarcon
tp2219
a(VPincas
tp2220
a(VSergei
tp2221
a(VBarton
tp2222
a(VRoddie
tp2223
a(VWallie
tp2224
a(VUlysses
tp2225
a(VBjorn
tp2226
a(VMuhammad
tp2227
a(VBriggs
tp2228
a(VDavie
tp2229
a(VWay
tp2230
a(VRegan
tp2231
a(VTod
tp2232
a(VMax
tp2233
a(VEsme
tp2234
a(VChrist
tp2235
a(VStavros
tp2236
a(VTimmy
tp2237
a(VBartlett
tp2238
a(VDesmund
tp2239
a(VTyson
tp2240
a(VNapoleon
tp2241
a(VMarkus
tp2242
a(VRay
tp2243
a(VRodger
tp2244
a(VErhard
tp2245
a(VDerron
tp2246
a(VSeymour
tp2247
a(VAmos
tp2248
a(VHolly
tp2249
a(VCornellis
tp2250
a(VAldwin
tp2251
a(VMoise
tp2252
a(VVassily
tp2253
a(VWillmott
tp2254
a(VQuintus
tp2255
a(VHerbie
tp2256
a(VSiffre
tp2257
a(VBeowulf
tp2258
a(VEnrico
tp2259
a(VRitchie
tp2260
a(VArchy
tp2261
a(VAugustus
tp2262
a(VWhit
tp2263
a(VKalvin
tp2264
a(VGeoffry
tp2265
a(VKimmo
tp2266
a(VLou
tp2267
a(VSimeon
tp2268
a(VNeron
tp2269
a(VGarret
tp2270
a(VMurdock
tp2271
a(VOsbourne
tp2272
a(VGav
tp2273
a(VPeyter
tp2274
a(VJessee
tp2275
a(VRodge
tp2276
a(VMicheal
tp2277
a(VCass
tp2278
a(VHaley
tp2279
a(VYuri
tp2280
a(VJosiah
tp2281
a(VLanny
tp2282
a(VRemington
tp2283
a(VAntonin
tp2284
a(VHiram
tp2285
a(VAmory
tp2286
a(VPincus
tp2287
a(VAugie
tp2288
a(VMordecai
tp2289
a(VTam
tp2290
a(VJudd
tp2291
a(VWaiter
tp2292
a(VGordan
tp2293
a(VOleg
tp2294
a(VHarcourt
tp2295
a(VFowler
tp2296
a(VEzra
tp2297
a(VMoe
tp2298
a(VColbert
tp2299
a(VAlastair
tp2300
a(VFritz
tp2301
a(VOthello
tp2302
a(VHarley
tp2303
a(VDarwin
tp2304
a(VTharen
tp2305
a(VDerrin
tp2306
a(VSammie
tp2307
a(VThadeus
tp2308
a(VTedmund
tp2309
a(VSonny
tp2310
a(VUdell
tp2311
a(VMitchel
tp2312
a(VAverill
tp2313
a(VHill
tp2314
a(VPiotr
tp2315
a(VForrest
tp2316
a(VBartholomew
tp2317
a(VVasili
tp2318
a(VEnder
tp2319
a(VDimitris
tp2320
a(VZach
tp2321
a(VMackenzie
tp2322
a(VAlexis
tp2323
a(VGideon
tp2324
a(VBealle
tp2325
a(VHomer
tp2326
a(VFlemming
tp2327
a(VHenrique
tp2328
a(VWestbrook
tp2329
a(VCorbin
tp2330
a(VTrey
tp2331
a(VTallie
tp2332
a(VBilly
tp2333
a(VNorthrop
tp2334
a(VDuncan
tp2335
a(VMatthaeus
tp2336
a(VObadias
tp2337
a(VAlbatros
tp2338
a(VEdouard
tp2339
a(VGilbert
tp2340
a(VGlynn
tp2341
a(VAlgernon
tp2342
a(VLouis
tp2343
a(VClinton
tp2344
a(VJuan
tp2345
a(VIago
tp2346
a(VRutherford
tp2347
a(VBengt
tp2348
a(VJob
tp2349
a(VBucky
tp2350
a(VSheff
tp2351
a(VTybalt
tp2352
a(VAlfonzo
tp2353
a(VRocky
tp2354
a(VReid
tp2355
a(VBarnett
tp2356
a(VBartel
tp2357
a(VBruno
tp2358
a(VPinchas
tp2359
a(VArlo
tp2360
a(VEliot
tp2361
a(VOwen
tp2362
a(VBenjamen
tp2363
a(VTomlin
tp2364
a(VMonty
tp2365
a(VMilton
tp2366
a(VHermann
tp2367
a(VHersh
tp2368
a(VAlonzo
tp2369
a(VRodney
tp2370
a(VHammad
tp2371
a(VWilbert
tp2372
a(VBarret
tp2373
a(VNorm
tp2374
a(VWaverley
tp2375
a(VWoochang
tp2376
a(VWiley
tp2377
a(VBroderick
tp2378
a(VLuce
tp2379
a(VScotty
tp2380
a(VChadd
tp2381
a(VNikos
tp2382
a(VCorky
tp2383
a(VSawyere
tp2384
a(VStephan
tp2385
a(VTruman
tp2386
a(VWaverly
tp2387
a(VSebastien
tp2388
a(VEr
tp2389
a(VBrinkley
tp2390
a(VTimmie
tp2391
a(VJohnny
tp2392
a(VFriedrick
tp2393
a(VMitchael
tp2394
a(VGavriel
tp2395
a(VShaughn
tp2396
a(VGiuseppe
tp2397
a(VFonz
tp2398
a(VSaundra
tp2399
a(VFrancesco
tp2400
a(VBaird
tp2401
a(VAdrick
tp2402
a(VClemente
tp2403
a(VFulton
tp2404
a(VRenaldo
tp2405
a(VShayne
tp2406
a(VDurant
tp2407
a(VKeil
tp2408
a(VLawson
tp2409
a(VWilhelm
tp2410
a(VLaurie
tp2411
a(VShaine
tp2412
a(VVaclav
tp2413
a(VKelley
tp2414
a(VChristiano
tp2415
a(VSilvan
tp2416
a(VReynolds
tp2417
a(VSaunders
tp2418
a(VRoger
tp2419
a(VSherwynd
tp2420
a(VCyril
tp2421
a(VSaunder
tp2422
a(VYigal
tp2423
a(VHiralal
tp2424
a(VShaw
tp2425
a(VGus
tp2426
a(VPlato
tp2427
a(VDryke
tp2428
a(VIgnatius
tp2429
a(VLefty
tp2430
a(VTabbie
tp2431
a(VUdale
tp2432
a(VHillard
tp2433
a(VNelson
tp2434
a(VJed
tp2435
a(VRichie
tp2436
a(VJock
tp2437
a(VGeorgie
tp2438
a(VShurlock
tp2439
a(VNoland
tp2440
a(VSonnie
tp2441
a(VWolfy
tp2442
a(VNigel
tp2443
a(VDavid
tp2444
a(VVincent
tp2445
a(VAguste
tp2446
a(VWendell
tp2447
a(VZared
tp2448
a(VXimenez
tp2449
a(VAhmet
tp2450
a(VAusten
tp2451
a(VHorst
tp2452
a(VXever
tp2453
a(VZebulon
tp2454
a(VPavel
tp2455
a(VIsrael
tp2456
a(VIggie
tp2457
a(VMeyer
tp2458
a(VTanner
tp2459
a(VAugustin
tp2460
a(VBertie
tp2461
a(VHyatt
tp2462
a(VSkipp
tp2463
a(VSheppard
tp2464
a(VRomain
tp2465
a(VHernando
tp2466
a(VRuss
tp2467
a(VSherwood
tp2468
a(VGarfinkel
tp2469
a(VJean-Lou
tp2470
a(VLudwig
tp2471
a(VSax
tp2472
a(VEduardo
tp2473
a(VDon
tp2474
a(VKeene
tp2475
a(VPace
tp2476
a(VAshby
tp2477
a(VMervin
tp2478
a(VMendie
tp2479
a(VDeryl
tp2480
a(VConstantine
tp2481
a(VMarilu
tp2482
a(VChrisy
tp2483
a(VAnselm
tp2484
a(VJervis
tp2485
a(VLlewellyn
tp2486
a(VUriah
tp2487
a(VJarrett
tp2488
a(VLevi
tp2489
a(VNels
tp2490
a(VWallas
tp2491
a(VLex
tp2492
a(VMunmro
tp2493
a(VRahul
tp2494
a(VGeorgia
tp2495
a(VHal
tp2496
a(VAlbert
tp2497
a(VMatthieu
tp2498
a(VEverard
tp2499
a(VDrew
tp2500
a(VRandall
tp2501
a(VDel
tp2502
a(VSon
tp2503
a(VTan
tp2504
a(VAdnan
tp2505
a(VTaylor
tp2506
a(VGibb
tp2507
a(VAleck
tp2508
a(VAlford
tp2509
a(VFerd
tp2510
a(VHoratio
tp2511
a(VCarlos
tp2512
a(VGarwin
tp2513
a(VCarey
tp2514
a(VWebster
tp2515
a(VKin
tp2516
a(VIzzy
tp2517
a(VSpud
tp2518
a(VElwyn
tp2519
a(VMarven
tp2520
a(VHarrold
tp2521
a(VPorter
tp2522
a(VZorro
tp2523
a(VPoul
tp2524
a(VSalvador
tp2525
a(VRuben
tp2526
a(VTabor
tp2527
a(VMahmud
tp2528
a(VShepherd
tp2529
a(VPrentiss
tp2530
a(VAndrey
tp2531
a(VJoao
tp2532
a(VBiff
tp2533
a(VJames
tp2534
a(VThornton
tp2535
a(VJerzy
tp2536
a(VMontague
tp2537
a(VMoshe
tp2538
a(VKelly
tp2539
a(VCollins
tp2540
a(VMaximilien
tp2541
a(VBard
tp2542
a(VHershel
tp2543
a(VNestor
tp2544
a(VTrip
tp2545
a(VNathaniel
tp2546
a(VMichel
tp2547
a(VFlint
tp2548
a(VJimbo
tp2549
a(VVenkat
tp2550
a(VNorthrup
tp2551
a(VErick
tp2552
a(VMarcelo
tp2553
a(VGiancarlo
tp2554
a(VSalmon
tp2555
a(VBartolomei
tp2556
a(VMaddy
tp2557
a(VGill
tp2558
a(VIsaiah
tp2559
a(VStanfield
tp2560
a(VPryce
tp2561
a(VGabriel
tp2562
a(VLeroy
tp2563
a(VBartholomeus
tp2564
a(VVachel
tp2565
a(VChaim
tp2566
a(VBurt
tp2567
a(VDru
tp2568
a(VConway
tp2569
a(VDonald
tp2570
a(VIke
tp2571
a(VEdie
tp2572
a(VRavi
tp2573
a(VEthelbert
tp2574
a(VBradly
tp2575
a(VSivert
tp2576
a(VTorrance
tp2577
a(VDavon
tp2578
a(VJan
tp2579
a(VZeus
tp2580
a(VToby
tp2581
a(VJerold
tp2582
a(VChester
tp2583
a(VDouglis
tp2584
a(VLockwood
tp2585
a(VGershon
tp2586
a(VTremaine
tp2587
a(VHy
tp2588
a(VKenny
tp2589
a(VMarcos
tp2590
a(VAllyn
tp2591
a(VBrody
tp2592
a(VAlton
tp2593
a(VIgnaz
tp2594
a(VTorrin
tp2595
a(VHaskell
tp2596
a(VMick
tp2597
a(VTommy
tp2598
a(VDustin
tp2599
a(VPete
tp2600
a(VTann
tp2601
a(VWilldon
tp2602
a(VSilvanus
tp2603
a(VAubert
tp2604
a(VYancy
tp2605
a(VLind
tp2606
a(VCharles
tp2607
a(VWayland
tp2608
a(VBrett
tp2609
a(VJefferson
tp2610
a(VDaryle
tp2611
a(VAntin
tp2612
a(VDannie
tp2613
a(VLinus
tp2614
a(VVite
tp2615
a(VAlexander
tp2616
a(VJoel
tp2617
a(VSinclair
tp2618
a(VIgor
tp2619
a(VScott
tp2620
a(VBarty
tp2621
a(VAldis
tp2622
a(VMartino
tp2623
a(VBerkie
tp2624
a(VWeb
tp2625
a(VRuperto
tp2626
a(VBjorne
tp2627
a(VRafael
tp2628
a(VStew
tp2629
a(VPerry
tp2630
a(VMerrill
tp2631
a(VQuincy
tp2632
a(VCarson
tp2633
a(VGere
tp2634
a(VRaul
tp2635
a(VAlley
tp2636
a(VRicardo
tp2637
a(VRuddy
tp2638
a(VRafe
tp2639
a(VWinfield
tp2640
a(VSheffy
tp2641
a(VWinslow
tp2642
a(VLuigi
tp2643
a(VJorge
tp2644
a(VWarren
tp2645
a(VAdolphe
tp2646
a(VMerrick
tp2647
a(VMikey
tp2648
a(VJean
tp2649
a(VFerinand
tp2650
a(VSigmund
tp2651
a(VSander
tp2652
a(VHerschel
tp2653
a(VReg
tp2654
a(VUlrick
tp2655
a(VJordy
tp2656
a(VFlinn
tp2657
a(VTheodor
tp2658
a(VOtis
tp2659
a(VJennings
tp2660
a(VGuthrey
tp2661
a(VRaymundo
tp2662
a(VErhart
tp2663
a(VWaldon
tp2664
a(VHaven
tp2665
a(VHiro
tp2666
a(VSmith
tp2667
a(VEwart
tp2668
a(VDieter
tp2669
a(VDwain
tp2670
a(VBoyd
tp2671
a(VVassili
tp2672
a(VCorrie
tp2673
a(VDougie
tp2674
a(VYance
tp2675
a(VWalsh
tp2676
a(VSkipper
tp2677
a(VWilburt
tp2678
a(VGeorgy
tp2679
a(VDonnie
tp2680
a(VLonnie
tp2681
a(VRichmond
tp2682
a(VHazel
tp2683
a(VRogers
tp2684
a(VTymothy
tp2685
a(VMikhail
tp2686
a(VEvan
tp2687
a(VMarcel
tp2688
a(VTadd
tp2689
a(VHebert
tp2690
a(VFederico
tp2691
a(VCyrill
tp2692
a(VShelley
tp2693
a(VStaford
tp2694
a(VValentin
tp2695
a(VShelden
tp2696
a(VGarvin
tp2697
a(VMic
tp2698
a(VWilliam
tp2699
a(VHillary
tp2700
a(VTorin
tp2701
a(VCat
tp2702
a(VAbbot
tp2703
a(VRansom
tp2704
a(VAndrzej
tp2705
a(VDov
tp2706
a(VGayle
tp2707
a(VTaddeo
tp2708
a(VEmil
tp2709
a(VMitch
tp2710
a(VJohnathan
tp2711
a(VStefano
tp2712
a(VBayard
tp2713
a(VBogdan
tp2714
a(VMaxfield
tp2715
a(VDanny
tp2716
a(VAnsell
tp2717
a(VMaxie
tp2718
a(VNickey
tp2719
a(VMartyn
tp2720
a(VNealon
tp2721
a(VNilson
tp2722
a(VFredric
tp2723
a(VGeorg
tp2724
a(VBarnabas
tp2725
a(VNev
tp2726
a(VSelig
tp2727
a(VJake
tp2728
a(VBerchtold
tp2729
a(VMel
tp2730
a(VLindsay
tp2731
a(VHam
tp2732
a(VEfram
tp2733
a(VHerrick
tp2734
a(VHillery
tp2735
a(VArchie
tp2736
a(VAdolpho
tp2737
a(VEric
tp2738
a(VClaude
tp2739
a(VAngus
tp2740
a(VCammy
tp2741
a(VStaffard
tp2742
a(VScottie
tp2743
a(VDonny
tp2744
a(VPrescott
tp2745
a(VKim
tp2746
a(VTerrell
tp2747
a(VBlake
tp2748
a(VRustin
tp2749
a(VWaine
tp2750
a(VCarlie
tp2751
a(VPat
tp2752
a(VBuster
tp2753
a(VWill
tp2754
a(VSkelly
tp2755
a(VHilliard
tp2756
a(VAntone
tp2757
a(VAdlai
tp2758
a(VVaughn
tp2759
a(VNormie
tp2760
a(VWoodman
tp2761
a(VRandell
tp2762
a(VRoyal
tp2763
a(VAharon
tp2764
a(VLoren
tp2765
a(VZak
tp2766
a(VTalbot
tp2767
a(VSheffield
tp2768
a(VBeck
tp2769
a(VManny
tp2770
a(VTull
tp2771
a(VRoosevelt
tp2772
a(VMarion
tp2773
a(VSebastian
tp2774
a(VNeddy
tp2775
a(VThacher
tp2776
a(VMarvin
tp2777
a(VAbe
tp2778
a(VJerrie
tp2779
a(VErich
tp2780
a(VOrion
tp2781
a(VMathew
tp2782
a(VWheeler
tp2783
a(VZacharie
tp2784
a(VRenault
tp2785
a(VBoyce
tp2786
a(VVilhelm
tp2787
a(VIsa
tp2788
a(VLenard
tp2789
a(VRic
tp2790
a(VDaren
tp2791
a(VMarius
tp2792
a(VArel
tp2793
a(VJeremiah
tp2794
a(VChad
tp2795
a(VAaron
tp2796
a(VThurston
tp2797
a(VPyotr
tp2798
a(VYacov
tp2799
a(VLynn
tp2800
a(VRudolf
tp2801
a(VMaximilian
tp2802
a(VHadleigh
tp2803
a(VLangston
tp2804
a(VWard
tp2805
a(VDana
tp2806
a(VBenson
tp2807
a(VArvy
tp2808
a(VGiles
tp2809
a(VMichael
tp2810
a(VEddie
tp2811
a(VHadley
tp2812
a(VJody
tp2813
a(VHewitt
tp2814
a(VFerguson
tp2815
a(VManfred
tp2816
a(VAntony
tp2817
a(VBatholomew
tp2818
a(VFazeel
tp2819
a(VSerge
tp2820
a(VAldo
tp2821
a(VStu
tp2822
a(VClifton
tp2823
a(VJesus
tp2824
a(VClaudio
tp2825
a(VHarvie
tp2826
a(VOmar
tp2827
a(VCobb
tp2828
a(VTate
tp2829
a(VOrbadiah
tp2830
a(VTrevar
tp2831
a(VChase
tp2832
a(VHelmuth
tp2833
a(VSimone
tp2834
a(VDarrel
tp2835
a(VCalvin
tp2836
a(VAylmer
tp2837
a(VSalem
tp2838
a(VGoran
tp2839
a(VAvram
tp2840
a(VLev
tp2841
a(VApostolos
tp2842
a(VFinn
tp2843
a(VBartholomeo
tp2844
a(VGeof
tp2845
a(VHector
tp2846
a(VPhilip
tp2847
a(VGlenn
tp2848
a(VWarden
tp2849
a(VMeir
tp2850
a(VJabez
tp2851
a(VConstantinos
tp2852
a(VTaddeus
tp2853
a(VTorrence
tp2854
a(VWang
tp2855
a(VRutter
tp2856
a(VJohnnie
tp2857
a(VSylvan
tp2858
a(VHermon
tp2859
a(VDrake
tp2860
a(VJudson
tp2861
a(VFilip
tp2862
a(VWhitney
tp2863
a(VGregorio
tp2864
a(VHeywood
tp2865
a(VThad
tp2866
a(VAhmed
tp2867
a(VSullivan
tp2868
a(VRed
tp2869
a(VMorrie
tp2870
a(VParrnell
tp2871
a(VGonzalo
tp2872
a(VTomkin
tp2873
a(VChris
tp2874
a(VRoland
tp2875
a(VRomeo
tp2876
a(VKarim
tp2877
a(VAlfred
tp2878
a(VElbert
tp2879
a(VFrancisco
tp2880
a(VCharlie
tp2881
a(VBrook
tp2882
a(VBarr
tp2883
a(VSkippy
tp2884
a(VDimitry
tp2885
a(VWojciech
tp2886
a(VDouggie
tp2887
a(VKingsley
tp2888
a(VMiles
tp2889
a(VWorth
tp2890
a(VKlaus
tp2891
a(VIgnace
tp2892
a(VWolfram
tp2893
a(VGardiner
tp2894
a(VJohn-David
tp2895
a(VRufe
tp2896
a(VWelch
tp2897
a(VSilvester
tp2898
a(VTracey
tp2899
a(VKimball
tp2900
a(VSee
tp2901
a(VLevy
tp2902
a(VLaurance
tp2903
a(VJedediah
tp2904
a(VJerrome
tp2905
a(VHoyt
tp2906
a(VJohn-Patrick
tp2907
a(VBaillie
tp2908
a(VSloan
tp2909
a(VLazlo
tp2910
a(VPuff
tp2911
a(VRutledge
tp2912
a(VKeefe
tp2913
a(VGardener
tp2914
a(VZedekiah
tp2915
a(VCortese
tp2916
a(VBroddy
tp2917
a(VCurt
tp2918
a(VGermaine
tp2919
a(VPiggy
tp2920
a(VTobie
tp2921
a(VMack
tp2922
a(VMorty
tp2923
a(VBertrand
tp2924
a(VHeinrich
tp2925
a(VDominique
tp2926
a(VAbelard
tp2927
a(VBernardo
tp2928
a(VTheobald
tp2929
a(VShepard
tp2930
a(VKlee
tp2931
a(VTiebold
tp2932
a(VEldon
tp2933
a(VJanos
tp2934
a(VMarlin
tp2935
a(VGriff
tp2936
a(VNatale
tp2937
a(VCreighton
tp2938
a(VBenito
tp2939
a(VEmmery
tp2940
a(VClaus
tp2941
a(VHan
tp2942
a(VLenny
tp2943
a(VPasquale
tp2944
a(VTommie
tp2945
a(VGiordano
tp2946
a(VMyron
tp2947
atRp2948
.