c__builtin__
set
p1
((lp2
(S'Motswana'
tp3
a(S'Portuguese'
tp4
a(S'Indonesian'
tp5
a(S'Belizean'
tp6
a(S'Albanian'
tp7
a(S'Samoan'
tp8
a(S'Cape'
S'Verdean'
tp9
a(S'Sudanese'
tp10
a(S'Slovakian'
tp11
a(S'Tajik'
tp12
a(S'Palauan'
tp13
a(S'Bruneian'
tp14
a(S'Icelander'
tp15
a(S'Yemenite'
tp16
a(S'German'
tp17
a(S'South'
S'African'
tp18
a(S'Luxembourger'
tp19
a(S'Batswana'
tp20
a(S'Barbadian'
tp21
a(S'Salvadoran'
tp22
a(S'Antiguans'
tp23
a(S'Maltese'
tp24
a(S'Qatari'
tp25
a(S'Liechtensteiner'
tp26
a(S'Nicaraguan'
tp27
a(S'Surinamer'
tp28
a(S'Tongan'
tp29
a(S'Omani'
tp30
a(S'Equatorial'
S'Guinean'
tp31
a(S'Macedonian'
tp32
a(S'Ukrainian'
tp33
a(S'Chinese'
tp34
a(S'Eritrean'
tp35
a(S'Angolan'
tp36
a(S'Lebanese'
tp37
a(S'Welsh'
tp38
a(S'East'
S'Timorese'
tp39
a(S'Tunisian'
tp40
a(S'Zambian'
tp41
a(S'Bahraini'
tp42
a(S'Guatemalan'
tp43
a(S'Latvian'
tp44
a(S'Libyan'
tp45
a(S'Dutch'
tp46
a(S'Bulgarian'
tp47
a(S'Gabonese'
tp48
a(S'Ivorian'
tp49
a(S'Hungarian'
tp50
a(S'Djibouti'
tp51
a(S'Fijian'
tp52
a(S'Kyrgyz'
tp53
a(S'Dutchman'
tp54
a(S'Zimbabwean'
tp55
a(S'Paraguayan'
tp56
a(S'Kuwaiti'
tp57
a(S'Mauritian'
tp58
a(S'Mauritanian'
tp59
a(S'Croatian'
tp60
a(S'Dutchwoman'
tp61
a(S'Trinidadian'
S'or'
S'Tobagonian'
tp62
a(S'Vietnamese'
tp63
a(S'Russian'
tp64
a(S'Moroccan'
tp65
a(S'Irish'
tp66
a(S'Swazi'
tp67
a(S'Mexican'
tp68
a(S'Iranian'
tp69
a(S'Nigerian'
tp70
a(S'Slovenian'
tp71
a(S'Netherlander'
tp72
a(S'Laotian'
tp73
a(S'Congolese'
tp74
a(S'Cambodian'
tp75
a(S'Malawian'
tp76
a(S'Saint'
S'Lucian'
tp77
a(S'Nepalese'
tp78
a(S'Japanese'
tp79
a(S'Nauruan'
tp80
a(S'Emirian'
tp81
a(S'Guinean'
tp82
a(S'Malagasy'
tp83
a(S'Dominican'
tp84
a(S'I-Kiribati'
tp85
a(S'American'
tp86
a(S'Nigerien'
tp87
a(S'Senegalese'
tp88
a(S'Czech'
tp89
a(S'Brazilian'
tp90
a(S'Haitian'
tp91
a(S'Uzbekistani'
tp92
a(S'Andorran'
tp93
a(S'Romanian'
tp94
a(S'Ghanaian'
tp95
a(S'San'
S'Marinese'
tp96
a(S'Comoran'
tp97
a(S'Bangladeshi'
tp98
a(S'Australian'
tp99
a(S'Armenian'
tp100
a(S'Kazakhstani'
tp101
a(S'Kenyan'
tp102
a(S'Panamanian'
tp103
a(S'Bosnian'
tp104
a(S'Gambian'
tp105
a(S'Italian'
tp106
a(S'Somali'
tp107
a(S'Central'
S'African'
tp108
a(S'Finnish'
tp109
a(S'Greek'
tp110
a(S'Taiwanese'
tp111
a(S'Seychellois'
tp112
a(S'Liberian'
tp113
a(S'Austrian'
tp114
a(S'Filipino'
tp115
a(S'Malian'
tp116
a(S'Rwandan'
tp117
a(S'Tanzanian'
tp118
a(S'Serbian'
tp119
a(S'Tuvaluan'
tp120
a(S'Mozambican'
tp121
a(S'Namibian'
tp122
a(S'Uruguayan'
tp123
a(S'Cameroonian'
tp124
a(S'Turkish'
tp125
a(S'Ecuadorean'
tp126
a(S'Swedish'
tp127
a(S'Guinea-Bissauan'
tp128
a(S'Bolivian'
tp129
a(S'Jordanian'
tp130
a(S'Mongolian'
tp131
a(S'Bhutanese'
tp132
a(S'Venezuelan'
tp133
a(S'Chilean'
tp134
a(S'Spanish'
tp135
a(S'Israeli'
tp136
a(S'Costa'
S'Rican'
tp137
a(S'Algerian'
tp138
a(S'Polish'
tp139
a(S'Iraqi'
tp140
a(S'Canadian'
tp141
a(S'Burmese'
tp142
a(S'French'
tp143
a(S'Ugandan'
tp144
a(S'Afghan'
tp145
a(S'Syrian'
tp146
a(S'Azerbaijani'
tp147
a(S'Maldivan'
tp148
a(S'Scottish'
tp149
a(S'Guyanese'
tp150
a(S'Ni-Vanuatu'
tp151
a(S'Sierra'
S'Leonean'
tp152
a(S'North'
S'Korean'
tp153
a(S'Cypriot'
tp154
a(S'Norwegian'
tp155
a(S'Malaysian'
tp156
a(S'Kittian'
S'and'
S'Nevisian'
tp157
a(S'Chadian'
tp158
a(S'British'
tp159
a(S'New'
S'Zealander'
tp160
a(S'Burkinabe'
tp161
a(S'Cuban'
tp162
a(S'Peruvian'
tp163
a(S'Sri'
S'Lankan'
tp164
a(S'Estonian'
tp165
a(S'Northern'
S'Irish'
tp166
a(S'Lithuanian'
tp167
a(S'Ethiopian'
tp168
a(S'Danish'
tp169
a(S'Belarusian'
tp170
a(S'Honduran'
tp171
a(S'Thai'
tp172
a(S'Saudi'
tp173
a(S'South'
S'Korean'
tp174
a(S'Beninese'
tp175
a(S'Barbudans'
tp176
a(S'Bahamian'
tp177
a(S'Moldovan'
tp178
a(S'Argentinean'
tp179
a(S'Singaporean'
tp180
a(S'Monacan'
tp181
a(S'Swiss'
tp182
a(S'Burundian'
tp183
a(S'Grenadian'
tp184
a(S'Papua'
S'New'
S'Guinean'
tp185
a(S'Marshallese'
tp186
a(S'Pakistani'
tp187
a(S'Solomon'
S'Islander'
tp188
a(S'Colombian'
tp189
a(S'Herzegovinian'
tp190
a(S'Mosotho'
tp191
a(S'Micronesian'
tp192
a(S'Belgian'
tp193
a(S'Georgian'
tp194
a(S'Sao'
S'Tomean'
tp195
a(S'Egyptian'
tp196
a(S'Togolese'
tp197
a(S'Indian'
tp198
a(S'Jamaican'
tp199
atRp200
.