c__builtin__
set
p1
((lp2
V['Guinea-Bissauan']
p3
aV['Djibouti']
p4
aV['Dutch']
p5
aV['Barbadian']
p6
aV['Indonesian']
p7
aV['Fijian']
p8
aV['Swazi']
p9
aV['Brazilian']
p10
aV['Algerian']
p11
aV['South', 'Korean']
p12
aV['Gambian']
p13
aV['Senegalese']
p14
aV['Libyan']
p15
aV['Afghan']
p16
aV['Pakistani']
p17
aV['Nicaraguan']
p18
aV['Tongan']
p19
aV['Moroccan']
p20
aV['Moldovan']
p21
aV['Estonian']
p22
aV['Grenadian']
p23
aV['Lithuanian']
p24
aV['Monacan']
p25
aV['Finnish']
p26
aV['Macedonian']
p27
aV['Surinamer']
p28
aV['Angolan']
p29
aV['Kittian', 'and', 'Nevisian']
p30
aV['Croatian']
p31
aV['Ukrainian']
p32
aV['Malaysian']
p33
aV['Scottish']
p34
aV['Lebanese']
p35
aV['Gabonese']
p36
aV['Namibian']
p37
aV['Spanish']
p38
aV['Comoran']
p39
aV['North', 'Korean']
p40
aV['Nauruan']
p41
aV['Cameroonian']
p42
aV['Zimbabwean']
p43
aV['Malagasy']
p44
aV['Somali']
p45
aV['Japanese']
p46
aV['Tuvaluan']
p47
aV['Panamanian']
p48
aV['Maltese']
p49
aV['Portuguese']
p50
aV['Filipino']
p51
aV['Palauan']
p52
aV['Welsh']
p53
aV['Cambodian']
p54
aV['Haitian']
p55
aV['Mosotho']
p56
aV['Dutchman']
p57
aV['Guatemalan']
p58
aV['Indian']
p59
aV['Ethiopian']
p60
aV['Honduran']
p61
aV['Syrian']
p62
aV['Chilean']
p63
aV['Marshallese']
p64
aV['Chadian']
p65
aV['Samoan']
p66
aV['Romanian']
p67
aV['Uruguayan']
p68
aV['German']
p69
aV['Mauritian']
p70
aV['Motswana']
p71
aV['Ugandan']
p72
aV['Icelander']
p73
aV['Russian']
p74
aV['Trinidadian', 'or', 'Tobagonian']
p75
aV['Togolese']
p76
aV['Bahamian']
p77
aV['Guinean']
p78
aV['Ecuadorean']
p79
aV['Bruneian']
p80
aV['Seychellois']
p81
aV['Bahraini']
p82
aV['Iraqi']
p83
aV['Malawian']
p84
aV['Austrian']
p85
aV['British']
p86
aV['Mauritanian']
p87
aV['Cypriot']
p88
aV['Ni-Vanuatu']
p89
aV['Central', 'African']
p90
aV['French']
p91
aV['San', 'Marinese']
p92
aV['Congolese']
p93
aV['East', 'Timorese']
p94
aV['Mozambican']
p95
aV['Bulgarian']
p96
aV['Omani']
p97
aV['Dutchwoman']
p98
aV['Tunisian']
p99
aV['Irish']
p100
aV['Kyrgyz']
p101
aV['Jordanian']
p102
aV['Azerbaijani']
p103
aV['Colombian']
p104
aV['Nigerien']
p105
aV['Georgian']
p106
aV['Sudanese']
p107
aV['Kenyan']
p108
aV['Danish']
p109
aV['Hungarian']
p110
aV['Solomon', 'Islander']
p111
aV['Bangladeshi']
p112
aV['Mexican']
p113
aV['Equatorial', 'Guinean']
p114
aV['Iranian']
p115
aV['Liechtensteiner']
p116
aV['Tajik']
p117
aV['Polish']
p118
aV['Laotian']
p119
aV['Slovenian']
p120
aV['Paraguayan']
p121
aV['Beninese']
p122
aV['Norwegian']
p123
aV['Cuban']
p124
aV['Dominican']
p125
aV['Albanian']
p126
aV['Kuwaiti']
p127
aV['Burkinabe']
p128
aV['Argentinean']
p129
aV['Australian']
p130
aV['Batswana']
p131
aV['Swiss']
p132
aV['Guyanese']
p133
aV['Northern', 'Irish']
p134
aV['Greek']
p135
aV['Singaporean']
p136
aV['Sao', 'Tomean']
p137
aV['Taiwanese']
p138
aV['Czech']
p139
aV['Ivorian']
p140
aV['Qatari']
p141
aV['Saint', 'Lucian']
p142
aV['Peruvian']
p143
aV['Saudi']
p144
aV['Malian']
p145
aV['South', 'African']
p146
aV['Rwandan']
p147
aV['Canadian']
p148
aV['Salvadoran']
p149
aV['Sri', 'Lankan']
p150
aV['I-Kiribati']
p151
aV['Serbian']
p152
aV['Liberian']
p153
aV['Chinese']
p154
aV['Belarusian']
p155
aV['Sierra', 'Leonean']
p156
aV['Slovakian']
p157
aV['Venezuelan']
p158
aV['American']
p159
aV['Turkish']
p160
aV['Luxembourger']
p161
aV['Egyptian']
p162
aV['Tanzanian']
p163
aV['Kazakhstani']
p164
aV['Belizean']
p165
aV['Antiguans']
p166
aV['Micronesian']
p167
aV['Bhutanese']
p168
aV['Italian']
p169
aV['Yemenite']
p170
aV['Bosnian']
p171
aV['Swedish']
p172
aV['Barbudans']
p173
aV['Israeli']
p174
aV['Andorran']
p175
aV['Burundian']
p176
aV['Belgian']
p177
aV['Bolivian']
p178
aV['Nigerian']
p179
aV['Nepalese']
p180
aV['Zambian']
p181
aV['Thai']
p182
aV['Cape', 'Verdean']
p183
aV['Eritrean']
p184
aV['New', 'Zealander']
p185
aV['Mongolian']
p186
aV['Netherlander']
p187
aV['Ghanaian']
p188
aV['Armenian']
p189
aV['Uzbekistani']
p190
aV['Latvian']
p191
aV['Herzegovinian']
p192
aV['Burmese']
p193
aV['Maldivan']
p194
aV['Jamaican']
p195
aV['Costa', 'Rican']
p196
aV['Vietnamese']
p197
aV['Papua', 'New', 'Guinean']
p198
aV['Emirian']
p199
atRp200
.