c__builtin__
set
p1
((lp2
V
aVlimited
p3
aVsuicidal
p4
aVcussed
p5
aVinterference
p6
aVdissolution
p7
aVrefutes
p8
aVfoul
p9
aVobstruction
p10
aVprotest
p11
aVslogs
p12
aVastray
p13
aVcontroversial
p14
aVhating
p15
aVhate
p16
aVinexpert
p17
aVaggression
p18
aVpoorly
p19
aVstinks
p20
aVoffenses
p21
aVunfeeling
p22
aVhaters
p23
aVasinininity
p24
aVviolate
p25
aVrupture
p26
aVexcoriate
p27
aVinhospitality
p28
aVvenom
p29
aVunreliable
p30
aVsuperficially
p31
aVunbearablely
p32
aVlorn
p33
aVfatcat
p34
aVdaze
p35
aVoffending
p36
aVsputter
p37
aVimmature
p38
aVbulkier
p39
aVregrets
p40
aVdivergent
p41
aVsinking
p42
aVslow-moving
p43
aVlure
p44
aVblistering
p45
aVrisk
p46
aVappal
p47
aVdestitution
p48
aVdespondency
p49
aVlurk
p50
aVmisunderstanding
p51
aVdistort
p52
aVsplitting
p53
aVmanic
p54
aVsmack
p55
aVbefoul
p56
aVweariness
p57
aVdespondence
p58
aVgrumpier
p59
aVirksomely
p60
aVanemic
p61
aVdeplorably
p62
aVdisturb
p63
aVbewildered
p64
aVexaggerate
p65
aVpinch
p66
aVharried
p67
aVtarnishing
p68
aVrelentlessly
p69
aVtimidness
p70
aVunconvincingly
p71
aVbrutish
p72
aVirrationally
p73
aVdeter
p74
aVstereotypical
p75
aVinaction
p76
aVdeplorable
p77
aVforged
p78
aVoverdo
p79
aVmonotonous
p80
aVtired
p81
aVblasphemy
p82
aVmirage
p83
aVdepraved
p84
aVrusty
p85
aVlouder
p86
aVblaspheme
p87
aVrusts
p88
aVsubordinate
p89
aVemptiness
p90
aVloathing
p91
aVhaughtily
p92
aVdecadence
p93
aVpander
p94
aVgawky
p95
aVerrors
p96
aVsidetrack
p97
aVinelegance
p98
aVincompatible
p99
aVruthless
p100
aVhatefully
p101
aVhazy
p102
aVdecry
p103
aVinsinuate
p104
aVmischievous
p105
aVbrashly
p106
aVblur
p107
aVugliest
p108
aVsecond-tier
p109
aVreluctant
p110
aVstooges
p111
aVharbors
p112
aVmiserably
p113
aVinsinuation
p114
aVprate
p115
aVrepugnance
p116
aVultimatums
p117
aVdeadbeat
p118
aVweirdly
p119
aVunseemly
p120
aVthrash
p121
aVsmuttiest
p122
aVgreedy
p123
aVfissures
p124
aVshortness
p125
aVshriek
p126
aVmordant
p127
aVbullyingly
p128
aVdoldrums
p129
aVrevengefully
p130
aVanarchism
p131
aVover-priced
p132
aVinefficiently
p133
aVhideously
p134
aVridicule
p135
aVunfriendly
p136
aVfoolishness
p137
aVcontroversy
p138
aVharass
p139
aVunkindly
p140
aVsmoke
p141
aVinsensitively
p142
aVlonesome
p143
aVcomplicated
p144
aVanarchist
p145
aVspotty
p146
aVmenial
p147
aVfrigging
p148
aVcriticism
p149
aVenvious
p150
aVpoorest
p151
aVplea
p152
aVdiscontinuous
p153
aVscold
p154
aVloveless
p155
aVdehumanize
p156
aVangrily
p157
aVmawkishness
p158
aVinequitably
p159
aVgaffe
p160
aVcheats
p161
aVridicules
p162
aVstern
p163
aVscarier
p164
aVdevastation
p165
aVundesirable
p166
aVcheating
p167
aVoverheat
p168
aVunfunded
p169
aVinsecurity
p170
aVdetesting
p171
aVexhort
p172
aVnegative
p173
aVcannibal
p174
aVinsult
p175
aVleaks
p176
aVagonies
p177
aVunfortunately
p178
aVincautious
p179
aVtorment
p180
aVleaky
p181
aVagonizingly
p182
aVperilously
p183
aVrankle
p184
aVplagiarize
p185
aVblather
p186
aVbugs
p187
aVbarbarous
p188
aVwary
p189
aVdetracts
p190
aVobtrusive
p191
aVnaive
p192
aVsnarky
p193
aVphony
p194
aVwarp
p195
aVhurt
p196
aVgrief
p197
aVdisruption
p198
aVsobering
p199
aVfrenzy
p200
aVqualm
p201
aVdiatribes
p202
aVunraveled
p203
aVadamant
p204
aVexhorbitant
p205
aVoverrun
p206
aVirksome
p207
aVconfound
p208
aVfunnily
p209
aVerr
p210
aVtaunts
p211
aVaggrivation
p212
aVsomber
p213
aVrefusing
p214
aVworn
p215
aVdeficiencies
p216
aVcriticizing
p217
aVdisdain
p218
aVquarrel
p219
aVdefile
p220
aVcompulsive
p221
aVpollute
p222
aVwane
p223
aVdeadweight
p224
aVpunk
p225
aVunreadable
p226
aVheartless
p227
aVvehemently
p228
aVdiappointed
p229
aVmalign
p230
aVfanciful
p231
aVdishearteningly
p232
aVdegenerate
p233
aVuntruthful
p234
aVflairs
p235
aVreprove
p236
aVloathe
p237
aVgarbage
p238
aVcollude
p239
aVdisrespectfulness
p240
aVfarce
p241
aVscolding
p242
aVcomplaining
p243
aVagony
p244
aVbunk
p245
aVvomiting
p246
aVvagrant
p247
aVdamage
p248
aVdebauchery
p249
aVfaults
p250
aVstupidity
p251
aVmorbid
p252
aVaccusations
p253
aVvociferous
p254
aVmoron
p255
aVdisappoint
p256
aVfaulty
p257
aVfudge
p258
aVshirker
p259
aVfanaticism
p260
aVbadly
p261
aVinequality
p262
aVfever
p263
aVbrutalizing
p264
aVbothersome
p265
aVmispronounce
p266
aVfunny
p267
aVmess
p268
aVpokey
p269
aVinsecure
p270
aVlag
p271
aVindignity
p272
aVgrowl
p273
aVdespondent
p274
aVwrong
p275
aVoverdone
p276
aVuproot
p277
aVmisfit
p278
aVextortion
p279
aVambivalent
p280
aVcomplacent
p281
aVfoolhardy
p282
aVaustere
p283
aVsimplistic
p284
aValienate
p285
aVhasty
p286
aVlongingly
p287
aVrevolt
p288
aVfictional
p289
aVneglect
p290
aVbackwoods
p291
aVdisobedient
p292
aVhaste
p293
aVremorseful
p294
aVuninsured
p295
aVweak
p296
aVatrocity
p297
aVgreed
p298
aVunsteady
p299
aVrestriction
p300
aVinfested
p301
aVdeform
p302
aVfiendish
p303
aVtop-heavy
p304
aVimpossiblity
p305
aVintimidatingly
p306
aVsickly
p307
aVsulk
p308
aVdespondently
p309
aVviolently
p310
aVstrangle
p311
aVpartisans
p312
aVwrought
p313
aVwickedness
p314
aVundid
p315
aVwickedly
p316
aVdestroyer
p317
aVhypocrisy
p318
aVunforeseen
p319
aVpolluters
p320
aVhaphazard
p321
aVunilateralism
p322
aVfib
p323
aVawfulness
p324
aVdrawback
p325
aVinsubstantial
p326
aVwhips
p327
aVprecipitate
p328
aVsmouldering
p329
aVunintelligile
p330
aVsplit
p331
aVundercut
p332
aVincongruous
p333
aVgrievous
p334
aVunfortunate
p335
aVlitigious
p336
aVweakness
p337
aVunemployed
p338
aVintimidation
p339
aVstuttering
p340
aVbane
p341
aVrenunciation
p342
aVaspersions
p343
aVrepulsive
p344
aVshameful
p345
aVaborted
p346
aVindulge
p347
aVinterrupt
p348
aVdisreputable
p349
aVrhapsodize
p350
aVdissappointing
p351
aVshirk
p352
aVgloom
p353
aVrhetoric
p354
aVrocky
p355
aVcronyism
p356
aVshadowy
p357
aVmistrust
p358
aVsnobbish
p359
aVimperiously
p360
aVexplode
p361
aVsuperficiality
p362
aVfrantically
p363
aVcapricious
p364
aVmisbehave
p365
aVaverse
p366
aVaddicted
p367
aVdings
p368
aVloneliness
p369
aVunwelcome
p370
aVinterruption
p371
aVwariness
p372
aVtrickery
p373
aVoverbearingly
p374
aVdumping
p375
aVmangled
p376
aVcombust
p377
aVcaustic
p378
aVdispiriting
p379
aVmangles
p380
aVtruant
p381
aVcoupists
p382
aVcontend
p383
aVdepress
p384
aVmisfortune
p385
aVwhining
p386
aVdisloyalty
p387
aVfraught
p388
aVfevers
p389
aVsluts
p390
aVrestricted
p391
aVoppressors
p392
aVindiscretion
p393
aVranted
p394
aVrevolting
p395
aVremorse
p396
aVzap
p397
aVsmugly
p398
aVsluggish
p399
aVinstigate
p400
aVoutburst
p401
aVexorbitantly
p402
aVtingling
p403
aVbitingly
p404
aVloathly
p405
aVdisputed
p406
aVrail
p407
aVlawless
p408
aVfugitive
p409
aV;;;;;;;;;;;;;;;;;;;;;;;;;;;;;;;;;;;;;;;;;;;;;;;;;;;;;;;;;;;;;;;;;;;;;;;;;;;;;;
p410
aVmaladjustment
p411
aVstruggle
p412
aVviolation
p413
aVsadly
p414
aVentrap
p415
aVobstructing
p416
aVdisregardful
p417
aVfret
p418
aVzaps
p419
aVinsubstantially
p420
aVsaggy
p421
aVsenselessly
p422
aVunfulfilled
p423
aVmaniac
p424
aVrumple
p425
aVdirtbags
p426
aVlousy
p427
aVdisturbed
p428
aVoppose
p429
aVhopeless
p430
aVheckle
p431
aVburdensomely
p432
aVbroken
p433
aVloud
p434
aVclouding
p435
aVrelentlessness
p436
aVenraged
p437
aVdownheartedly
p438
aVdaunting
p439
aVofficious
p440
aVhaggle
p441
aVmiscalculation
p442
aVbombard
p443
aV; If you use this list, please cite one of the following two papers:
p444
aVpicketed
p445
aVdeplete
p446
aVdownside
p447
aVclamorous
p448
aVdrones
p449
aVsober
p450
aVscrew-up
p451
aVtangle
p452
aVtraitorous
p453
aVslanderously
p454
aVnastiness
p455
aVdeclaim
p456
aVcheerless
p457
aVdiscompose
p458
aVdebase
p459
aVdilapidated
p460
aVrejects
p461
aVsarcasm
p462
aVtraumatize
p463
aVprotracted
p464
aVtwisted
p465
aVvibrate
p466
aVfiction
p467
aVreprehension
p468
aVimmodest
p469
aVoveract
p470
aVsnags
p471
aVbrainwash
p472
aVincognizant
p473
aVbitter
p474
aVmilitancy
p475
aVdamaging
p476
aVlovelorn
p477
aVilliterate
p478
aVhorrendously
p479
aVcollapse
p480
aVfanatical
p481
aVworsen
p482
aVleaking
p483
aVconspicuously
p484
aVrejected
p485
aVflimflam
p486
aVinarticulate
p487
aVinfiltrator
p488
aVunreachable
p489
aVwasted
p490
aVpreposterous
p491
aVpeculiar
p492
aVrebuff
p493
aVanxiety
p494
aVcruelly
p495
aVrampage
p496
aVcoward
p497
aVthumb-down
p498
aVbitterness
p499
aVmartyrdom
p500
aVidle
p501
aVguilt
p502
aVmisinformed
p503
aVspoiled
p504
aVdivisiveness
p505
aVdevious
p506
aVdisquietude
p507
aVincapably
p508
aVpervasive
p509
aVfar-fetched
p510
aVfathomless
p511
aVgalling
p512
aVrattle
p513
aVpessimism
p514
aVunpopular
p515
aVantagonistic
p516
aVscrewy
p517
aVwripping
p518
aVlull
p519
aVstalls
p520
aVtenuous
p521
aVberate
p522
aVconcens
p523
aVfearsome
p524
aVlatency
p525
aVhorde
p526
aVrelapse
p527
aVplunderer
p528
aVuncouth
p529
aVgripe
p530
aVisolated
p531
aVimpotent
p532
aVdefiantly
p533
aVsmolder
p534
aVsnob
p535
aVdemoralizing
p536
aVworsening
p537
aVdragged
p538
aVfinagle
p539
aVclunky
p540
aVimprudent
p541
aVdisdainfully
p542
aVinconsistence
p543
aVwrithe
p544
aVtimidity
p545
aVprohibitively
p546
aVobject
p547
aVvexing
p548
aVmashed
p549
aVchatterbox
p550
aVaddict
p551
aVconceded
p552
aVfluster
p553
aVpest
p554
aVdrought
p555
aVpanic
p556
aVunorthodox
p557
aVinconsistency
p558
aVpeevish
p559
aVinadverently
p560
aVaccuses
p561
aVregreted
p562
aVmushy
p563
aValarm
p564
aVignominiously
p565
aVunsustainable
p566
aVnettle
p567
aVsolemn
p568
aVdisaffect
p569
aVinaccuracies
p570
aV; Opinion Lexicon: Negative
p571
aVannoyed
p572
aVincomplete
p573
aVfussy
p574
aVdiscontent
p575
aVprik
p576
aVbomb
p577
aVoverpriced
p578
aVbrutalities
p579
aVchore
p580
aVheckles
p581
aVmusty
p582
aVdupe
p583
aVuneasiness
p584
aVdiscourteous
p585
aVincoherently
p586
aVill-advised
p587
aVlethal
p588
aVheckled
p589
aVsags
p590
aVcheaply
p591
aVcapitulate
p592
aVdie-hard
p593
aVthumbs-down
p594
aVpainfully
p595
aVspite
p596
aVundignified
p597
aVheretical
p598
aVdelays
p599
aVdebts
p600
aVhaze
p601
aVcripple
p602
aVbrimstone
p603
aVswindle
p604
aVleakages
p605
aVdisgust
p606
aVdismayingly
p607
aVfoolishly
p608
aVenslave
p609
aVnightmarishly
p610
aVhoard
p611
aVhardball
p612
aVemphatically
p613
aVludicrous
p614
aVhostility
p615
aVsmut
p616
aVdenounce
p617
aVdegradation
p618
aVbaffle
p619
aVcracks
p620
aVslanderous
p621
aVsmug
p622
aVimpractical
p623
aVnasty
p624
aVill-designed
p625
aVdisses
p626
aVbelabor
p627
aVdiscoutinous
p628
aV;       and Comparing Opinions on the Web." Proceedings of the 14th
p629
aVhorrifys
p630
aVbroken-hearted
p631
aVanxiously
p632
aVcollusion
p633
aVidiotic
p634
aVenraging
p635
aVillegitimate
p636
aVslaughtered
p637
aVbad
p638
aVunrelentingly
p639
aVisolation
p640
aVnefariously
p641
aVimplication
p642
aVruins
p643
aVdismissively
p644
aVerroneous
p645
aVunworthy
p646
aVdisaster
p647
aVgallingly
p648
aVspookiest
p649
aVinept
p650
aVover-valuation
p651
aVinapt
p652
aVunexpectedly
p653
aVdesolately
p654
aVdamnation
p655
aVhorrendous
p656
aVcorrupt
p657
aVmiserable
p658
aVresigned
p659
aVmournfully
p660
aVdiffidence
p661
aVcrowdedness
p662
aVinappropriate
p663
aVscrap
p664
aVinsolently
p665
aVsolicitude
p666
aVstartle
p667
aVunable
p668
aVarcane
p669
aVdisprove
p670
aVscorn
p671
aVunspeakablely
p672
aVsloooow
p673
aVincomprehension
p674
aVire
p675
aVlethargic
p676
aVskimpy
p677
aVindecisive
p678
aVinfidel
p679
aVirately
p680
aVsquealing
p681
aVsmelled
p682
aVjuddering
p683
aVinextricable
p684
aVdetracting
p685
aVcontort
p686
aVweary
p687
aVinextricably
p688
aVtortures
p689
aVdefiance
p690
aVdowngrade
p691
aVmiser
p692
aVdebt
p693
aVuncreative
p694
aVblasted
p695
aVpity
p696
aVspoilled
p697
aVdisorderly
p698
aVviolators
p699
aVirregular
p700
aVdecrepitude
p701
aVfallacious
p702
aVincense
p703
aVdissapointed
p704
aVharridan
p705
aVpertinacious
p706
aVdents
p707
aVhypocrites
p708
aVgainsayer
p709
aVescapade
p710
aVoverstatements
p711
aVflee
p712
aVobscenity
p713
aVmortified
p714
aV;       Proceedings of the ACM SIGKDD International Conference on Knowledge
p715
aVunclear
p716
aVirresponsible
p717
aVepidemic
p718
aVcondescending
p719
aVvindictiveness
p720
aVmatte
p721
aVdistorted
p722
aVunsteadily
p723
aVirresponsibly
p724
aVinfirm
p725
aVcapsize
p726
aVfrenetic
p727
aVsnag
p728
aVwastefulness
p729
aVcomical
p730
aVpenalize
p731
aVhasseling
p732
aVriled
p733
aVincomparable
p734
aVbackwardness
p735
aVfoully
p736
aVcondemned
p737
aVaspersion
p738
aVdisgracefully
p739
aVbothers
p740
aVdetrimental
p741
aVbedlamite
p742
aVsplatter
p743
aVincomparably
p744
aVassult
p745
aVambiguity
p746
aVunlamentable
p747
aVincompetent
p748
aVleech
p749
aVrefuted
p750
aVobese
p751
aVwheedle
p752
aVfleeting
p753
aVplebeian
p754
aVbeastly
p755
aVsuppress
p756
aVprison
p757
aVbereavement
p758
aVinconsolable
p759
aVdisgruntle
p760
aVanti-us
p761
aVinconsolably
p762
aVimbroglio
p763
aVdissention
p764
aVdoubts
p765
aVsloow
p766
aVmisinterpret
p767
aVregretted
p768
aVlunaticism
p769
aVcunt
p770
aVchill
p771
aVdistorts
p772
aV;   Bing Liu, Minqing Hu and Junsheng Cheng. "Opinion Observer: Analyzing
p773
aVinhibit
p774
aVgritty
p775
aVharms
p776
aVsly
p777
aVapprehension
p778
aVsemi-retarded
p779
aVunwillingness
p780
aVstrangest
p781
aVugly
p782
aVabrupt
p783
aVail
p784
aVniggles
p785
aVsubjugate
p786
aVcracked
p787
aVmangle
p788
aVmistake
p789
aVpessimistic
p790
aVridiculously
p791
aVstink
p792
aVcons
p793
aVdoddering
p794
aVprovocative
p795
aVdivisively
p796
aVmanipulators
p797
aVdumped
p798
aVlanky
p799
aVsubmissive
p800
aVsting
p801
aVshame
p802
aVdizzy
p803
aVcreepy
p804
aVexile
p805
aVpitiable
p806
aVmisaligns
p807
aVunproved
p808
aVdiscomfititure
p809
aVsever
p810
aVcataclysmal
p811
aVoverstated
p812
aVdamaged
p813
aVseverity
p814
aVdismissive
p815
aVwound
p816
aVspews
p817
aVgrapple
p818
aVcomplex
p819
aVdrop-out
p820
aVdamages
p821
aVcontaminate
p822
aVincorrectly
p823
aVsilly
p824
aVlacks
p825
aVemphatic
p826
aVvibrates
p827
aVcondemnation
p828
aVfuss
p829
aVill-usage
p830
aVunbearable
p831
aVracy
p832
aVhang
p833
aVdemolisher
p834
aVevil
p835
aVinaptitude
p836
aVunyielding
p837
aVvibrated
p838
aVjealous
p839
aVterribly
p840
aVhaggard
p841
aVstraggler
p842
aVincredulously
p843
aVintrusion
p844
aVimmaterial
p845
aVaskance
p846
aVforceful
p847
aVfailing
p848
aVfatal
p849
aVtaint
p850
aVdetracted
p851
aVragged
p852
aVfanatically
p853
aVcynicism
p854
aVimpediment
p855
aVsubpoena
p856
aVincapable
p857
aVimpertinent
p858
aVbereave
p859
aVstringent
p860
aVmockeries
p861
aVwasteful
p862
aVincorrect
p863
aVanti-social
p864
aVbruise
p865
aVforsaken
p866
aVbeset
p867
aVswamped
p868
aVungovernable
p869
aVmessing
p870
aVspurn
p871
aVuncooperative
p872
aVpuzzling
p873
aVplight
p874
aVimpending
p875
aVtoughness
p876
aVdeceive
p877
aVfearful
p878
aVvibration
p879
aVleer
p880
aVsubjugation
p881
aVseedy
p882
aVpassive
p883
aVsuccumb
p884
aVoveremphasize
p885
aVrumor
p886
aVspooky
p887
aVfalter
p888
aVpitiful
p889
aVmoody
p890
aVtrashed
p891
aVerratically
p892
aVfrost
p893
aVspoilages
p894
aVmocked
p895
aVinsensitive
p896
aVsalacious
p897
aVknock
p898
aVinvoluntary
p899
aVinequitable
p900
aVbreaks
p901
aVdisagreement
p902
aVaddicts
p903
aVbungling
p904
aVperfunctory
p905
aVdeprave
p906
aVorphan
p907
aVbastards
p908
aVunlikely
p909
aVcontrariness
p910
aVburns
p911
aVunfounded
p912
aVretreat
p913
aVdisadvantage
p914
aVnauseate
p915
aVblinding
p916
aVbrutality
p917
aVdisinclination
p918
aVglitch
p919
aVcontradict
p920
aVjumpy
p921
aVdishonest
p922
aVunnecessary
p923
aVlapsed
p924
aVunsuspecting
p925
aVfarcically
p926
aVdisillusioned
p927
aVoverrated
p928
aVerodes
p929
aVarbitrary
p930
aVlapses
p931
aVnotorious
p932
aVstarvation
p933
aVbonkers
p934
aVwarily
p935
aVsquander
p936
aVstereotype
p937
aVdetraction
p938
aVrepudiate
p939
aVdeaf
p940
aVdead
p941
aVshatter
p942
aVaccost
p943
aVrile
p944
aVcommonplace
p945
aVhassle
p946
aVself-interest
p947
aVdispleasure
p948
aVpugnacious
p949
aVprick
p950
aVbore
p951
aVcontaminating
p952
aVcreep
p953
aVenemies
p954
aVdenies
p955
aV;   Minqing Hu and Bing Liu. "Mining and Summarizing Customer Reviews."
p956
aVdense
p957
aVexhausts
p958
aVinhuman
p959
aVaggravation
p960
aVgruesomely
p961
aVrepression
p962
aVflounder
p963
aVremorselessness
p964
aVindoctrination
p965
aVgrumble
p966
aVdenied
p967
aVunnoticed
p968
aVpolluter
p969
aVconfusion
p970
aVdisliking
p971
aVrife
p972
aVcash-strapped
p973
aVplot
p974
aVconcen
p975
aVspewing
p976
aVburn
p977
aVblackmail
p978
aVangriness
p979
aVbreak-ups
p980
aVstooge
p981
aVconfrontation
p982
aVdefensive
p983
aVlosing
p984
aVdistraughtly
p985
aVinsanity
p986
aVunderpowered
p987
aVchafe
p988
aVlimitation
p989
aVchaff
p990
aVrestlessness
p991
aVscandels
p992
aVlackey
p993
aVattacks
p994
aVdisorder
p995
aVgrievously
p996
aVanomalous
p997
aVchoke
p998
aVfat-cat
p999
aVcliche
p1000
aVdespair
p1001
aVgenocide
p1002
aVguile
p1003
aVlacked
p1004
aVblabber
p1005
aVprimitive
p1006
aVindecency
p1007
aVdilemma
p1008
aVanxiousness
p1009
aVlied
p1010
aVdeploringly
p1011
aVinfraction
p1012
aVobscene
p1013
aVquibbles
p1014
aVlier
p1015
aVfumes
p1016
aVoverkill
p1017
aVover-acted
p1018
aVwobbled
p1019
aVbesmirch
p1020
aVengulf
p1021
aVpoor
p1022
aVlewd
p1023
aVstumble
p1024
aVstrangely
p1025
aVannoyance
p1026
aVhard-liner
p1027
aVdespised
p1028
aVdeception
p1029
aVdisinterest
p1030
aVill-sorted
p1031
aVjealousy
p1032
aVoverblown
p1033
aVlags
p1034
aVderision
p1035
aVcounterproductive
p1036
aVovershadow
p1037
aVgimmicked
p1038
aVtacky
p1039
aVlurid
p1040
aVquestionable
p1041
aVintolerance
p1042
aVinsurrection
p1043
aVabysmal
p1044
aVimmorality
p1045
aVtaboo
p1046
aVloopholes
p1047
aVforgetful
p1048
aVgripes
p1049
aVheinous
p1050
aVfailure
p1051
aVinexorable
p1052
aVultra-hardline
p1053
aVfuror
p1054
aVstraggle
p1055
aVsurrender
p1056
aVatrocities
p1057
aVdump
p1058
aVhumiliate
p1059
aVmisinform
p1060
aVruined
p1061
aVbreak-up
p1062
aVinsincere
p1063
aVinvidiously
p1064
aVtorturing
p1065
aVafflictive
p1066
aVglaringly
p1067
aVinsincerely
p1068
aVhorrifying
p1069
aVpropaganda
p1070
aVpanicky
p1071
aVtarnishes
p1072
aVdiscountenance
p1073
aVdisgrace
p1074
aVimpropriety
p1075
aVscandalous
p1076
aVfury
p1077
aVinfections
p1078
aVunnerve
p1079
aVwretched
p1080
aVopportunistic
p1081
aVcrumble
p1082
aVill-natured
p1083
aVdespotism
p1084
aVtarnished
p1085
aVmediocre
p1086
aVannoying
p1087
aVharassment
p1088
aVshit
p1089
aVgraft
p1090
aVblatantly
p1091
aVradically
p1092
aVoversimplification
p1093
aVdiscriminate
p1094
aVdisputable
p1095
aVdying
p1096
aVpolarisation
p1097
aVdisaccord
p1098
aVmeanness
p1099
aVdisloyal
p1100
aVdesecrate
p1101
aVstagnant
p1102
aVcomplicit
p1103
aVevasive
p1104
aV;       Bing Liu. "Sentiment Analysis and Subjectivity." An chapter in
p1105
aVunwilling
p1106
aVconfusing
p1107
aVerosion
p1108
aVtardy
p1109
aVmudslinger
p1110
aVsqueals
p1111
aVdisastrously
p1112
aVscary
p1113
aVexagerate
p1114
aVdies
p1115
aVgeezer
p1116
aVmangling
p1117
aVillogic
p1118
aVmiscellaneous
p1119
aVunwell
p1120
aVparalize
p1121
aVunnervingly
p1122
aVfell
p1123
aVscorchingly
p1124
aVfruitlessly
p1125
aVpersecution
p1126
aVanti-white
p1127
aVscratchy
p1128
aVdied
p1129
aVcongested
p1130
aVcheated
p1131
aVexpropriate
p1132
aVfaze
p1133
aVploy
p1134
aVfears
p1135
aVquandary
p1136
aVinimically
p1137
aVpertinaciously
p1138
aVrough
p1139
aVcheater
p1140
aVunproving
p1141
aVdenunciate
p1142
aVbackward
p1143
aVoverdue
p1144
aVpremeditated
p1145
aVwripped
p1146
aVirrecoverably
p1147
aVhardheaded
p1148
aVregrettably
p1149
aVdispirit
p1150
aVflabbergasted
p1151
aVdisrespectable
p1152
aVdebauch
p1153
aVvestiges
p1154
aVirrecoverablenesses
p1155
aVavalanche
p1156
aVshimmy
p1157
aVjarring
p1158
aVadamantly
p1159
aVpetty
p1160
aVrot
p1161
aVirrecoverable
p1162
aVmisread
p1163
aVdissatisfies
p1164
aVdeceitful
p1165
aVfoe
p1166
aVobsessively
p1167
aVsufferer
p1168
aVdisgusting
p1169
aVvex
p1170
aVgutless
p1171
aVdeject
p1172
aVquash
p1173
aVdissatisfied
p1174
aVnegativity
p1175
aVweakening
p1176
aVbigotries
p1177
aVterror
p1178
aVsuffered
p1179
aVoutmoded
p1180
aVoversight
p1181
aVdisunity
p1182
aVvolatility
p1183
aVextort
p1184
aVjerk
p1185
aVallegations
p1186
aVunavoidably
p1187
aVunfamiliar
p1188
aVsloppy
p1189
aVliability
p1190
aVcataclysmic
p1191
aVferociously
p1192
aVmourn
p1193
aVfatigued
p1194
aVtanks
p1195
aVderisive
p1196
aVtrouble
p1197
aVfeeble
p1198
aVdim
p1199
aVdin
p1200
aVself-destructive
p1201
aVdismalness
p1202
aVdie
p1203
aVembarrassment
p1204
aVfragile
p1205
aVcloudy
p1206
aVinvidious
p1207
aVgrimace
p1208
aVencroach
p1209
aVdishonorablely
p1210
aVuncomfy
p1211
aVill-formed
p1212
aVtetchily
p1213
aVdistasteful
p1214
aVunexpected
p1215
aVinvader
p1216
aVill-conceived
p1217
aVinsignificant
p1218
aVdisconsolate
p1219
aVrepetitive
p1220
aVsneakily
p1221
aVinconsequential
p1222
aVinconsiderately
p1223
aVslowed
p1224
aVdroops
p1225
aVbombardment
p1226
aVpratfall
p1227
aVperplexity
p1228
aVhelpless
p1229
aVirritations
p1230
aVtempest
p1231
aVirritated
p1232
aVacrimonious
p1233
aVdistaste
p1234
aVcurse
p1235
aVstressful
p1236
aVbackwood
p1237
aVdoom
p1238
aVdeluded
p1239
aVboggle
p1240
aVjeopardy
p1241
aVcruelness
p1242
aVhavoc
p1243
aVhairloss
p1244
aVirritating
p1245
aVsuspect
p1246
aVfreaks
p1247
aVhypocritical
p1248
aVdrunkard
p1249
aVfalling
p1250
aVdishonestly
p1251
aVpeculiarly
p1252
aVirresolvable
p1253
aVparadoxical
p1254
aVcripples
p1255
aVsardonically
p1256
aVhegemonistic
p1257
aVunsure
p1258
aVstun
p1259
aVabscond
p1260
aVdunce
p1261
aVunobserved
p1262
aVdisillusion
p1263
aVgawk
p1264
aVsuperstition
p1265
aVdisclaim
p1266
aVsnagging
p1267
aVdetest
p1268
aVfractious
p1269
aVdemonizing
p1270
aVcongestion
p1271
aVdeceit
p1272
aVbulkyness
p1273
aVdwindling
p1274
aVunkind
p1275
aVmolestation
p1276
aVshamelessness
p1277
aVimpatiently
p1278
aVdusty
p1279
aVbruises
p1280
aVguilty
p1281
aVvibrating
p1282
aVexploitation
p1283
aVburdensome
p1284
aVdenunciation
p1285
aVdrab
p1286
aVissues
p1287
aVdraconic
p1288
aVweird
p1289
aVbruised
p1290
aVineffectiveness
p1291
aVnegatives
p1292
aVsnobish
p1293
aVdissappointed
p1294
aVspoonfed
p1295
aVproblematic
p1296
aVdiscontentedly
p1297
aVpessimistically
p1298
aVanti-occupation
p1299
aVbribery
p1300
aVbetraying
p1301
aVironical
p1302
aVsufferers
p1303
aVfake
p1304
aVailing
p1305
aVatrocious
p1306
aVsmallish
p1307
aVcrisis
p1308
aVstingy
p1309
aVgrumpish
p1310
aVheartbreaker
p1311
aVflareup
p1312
aVimpunity
p1313
aVsenile
p1314
aVlicentious
p1315
aVangry
p1316
aVmaliciousness
p1317
aVravage
p1318
aV; Notes:
p1319
aVhardliners
p1320
aVslowww
p1321
aVmelodramatically
p1322
aVswagger
p1323
aVretardedness
p1324
aVmarginally
p1325
aVwicked
p1326
aVblotchy
p1327
aVdismay
p1328
aVsmudged
p1329
aVfierce
p1330
aVincredulous
p1331
aVcondescension
p1332
aVdislikes
p1333
aVunconvincing
p1334
aVill-defined
p1335
aVdemonized
p1336
aVstinging
p1337
aVdownhearted
p1338
aVinsultingly
p1339
aVthrobbed
p1340
aVdismal
p1341
aVdegrade
p1342
aVscratches
p1343
aVjudder
p1344
aVdemonizes
p1345
aVmisconception
p1346
aVpainfull
p1347
aVdegenerately
p1348
aVspoilage
p1349
aVdemolish
p1350
aVbemoaning
p1351
aVthug
p1352
aVdegradingly
p1353
aVnauseatingly
p1354
aVunnatural
p1355
aVoverloaded
p1356
aVdissembler
p1357
aVhubris
p1358
aVinstable
p1359
aVflaking
p1360
aVsour
p1361
aV;       Washington, USA,
p1362
aVunruly
p1363
aVbatty
p1364
aVindignant
p1365
aVcrazy
p1366
aVgrouchy
p1367
aVcorrupted
p1368
aVdownfall
p1369
aVhostilities
p1370
aVconfused
p1371
aVoverzealous
p1372
aVinexperience
p1373
aVdisbelieve
p1374
aVabort
p1375
aVintransigent
p1376
aVbattered
p1377
aVconfuses
p1378
aVprovoke
p1379
aVstole
p1380
aV;       See the paper below:
p1381
aVcraze
p1382
aVill-treated
p1383
aVindifferent
p1384
aVbankrupt
p1385
aVstricken
p1386
aVmalevolence
p1387
aVinundated
p1388
aVantagonism
p1389
aVover-balanced
p1390
aVfreezes
p1391
aVscornfully
p1392
aVinfringements
p1393
aVmisleading
p1394
aVirascible
p1395
aVdeteriorate
p1396
aVcriminal
p1397
aVunbelievable
p1398
aVmar
p1399
aVirrational
p1400
aVcrashes
p1401
aVconvoluted
p1402
aVcritics
p1403
aVfreezing
p1404
aVscoff
p1405
aVbrazen
p1406
aVdisgusted
p1407
aVcrashed
p1408
aVheartbreaking
p1409
aVmad
p1410
aVinconsequentially
p1411
aVmocks
p1412
aVdrastic
p1413
aVsuck
p1414
aVdestructive
p1415
aVfilthy
p1416
aVshockingly
p1417
aVbrainless
p1418
aVegotistical
p1419
aVdisagreeable
p1420
aVvomited
p1421
aVstress
p1422
aVaimless
p1423
aVdrained
p1424
aVbid-rigging
p1425
aVdireness
p1426
aVstupidly
p1427
aVmisbegotten
p1428
aVsermonize
p1429
aVmeddle
p1430
aVopinionated
p1431
aVdarkened
p1432
aVinfidels
p1433
aVcrept
p1434
aVflat-out
p1435
aVswollen
p1436
aVoffend
p1437
aVdisagreeably
p1438
aVcrumple
p1439
aVdrunken
p1440
aVfatuity
p1441
aVforfeit
p1442
aVshaky
p1443
aVunacceptable
p1444
aVdisintegration
p1445
aVunacceptably
p1446
aVspookier
p1447
aVsob
p1448
aVboisterous
p1449
aVshake
p1450
aVhorrify
p1451
aVcold
p1452
aVirresolute
p1453
aVfroze
p1454
aVsetbacks
p1455
aVunlucky
p1456
aVpugnacity
p1457
aVdangerousness
p1458
aVdespotic
p1459
aVinjudicious
p1460
aVlackluster
p1461
aVunethical
p1462
aVundermined
p1463
aVtroubles
p1464
aVdisconcertingly
p1465
aVwasting
p1466
aVsinfully
p1467
aVsuffocate
p1468
aVsuspicion
p1469
aVdreadfully
p1470
aVantipathy
p1471
aVoversize
p1472
aVunacceptablely
p1473
aVtroubled
p1474
aVloophole
p1475
aVabusive
p1476
aVinefficiency
p1477
aVlonely
p1478
aVaching
p1479
aVindeterminate
p1480
aVcondescendingly
p1481
aVrattled
p1482
aVillogically
p1483
aVkiller
p1484
aVbashful
p1485
aVmaniacal
p1486
aVsarcastic
p1487
aVnonsense
p1488
aVtoxic
p1489
aVflareups
p1490
aVvexingly
p1491
aVinfamously
p1492
aVunviewable
p1493
aVsporadic
p1494
aVuncontrolled
p1495
aVbullshit
p1496
aVrattles
p1497
aVwily
p1498
aVvain
p1499
aVfeverish
p1500
aVlies
p1501
aVirragularity
p1502
aVresignation
p1503
aVrevert
p1504
aVredundancy
p1505
aVfawningly
p1506
aVoutrageously
p1507
aVcareless
p1508
aVcraftily
p1509
aVinstability
p1510
aVtroublingly
p1511
aVimperious
p1512
aVfoulness
p1513
aVsubjection
p1514
aVsorrowfully
p1515
aVnettlesome
p1516
aVailment
p1517
aVdisconsolately
p1518
aVbusts
p1519
aVcrushing
p1520
aVworriedly
p1521
aVindeterminable
p1522
aVinopportune
p1523
aValoof
p1524
aVtumultuous
p1525
aVvociferously
p1526
aVdripped
p1527
aVhysteric
p1528
aVhiliarious
p1529
aVgiddy
p1530
aVimpurity
p1531
aVinfuriated
p1532
aVbulkiness
p1533
aVirony
p1534
aVbelligerence
p1535
aVinadequacy
p1536
aVextremists
p1537
aVthirst
p1538
aVhastily
p1539
aVcondemns
p1540
aVtrauma
p1541
aVsmells
p1542
aVtetchy
p1543
aVruinous
p1544
aVunnerving
p1545
aVbugging
p1546
aVmistified
p1547
aVdiabolic
p1548
aVbusybody
p1549
aVinevitably
p1550
aVabnormal
p1551
aVdumbfound
p1552
aVdisintegrated
p1553
aVsiege
p1554
aVhefty
p1555
aVcarp
p1556
aVsmudge
p1557
aVsneak
p1558
aVdisrespect
p1559
aVdisintegrates
p1560
aVbumps
p1561
aVmiscreants
p1562
aVunwanted
p1563
aVirrationalities
p1564
aVdehumanization
p1565
aVbumpy
p1566
aVnightmarish
p1567
aVdissonant
p1568
aVominous
p1569
aVinevitable
p1570
aVdelude
p1571
aVsuperstitious
p1572
aVtangles
p1573
aVimposers
p1574
aVunsound
p1575
aVflare
p1576
aVdisillusionment
p1577
aVimpose
p1578
aVgaff
p1579
aVdownsides
p1580
aVfunky
p1581
aVtangled
p1582
aVquibble
p1583
aVdesultory
p1584
aVbrutalize
p1585
aVtiresome
p1586
aVoutcry
p1587
aVdiscontinued
p1588
aVpuny
p1589
aVblind
p1590
aVfeign
p1591
aVimpossibly
p1592
aVfleeing
p1593
aVdungeons
p1594
aVscandalized
p1595
aVlow-rated
p1596
aVindecent
p1597
aVawfully
p1598
aVclumsy
p1599
aVuntrue
p1600
aVpunishable
p1601
aVgasp
p1602
aVanti-
p1603
aVill-used
p1604
aVmisbecome
p1605
aVcheesy
p1606
aVincompetently
p1607
aVlanguish
p1608
aVimpetuous
p1609
aVimprecate
p1610
aVthoughtless
p1611
aVwrath
p1612
aVstuck
p1613
aVmurky
p1614
aVthankless
p1615
aVcallous
p1616
aVautocrat
p1617
aVshiver
p1618
aVtragic
p1619
aVlambaste
p1620
aVjutter
p1621
aVdaunt
p1622
aVoversimplified
p1623
aVmalevolent
p1624
aVbloodshed
p1625
aVgaudy
p1626
aVinefficient
p1627
aVuninformed
p1628
aVhum
p1629
aVindoctrinate
p1630
aVhurtful
p1631
aVsubpoenas
p1632
aVridiculous
p1633
aVmawkishly
p1634
aVfooled
p1635
aVjunkyard
p1636
aVfatefully
p1637
aVchintzy
p1638
aVset-up
p1639
aVpetrified
p1640
aVbewitch
p1641
aVdinky
p1642
aVtawdry
p1643
aVdepressed
p1644
aVrival
p1645
aVstammer
p1646
aVscourge
p1647
aVdissed
p1648
aVracists
p1649
aVimpinge
p1650
aVtension
p1651
aVextinguish
p1652
aVsimplistically
p1653
aVdamned
p1654
aVdisasterous
p1655
aVtroublesome
p1656
aVillness
p1657
aVcontentious
p1658
aVunfairly
p1659
aVtin-y
p1660
aVstarve
p1661
aVimprobability
p1662
aVsag
p1663
aVbores
p1664
aVslap
p1665
aVhard-hit
p1666
aVnefarious
p1667
aVpicketing
p1668
aVconspiracy
p1669
aVlurking
p1670
aVanger
p1671
aVperplexing
p1672
aVinadverent
p1673
aVsap
p1674
aVuproarously
p1675
aVbait
p1676
aVglibly
p1677
aVmispronounces
p1678
aVsickening
p1679
aVlumpy
p1680
aVsanctimonious
p1681
aVisolate
p1682
aVshocked
p1683
aVplague
p1684
aVunlawfully
p1685
aVbeggarly
p1686
aVfracture
p1687
aVmispronounced
p1688
aVdestroy
p1689
aVhedonistic
p1690
aVswelled
p1691
aVblunt
p1692
aVpimple
p1693
aVjeering
p1694
aVironically
p1695
aVaudacious
p1696
aVpain
p1697
aVselfinterested
p1698
aVoppressive
p1699
aVinfiltrators
p1700
aVimpulsively
p1701
aVslump
p1702
aVbetrayal
p1703
aVfalls
p1704
aVboiling
p1705
aVassault
p1706
aVslowest
p1707
aVd*mn
p1708
aVcomplaints
p1709
aVhardships
p1710
aVconspicuous
p1711
aVshrilly
p1712
aVtouchy
p1713
aVblockhead
p1714
aVhelplessly
p1715
aVjitters
p1716
aVmassacres
p1717
aVwreaked
p1718
aVscowl
p1719
aVslaves
p1720
aVguiltily
p1721
aVjittery
p1722
aVhestitant
p1723
aViniquitous
p1724
aVpartisan
p1725
aVwatered-down
p1726
aVintoxicate
p1727
aVdrastically
p1728
aVfrenzied
p1729
aVusurp
p1730
aVcheat
p1731
aVinfuriate
p1732
aVso-cal
p1733
aVcheap
p1734
aVfriction
p1735
aVdisturbing
p1736
aVinconsistent
p1737
aVhack
p1738
aVtentatively
p1739
aVscarce
p1740
aVaggressive
p1741
aVcalumnies
p1742
aVhustler
p1743
aVcrashing
p1744
aVnemesis
p1745
aVdespairingly
p1746
aVstormy
p1747
aVbackaching
p1748
aVdownturns
p1749
aVdick
p1750
aVjolt
p1751
aVshimmer
p1752
aVcrime
p1753
aVstaid
p1754
aVdirely
p1755
aVfickle
p1756
aVslog
p1757
aVdisgustfully
p1758
aVtravesty
p1759
aVdisconcerting
p1760
aVoutrage
p1761
aVunravel
p1762
aVstain
p1763
aVmalcontent
p1764
aVshrill
p1765
aVperfidity
p1766
aVdispute
p1767
aVgraceless
p1768
aVdevastating
p1769
aVexaggeration
p1770
aVskulk
p1771
aVincivility
p1772
aVbegging
p1773
aVtricked
p1774
aVloath
p1775
aVunimportant
p1776
aVdarker
p1777
aVhedge
p1778
aVdistortion
p1779
aVtreachery
p1780
aVcautionary
p1781
aVrevulsion
p1782
aVfreaking
p1783
aVuneven
p1784
aVbeseech
p1785
aVdeprecate
p1786
aVlame
p1787
aVsabotage
p1788
aVobliterate
p1789
aVimbecile
p1790
aVimpolite
p1791
aVabsurdly
p1792
aVworried
p1793
aVjoker
p1794
aVindeterminably
p1795
aVbarbaric
p1796
aVstupid
p1797
aVlosers
p1798
aVforsake
p1799
aVliable
p1800
aVworries
p1801
aVworrier
p1802
aVdisparage
p1803
aVdownfallen
p1804
aVworrying
p1805
aVghastly
p1806
aVkook
p1807
aVlethargy
p1808
aVimposing
p1809
aVaudaciously
p1810
aVuneconomical
p1811
aVblurred
p1812
aVfamine
p1813
aVgangster
p1814
aVunfit
p1815
aVdisquietingly
p1816
aVslashing
p1817
aVrecalcitrant
p1818
aVculpable
p1819
aVstigma
p1820
aVunderpaid
p1821
aVconcern
p1822
aVfails
p1823
aVaffront
p1824
aVinequalities
p1825
aVupsets
p1826
aVcrooked
p1827
aValarming
p1828
aVincite
p1829
aVbelittled
p1830
aValtercation
p1831
aVvindictively
p1832
aVhiss
p1833
aVmope
p1834
aVineloquently
p1835
aVuntrustworthy
p1836
aVrecourses
p1837
aVpitiless
p1838
aVinappropriately
p1839
aVcheckered
p1840
aVrumours
p1841
aVmessed
p1842
aVself-humiliation
p1843
aVkilling
p1844
aVblame
p1845
aVcalumniation
p1846
aVdisdainful
p1847
aVfloundering
p1848
aVunsecure
p1849
aVhurts
p1850
aVmenacing
p1851
aVharshly
p1852
aVinterfere
p1853
aVvenomously
p1854
aVundermine
p1855
aVdissidence
p1856
aVquack
p1857
aVinsignificance
p1858
aVfried
p1859
aVfarcical
p1860
aVgimmicky
p1861
aVself-serving
p1862
aVstupidest
p1863
aVinanely
p1864
aVfulminate
p1865
aVmisrepresentation
p1866
aVtemper
p1867
aVindelicate
p1868
aVtout
p1869
aVdisappointment
p1870
aVstutter
p1871
aVreluctantly
p1872
aVdelirium
p1873
aVmists
p1874
aVcalumniate
p1875
aVexasperated
p1876
aVshamefully
p1877
aVrepulsively
p1878
aVjitter
p1879
aVprovocation
p1880
aVcancer
p1881
aVextravagantly
p1882
aVforeboding
p1883
aVslogged
p1884
aVinsular
p1885
aVspank
p1886
aVrremediable
p1887
aVaccusation
p1888
aVgibber
p1889
aVunwarranted
p1890
aV;       mistakes. They are included as these misspelled words appear
p1891
aVbizarre
p1892
aVmortification
p1893
aVskeletons
p1894
aVrunaway
p1895
aVsorely
p1896
aVintrude
p1897
aVcaricature
p1898
aVundercuts
p1899
aVirk
p1900
aVsucker
p1901
aVmenacingly
p1902
aVwobble
p1903
aVconcede
p1904
aVdonside
p1905
aVneedlessly
p1906
aVraging
p1907
aVdictator
p1908
aVsinful
p1909
aVdumps
p1910
aVjerky
p1911
aVconfessions
p1912
aVlayoff-happy
p1913
aVexhaustion
p1914
aVruining
p1915
aVimpugn
p1916
aVmesses
p1917
aVvomits
p1918
aVhung
p1919
aVacrimoniously
p1920
aVsquash
p1921
aVjutters
p1922
aVstifling
p1923
aVsuspicions
p1924
aVstalemate
p1925
aVvagueness
p1926
aVsticky
p1927
aVdropouts
p1928
aVfallaciously
p1929
aVpredicament
p1930
aVprofane
p1931
aVflabbergast
p1932
aVpretence
p1933
aVscarily
p1934
aVunsettlingly
p1935
aVtrick
p1936
aVnotoriety
p1937
aVdeceptively
p1938
aVflicering
p1939
aVquitter
p1940
aVscum
p1941
aVmurderously
p1942
aVhuckster
p1943
aVimplacable
p1944
aVfool
p1945
aVunsupported
p1946
aVpeevishly
p1947
aVsub-par
p1948
aVineptly
p1949
aVtwists
p1950
aVreviled
p1951
aVsnobs
p1952
aVdissident
p1953
aVgrumpily
p1954
aVstrain
p1955
aVbias
p1956
aVlaughably
p1957
aVbestial
p1958
aVironic
p1959
aVblab
p1960
aVworry
p1961
aVtreacherously
p1962
aVcreaks
p1963
aVdebilitating
p1964
aVresentful
p1965
aVerroneously
p1966
aVharsh
p1967
aV;       Discovery and Data Mining (KDD-2004), Aug 22-25, 2004, Seattle,
p1968
aVsketchy
p1969
aVinjurious
p1970
aVmobster
p1971
aVunderestimate
p1972
aVcontortions
p1973
aVanarchistic
p1974
aVstruggling
p1975
aVsloww
p1976
aVmoronic
p1977
aVdishonorable
p1978
aVexhaust
p1979
aVpedantic
p1980
aVbrute
p1981
aVinfuriatingly
p1982
aVsickness
p1983
aVdefy
p1984
aVrefusal
p1985
aVwallow
p1986
aVlambast
p1987
aVdisadvantaged
p1988
aVdevoid
p1989
aVdomineering
p1990
aVprotested
p1991
aVunqualified
p1992
aVdisapointing
p1993
aVentanglement
p1994
aVupheaval
p1995
aVstingingly
p1996
aVweep
p1997
aVentangle
p1998
aVheartbreakingly
p1999
aVcomplained
p2000
aVbreak
p2001
aVdrain
p2002
aVslanders
p2003
aVundefined
p2004
aVbondage
p2005
aVinelegant
p2006
aVidiotically
p2007
aVstunted
p2008
aVobjection
p2009
aVmelodramatic
p2010
aVdemean
p2011
aVinability
p2012
aVgrumpy
p2013
aVbumping
p2014
aVlawbreaker
p2015
aVflakey
p2016
aVparody
p2017
aVstreaky
p2018
aVmorons
p2019
aVdesolate
p2020
aVscarred
p2021
aVbristle
p2022
aVfume
p2023
aVunconstitutional
p2024
aVdisconcert
p2025
aVslime
p2026
aVinsults
p2027
aVdisappointing
p2028
aVpayback
p2029
aVviolent
p2030
aVpariah
p2031
aVteasingly
p2032
aVinvalid
p2033
aVmadness
p2034
aVinaudible
p2035
aVperilous
p2036
aVblow
p2037
aVdeath
p2038
aVclueless
p2039
aVdeceiving
p2040
aVrigid
p2041
aVadulterated
p2042
aVoccluded
p2043
aVsenseless
p2044
aVbullshyt
p2045
aVharrow
p2046
aVsorry
p2047
aVfalsely
p2048
aVpanicked
p2049
aVdroop
p2050
aVoverthrow
p2051
aVeviscerate
p2052
aVmournful
p2053
aVbackbite
p2054
aVdisrupt
p2055
aVdisproportionate
p2056
aVreticent
p2057
aVsubversively
p2058
aVfrown
p2059
aVkills
p2060
aVoffence
p2061
aVinordinate
p2062
aVundependability
p2063
aVdark
p2064
aVretract
p2065
aVsnarl
p2066
aVdetract
p2067
aVramshackle
p2068
aVconfined
p2069
aVdisadvantageous
p2070
aVsnare
p2071
aVresentment
p2072
aVdisappointed
p2073
aVgrim
p2074
aVdistrustful
p2075
aVoccludes
p2076
aVstandstill
p2077
aVterrorize
p2078
aVstranger
p2079
aVexpunge
p2080
aVsuperfluous
p2081
aVexploit
p2082
aVundermining
p2083
aVoddly
p2084
aVwrongful
p2085
aVfeckless
p2086
aVcravenly
p2087
aVsubstandard
p2088
aVdisoobedient
p2089
aVobstruct
p2090
aVirked
p2091
aVshunned
p2092
aVsteal
p2093
aVhysterics
p2094
aVafflict
p2095
aVdebilitate
p2096
aVpointlessly
p2097
aVsickeningly
p2098
aVasperse
p2099
aVhacks
p2100
aVmonstrosity
p2101
aVerase
p2102
aVshortcoming
p2103
aVdemeaning
p2104
aVgross
p2105
aVirrecoverableness
p2106
aVsquirm
p2107
aVperverse
p2108
aVoverbalanced
p2109
aVrenounce
p2110
aVdouchebag
p2111
aVdauntingly
p2112
aVfusty
p2113
aVconservative
p2114
aVunachievable
p2115
aVcritical
p2116
aVcrueler
p2117
aVulterior
p2118
aVunpleasantries
p2119
aVcompulsion
p2120
aVknife
p2121
aVunsuccessfully
p2122
aVlawbreaking
p2123
aVbiased
p2124
aVegocentric
p2125
aVdejection
p2126
aVsadden
p2127
aVdreadfulness
p2128
aVitching
p2129
aVarduously
p2130
aVstrained
p2131
aVunease
p2132
aVimminence
p2133
aVdisparaging
p2134
aVuneasy
p2135
aVdespicable
p2136
aVuncivilized
p2137
aVbiases
p2138
aVhectic
p2139
aVinfected
p2140
aVprattle
p2141
aVperversity
p2142
aVfinicky
p2143
aVdesiccated
p2144
aVsagging
p2145
aVemasculate
p2146
aVbaffled
p2147
aVsubdued
p2148
aVcreaking
p2149
aVinsinuating
p2150
aVtease
p2151
aVzealous
p2152
aVsmear
p2153
aVjeer
p2154
aVnonexistent
p2155
aVdemonic
p2156
aVknave
p2157
aVdiscrimination
p2158
aVthreesome
p2159
aVassassin
p2160
aVnastily
p2161
aVfallacy
p2162
aVannoyances
p2163
aVperturbed
p2164
aVdissocial
p2165
aVutterly
p2166
aVburning
p2167
aVcurses
p2168
aVsmelling
p2169
aVunnerved
p2170
aVinhumane
p2171
aVcursed
p2172
aVinculcate
p2173
aVlame-duck
p2174
aVmulti-polarization
p2175
aVdeceivers
p2176
aVannoys
p2177
aVsubservience
p2178
aVstuttered
p2179
aVcalamities
p2180
aVstrictly
p2181
aVtotalitarian
p2182
aVracism
p2183
aVstark
p2184
aVmadder
p2185
aVunreliability
p2186
aVmindless
p2187
aVracist
p2188
aVfutile
p2189
aVdislocated
p2190
aVcraftly
p2191
aVhysterical
p2192
aVstrict
p2193
aVdowner
p2194
aVoverpaid
p2195
aVgibe
p2196
aVmischief
p2197
aVdrains
p2198
aVshamelessly
p2199
aVfastidious
p2200
aVdelayed
p2201
aVgroundless
p2202
aVunhappiness
p2203
aVshroud
p2204
aVsass
p2205
aVmanipulative
p2206
aVrecoil
p2207
aVstrenuous
p2208
aVantiquated
p2209
aVimpedance
p2210
aVwarped
p2211
aVcondemnable
p2212
aVirreversible
p2213
aVelection-rigger
p2214
aVbelated
p2215
aVabused
p2216
aVhooligan
p2217
aVdarken
p2218
aVharangue
p2219
aVannihilate
p2220
aVrage
p2221
aVfabricate
p2222
aVgrudging
p2223
aVextermination
p2224
aVpoison
p2225
aVflirt
p2226
aVsadness
p2227
aVdiatribe
p2228
aVeschew
p2229
aVgrouch
p2230
aVirreconcilable
p2231
aVgibberish
p2232
aVdeadlock
p2233
aVcreeping
p2234
aVrust
p2235
aVbeware
p2236
aVruffian
p2237
aVinflict
p2238
aVfright
p2239
aVstiflingly
p2240
aVexhausted
p2241
aVbleakly
p2242
aVstealing
p2243
aVcringed
p2244
aVinefficacy
p2245
aVfallaciousness
p2246
aVaccusingly
p2247
aVspendy
p2248
aVax
p2249
aVcringes
p2250
aVdownturn
p2251
aVnoisier
p2252
aVillegal
p2253
aVcasualty
p2254
aVtedious
p2255
aVabyss
p2256
aVonerous
p2257
aVdevilish
p2258
aVhotbeds
p2259
aVidiot
p2260
aVselfishly
p2261
aVcannibalize
p2262
aVabolish
p2263
aVtrample
p2264
aVunaccustomed
p2265
aVinteferes
p2266
aVinvalidity
p2267
aVheathen
p2268
aVfriggin
p2269
aVwoeful
p2270
aVtrash
p2271
aVdismayed
p2272
aVdisgraceful
p2273
aVvictimize
p2274
aVdeviation
p2275
aVbrash
p2276
aVineligible
p2277
aVconspiracies
p2278
aVexpropriation
p2279
aVmanipulate
p2280
aVdesolation
p2281
aVdamnably
p2282
aVdented
p2283
aVfetid
p2284
aVdamnable
p2285
aVoverreach
p2286
aVmidget
p2287
aVwounds
p2288
aVunattractive
p2289
aVcrappy
p2290
aVworthlessly
p2291
aVimminently
p2292
aVunresponsive
p2293
aVmisleadingly
p2294
aVpitifully
p2295
aVdisdained
p2296
aVconsternation
p2297
aVtouts
p2298
aVsnagged
p2299
aVmocking
p2300
aVirksomenesses
p2301
aVuglier
p2302
aVapathy
p2303
aVindiscriminating
p2304
aVvillianously
p2305
aVjudders
p2306
aVdisagreeing
p2307
aVrefutation
p2308
aVfraudulent
p2309
aVunjustified
p2310
aVforswear
p2311
aVmourner
p2312
aVprejudicial
p2313
aVbanishment
p2314
aVcrumpled
p2315
aVdiss
p2316
aVliar
p2317
aVvile
p2318
aVrascals
p2319
aVallergy
p2320
aVscandel
p2321
aVimportune
p2322
aVfranticly
p2323
aVunrest
p2324
aVviolator
p2325
aVgoofy
p2326
aVantagonize
p2327
aVcrumples
p2328
aVunmoved
p2329
aVmessy
p2330
aVrevoke
p2331
aVillicit
p2332
aVenflame
p2333
aVshrew
p2334
aVdefamations
p2335
aVimproperly
p2336
aVdreadful
p2337
aVwanton
p2338
aVcatastrophe
p2339
aVfastuous
p2340
aVignorant
p2341
aVirrelevant
p2342
aVsubjected
p2343
aVextraneous
p2344
aVrevengeful
p2345
aVdisgruntled
p2346
aVscratch
p2347
aVhideous
p2348
aVdegeneration
p2349
aVworse
p2350
aVequivocal
p2351
aVpuzzled
p2352
aVinfringement
p2353
aVdiscrepant
p2354
aVfacetious
p2355
aVfat
p2356
aVresistance
p2357
aVinflammed
p2358
aVadmonition
p2359
aVrogue
p2360
aVworst
p2361
aVrape
p2362
aVfall
p2363
aVawful
p2364
aVirksomeness
p2365
aVmaladjusted
p2366
aVgainsay
p2367
aVremorsefully
p2368
aVranting
p2369
aVdeficient
p2370
aVingratitude
p2371
aVdisrepute
p2372
aVinsufficiently
p2373
aVdodgey
p2374
aVwilt
p2375
aVdesertion
p2376
aVundone
p2377
aVliars
p2378
aVdamper
p2379
aVthrobbing
p2380
aVconflicted
p2381
aVunsteadiness
p2382
aVfloored
p2383
aVpartiality
p2384
aVstigmatize
p2385
aVdizzingly
p2386
aVlechery
p2387
aVenfeeble
p2388
aVpandemonium
p2389
aVenjoin
p2390
aVbungler
p2391
aVmisrepresent
p2392
aVdestitute
p2393
aVhamper
p2394
aVbully
p2395
aVpettifog
p2396
aVhandicapped
p2397
aVsue
p2398
aVunuseable
p2399
aVdarkness
p2400
aVskeptic
p2401
aVscorching
p2402
aVpoisonous
p2403
aVwhimper
p2404
aVrascal
p2405
aVlurch
p2406
aVexasperation
p2407
aVcrush
p2408
aVfaltered
p2409
aVblindside
p2410
aVundecided
p2411
aVshun
p2412
aVfalsify
p2413
aVimpure
p2414
aVturmoil
p2415
aVdisillusions
p2416
aVpassiveness
p2417
aVloose
p2418
aVoverstatement
p2419
aVindecision
p2420
aVmendacious
p2421
aVrevenge
p2422
aVlack
p2423
aVdeceitfully
p2424
aVdisastrous
p2425
aVhopelessness
p2426
aVtiringly
p2427
aVgrudges
p2428
aVbuzzing
p2429
aVtragedy
p2430
aVmudslinging
p2431
aVhorrifies
p2432
aVstupor
p2433
aVcreeps
p2434
aVunproven
p2435
aVenmity
p2436
aVpuzzlement
p2437
aVlosses
p2438
aVwhine
p2439
aVincorrigible
p2440
aVbrutal
p2441
aVover-hyped
p2442
aVinfringe
p2443
aVsnappish
p2444
aVhorrified
p2445
aVstiffness
p2446
aVmisery
p2447
aVunproves
p2448
aVskepticism
p2449
aVconcerned
p2450
aVupsettingly
p2451
aVinvalidate
p2452
aVcalumniously
p2453
aVunsatisfactory
p2454
aVprejudge
p2455
aVmarginal
p2456
aVimpiety
p2457
aVfatuous
p2458
aVtraumatized
p2459
aVapologists
p2460
aVhogs
p2461
aVchunky
p2462
aVfearfully
p2463
aVfatuously
p2464
aVsnub
p2465
aVlewdness
p2466
aVdecrement
p2467
aVcoercion
p2468
aVinadequately
p2469
aVdrippy
p2470
aVunthinkably
p2471
aVfeint
p2472
aVbemused
p2473
aVflaws
p2474
aVinjure
p2475
aVfaint
p2476
aVtyrannically
p2477
aVirritate
p2478
aVunpleasant
p2479
aValarmingly
p2480
aVdissent
p2481
aVmysterious
p2482
aVwobbles
p2483
aVgreasy
p2484
aVunthinkable
p2485
aVhegemony
p2486
aVcapriciously
p2487
aVflaw
p2488
aVdelaying
p2489
aVerode
p2490
aVexecrate
p2491
aVcontrive
p2492
aVregrettable
p2493
aVspoils
p2494
aVdissonantly
p2495
aVdrips
p2496
aVspoon-fed
p2497
aVexcuse
p2498
aVapprehensions
p2499
aVgrisly
p2500
aVdubious
p2501
aVhissed
p2502
aVamputate
p2503
aVdisfavor
p2504
aVobjections
p2505
aVstupify
p2506
aVpretense
p2507
aVflak
p2508
aVdomineer
p2509
aVdetriment
p2510
aVlascivious
p2511
aVdiscordance
p2512
aVgauche
p2513
aVsucky
p2514
aVanxieties
p2515
aVimprecisely
p2516
aVsucks
p2517
aVlong-winded
p2518
aVinsatiable
p2519
aVfrustratingly
p2520
aVentrapment
p2521
aVineffectual
p2522
aVtaut
p2523
aVperverts
p2524
aVsmelt
p2525
aVscramble
p2526
aVstubborn
p2527
aVshark
p2528
aVstampede
p2529
aVscam
p2530
aVchallenging
p2531
aVlife-threatening
p2532
aVoverstates
p2533
aVgravely
p2534
aVonslaught
p2535
aVdilly-dally
p2536
aVconspire
p2537
aVboycott
p2538
aVcoerce
p2539
aV; This file contains a list of NEGATIVE opinion words (or sentiment words).
p2540
aVdubiously
p2541
aVreproachful
p2542
aVdespot
p2543
aVfundamentalism
p2544
aVscar
p2545
aVallege
p2546
aVcondemn
p2547
aVinsignificantly
p2548
aVdistastefully
p2549
aVobnoxious
p2550
aVexasperate
p2551
aVmoribund
p2552
aVawkward
p2553
aVsloooooooooooooow
p2554
aVacrimony
p2555
aVbreaking
p2556
aVhardhearted
p2557
aVgoad
p2558
aVregression
p2559
aVhampered
p2560
aVoverbalance
p2561
aVheck
p2562
aVweed
p2563
aVreject
p2564
aVodder
p2565
aVpanders
p2566
aVwiles
p2567
aVperversely
p2568
aV;    http://www.cs.uic.edu/~liub/FBS/sentiment-analysis.html
p2569
aVrude
p2570
aVacerbate
p2571
aVinflationary
p2572
aVdisgraced
p2573
aVmalcontented
p2574
aVweaknesses
p2575
aVpreoccupy
p2576
aVidiocy
p2577
aVroadblocks
p2578
aVdisable
p2579
aVstartlingly
p2580
aVnumb
p2581
aVmendacity
p2582
aVgracelessly
p2583
aVskittishly
p2584
aVinconceivable
p2585
aVsarcastically
p2586
aVbleak
p2587
aVdiabolically
p2588
aVusurper
p2589
aVshortcomings
p2590
aVobstinately
p2591
aVdeluge
p2592
aVcrowded
p2593
aVfrictions
p2594
aVripoff
p2595
aVshady
p2596
aVspiteful
p2597
aVcrippling
p2598
aVdispensable
p2599
aVmislead
p2600
aVbashing
p2601
aVuntenable
p2602
aVdread
p2603
aVdeterioration
p2604
aVdeign
p2605
aVretaliate
p2606
aVadmonishment
p2607
aVimpermissible
p2608
aVcruelties
p2609
aVwreaks
p2610
aVcrafty
p2611
aVrue
p2612
aVegregiously
p2613
aVtraped
p2614
aVuneventful
p2615
aVoutrages
p2616
aVdisplease
p2617
aVincessantly
p2618
aVoblique
p2619
aVannoyingly
p2620
aVsetback
p2621
aVdeploring
p2622
aVdisabled
p2623
aVoutraged
p2624
aVlewdly
p2625
aVdizzing
p2626
aVunusually
p2627
aVsugarcoated
p2628
aVhell
p2629
aVruffle
p2630
aVsuffer
p2631
aVprevaricate
p2632
aVarrogant
p2633
aVirreformable
p2634
aVdisagreed
p2635
aVrepugnantly
p2636
aVemaciated
p2637
aVsugar-coated
p2638
aVsusceptible
p2639
aVreluctance
p2640
aVsensationalize
p2641
aVfamished
p2642
aVsymptoms
p2643
aVplotters
p2644
aVabsence
p2645
aVmisunderstandings
p2646
aVdisagrees
p2647
aVmistakenly
p2648
aVclamor
p2649
aVshort-lived
p2650
aVbereft
p2651
aVbackache
p2652
aVgoof
p2653
aVhurting
p2654
aVegotistically
p2655
aVdisrespectful
p2656
aVjob-killing
p2657
aVmotley
p2658
aVgoon
p2659
aVtorturous
p2660
aVtumbles
p2661
aVimpossible
p2662
aVincitement
p2663
aVprejudices
p2664
aVundissolved
p2665
aVimperil
p2666
aVvomit
p2667
aVcapriciousness
p2668
aVbelittle
p2669
aVmisuse
p2670
aVunauthentic
p2671
aVirrationality
p2672
aVcomplain
p2673
aVsucked
p2674
aVmystery
p2675
aVdesperately
p2676
aVstodgy
p2677
aVrant
p2678
aVtrashy
p2679
aVevade
p2680
aVdebacle
p2681
aVoveracted
p2682
aVpan
p2683
aVinadvisable
p2684
aVaggrieved
p2685
aVinordinately
p2686
aVshocking
p2687
aVharboring
p2688
aVintolerable
p2689
aVdisorganized
p2690
aVpredatory
p2691
aVbreakdown
p2692
aVharm
p2693
aVsteeply
p2694
aVrestless
p2695
aVneedless
p2696
aVhard
p2697
aVinconsequently
p2698
aVbickering
p2699
aVexorbitant
p2700
aVmuscle-flexing
p2701
aVbackbiting
p2702
aVderide
p2703
aVfist
p2704
aVdubitable
p2705
aVbalk
p2706
aVinflated
p2707
aVabsurdity
p2708
aVanarchy
p2709
aVrepressive
p2710
aVembattled
p2711
aVmissed
p2712
aVfuck
p2713
aVtenderness
p2714
aVpresumptuous
p2715
aVmiss
p2716
aVchildish
p2717
aVdisadvantages
p2718
aVdisquiet
p2719
aVdiscouraging
p2720
aVbellicose
p2721
aVdisbeliever
p2722
aVmisses
p2723
aVdejectedly
p2724
aVavenge
p2725
aVdespicably
p2726
aVblundering
p2727
aVsnappishly
p2728
aVissue
p2729
aVimpudence
p2730
aVtiring
p2731
aVoutrageous
p2732
aVnervously
p2733
aVflaunt
p2734
aVdisobedience
p2735
aVdictatorial
p2736
aVpathetic
p2737
aVdirt
p2738
aVstridently
p2739
aVbedlam
p2740
aVmisstatement
p2741
aVoverawe
p2742
aVpaucity
p2743
aVdifficulty
p2744
aVmonotony
p2745
aVdire
p2746
aVclique
p2747
aVdesiccate
p2748
aVlaughable
p2749
aVhapless
p2750
aVreproach
p2751
aVbash
p2752
aVblister
p2753
aVbumped
p2754
aVunresolved
p2755
aVomit
p2756
aVover-awe
p2757
aVbrazenly
p2758
aVinsolence
p2759
aVsicken
p2760
aVaudacity
p2761
aVprejudice
p2762
aVbragger
p2763
aVthreat
p2764
aVcataclysmically
p2765
aVavariciously
p2766
aVneglected
p2767
aVcorrupting
p2768
aVfallen
p2769
aVding
p2770
aVdissatisfy
p2771
aVunhealthy
p2772
aVperturb
p2773
aVradical
p2774
aVbelligerent
p2775
aVbullies
p2776
aVobsessiveness
p2777
aVbrutally
p2778
aVbarbarian
p2779
aVunusably
p2780
aVscandalously
p2781
aVgimmicks
p2782
aVcraps
p2783
aVsoapy
p2784
aVbland
p2785
aVslower
p2786
aVwrest
p2787
aVmist
p2788
aVjabber
p2789
aVdisown
p2790
aVprecariously
p2791
aVregret
p2792
aVbitchy
p2793
aVmoan
p2794
aVunexplained
p2795
aVsymptom
p2796
aVscathing
p2797
aVunfavorable
p2798
aVostracize
p2799
aVmercilessly
p2800
aVswipe
p2801
aV2-faces
p2802
aVfatcats
p2803
aVhangs
p2804
aVdoomsday
p2805
aVstarkly
p2806
aVflimsy
p2807
aVzealot
p2808
aVunimaginably
p2809
aVpains
p2810
aVsecond-class
p2811
aVmerciless
p2812
aVfumble
p2813
aVsunder
p2814
aVimperfect
p2815
aVuproarious
p2816
aVdiscombobulate
p2817
aVwildly
p2818
aVscarcely
p2819
aVfatique
p2820
aVobsolete
p2821
aVprofanity
p2822
aVgimmicking
p2823
aVindecisively
p2824
aVsatirical
p2825
aVfidget
p2826
aVscandals
p2827
aVstifle
p2828
aVrampant
p2829
aVcarnage
p2830
aVraping
p2831
aVungrateful
p2832
aV2-faced
p2833
aVsqueaky
p2834
aVlament
p2835
aVmiseries
p2836
aVintermittent
p2837
aVimpersonal
p2838
aVsqueaks
p2839
aVblah
p2840
aVbreakups
p2841
aVstall
p2842
aVrisks
p2843
aVinsulted
p2844
aVbattering
p2845
aVstale
p2846
aVheadache
p2847
aVabysmally
p2848
aVrisky
p2849
aVunrelenting
p2850
aVphobic
p2851
aVphobia
p2852
aVscarcity
p2853
aVstains
p2854
aVoppositions
p2855
aVsuspicious
p2856
aVoverstate
p2857
aVdefect
p2858
aVcuplrit
p2859
aVunjustifiable
p2860
aVrandomly
p2861
aVforgetfully
p2862
aVmurder
p2863
aVservitude
p2864
aVtraumatically
p2865
aVvileness
p2866
aVdisgustful
p2867
aVdouchebags
p2868
aVcumbersome
p2869
aVmawkish
p2870
aVvulnerable
p2871
aVinsufferably
p2872
aVdefects
p2873
aVhopelessly
p2874
aVoffender
p2875
aVvillianous
p2876
aVevasion
p2877
aVrefute
p2878
aVtarnish
p2879
aVlast-ditch
p2880
aVpry
p2881
aVjeopardize
p2882
aVgod-awful
p2883
aVsevere
p2884
aVvengefully
p2885
aVfreakishly
p2886
aVflares
p2887
aVirrationals
p2888
aVuseless
p2889
aVfrail
p2890
aVaggravating
p2891
aVhell-bent
p2892
aVinsufferable
p2893
aVinstigator
p2894
aVthreatening
p2895
aVludicrously
p2896
aVinconvenience
p2897
aVdisconcerted
p2898
aVpique
p2899
aVyawn
p2900
aVmiserly
p2901
aVhothouse
p2902
aVdiametrically
p2903
aVwar-like
p2904
aVnitpicking
p2905
aVoffensively
p2906
aVunequal
p2907
aVviciously
p2908
aVprickle
p2909
aVsmoulder
p2910
aVdisrespectfully
p2911
aVslumpping
p2912
aVunreasonable
p2913
aVfaithless
p2914
aVconcessions
p2915
aVdepressingly
p2916
aVdraconian
p2917
aVhindrance
p2918
aVbarren
p2919
aVfainthearted
p2920
aVdiscourage
p2921
aVdeceitfulness
p2922
aVscuffs
p2923
aVnaively
p2924
aVlying
p2925
aVboredom
p2926
aVleft-leaning
p2927
aVsmudges
p2928
aVniggle
p2929
aVugh
p2930
aVhumid
p2931
aVlanguid
p2932
aVacerbic
p2933
aVexterminate
p2934
aVagonize
p2935
aVswelling
p2936
aVflicker
p2937
aVnervousness
p2938
aVquarrels
p2939
aVaghast
p2940
aVindecorum
p2941
aVmartyrdom-seeking
p2942
aVinflexible
p2943
aVclog
p2944
aVdownbeat
p2945
aVruthlessness
p2946
aVgruesome
p2947
aVunderdog
p2948
aVoverwhelmed
p2949
aVnegligence
p2950
aVdistressing
p2951
aVaggravate
p2952
aVunusable
p2953
aVdelinquent
p2954
aVharassed
p2955
aVtorturously
p2956
aVparanoid
p2957
aVunrealistic
p2958
aVruin
p2959
aVinadvisably
p2960
aVlugubrious
p2961
aVparanoia
p2962
aVunhappy
p2963
aVpolemize
p2964
aVpenalty
p2965
aVfailed
p2966
aVidiots
p2967
aVspitefully
p2968
aVshamefulness
p2969
aVbetray
p2970
aVeruptions
p2971
aVfiend
p2972
aVflighty
p2973
aVhardened
p2974
aVharmed
p2975
aVindifference
p2976
aVparasite
p2977
aVrepulsing
p2978
aVintractable
p2979
aVabuses
p2980
aVantithetical
p2981
aVscuff
p2982
aVbabble
p2983
aVsmell
p2984
aVfictitious
p2985
aVhostile
p2986
aVstrut
p2987
aVzapped
p2988
aVperil
p2989
aVfarcical-yet-provocative
p2990
aVtime-consuming
p2991
aVsavagery
p2992
aVvenomous
p2993
aVfrightening
p2994
aVshemale
p2995
aVdistraction
p2996
aVenemy
p2997
aVterror-genic
p2998
aVoutbursts
p2999
aVchasten
p3000
aVcontagious
p3001
aVpernicious
p3002
aVlividly
p3003
aVthrottle
p3004
aVcry
p3005
aVtanked
p3006
aVcreak
p3007
aVmistakes
p3008
aVaudiciously
p3009
aVscreech
p3010
aVfelon
p3011
aVnaughty
p3012
aVfateful
p3013
aVobscure
p3014
aVcringe
p3015
aVbloated
p3016
aVinsensible
p3017
aVbulky
p3018
aVcramp
p3019
aVdisparagingly
p3020
aVstump
p3021
aVdisapproving
p3022
aVmischievously
p3023
aVoverwhelm
p3024
aVdeclines
p3025
aVprocrastinates
p3026
aVgrumpiest
p3027
aVsidetracked
p3028
aVmalignant
p3029
aVdumb
p3030
aVirredeemable
p3031
aVblunder
p3032
aVnuisance
p3033
aVperverted
p3034
aVsh*t
p3035
aVpetrify
p3036
aVvengeance
p3037
aVannihilation
p3038
aVill-treatment
p3039
aVthreats
p3040
aVinsidiously
p3041
aVhorrid
p3042
aVunsettling
p3043
aVblurt
p3044
aVforlorn
p3045
aVinefficacious
p3046
aVquarrellous
p3047
aVrejecting
p3048
aVblurs
p3049
aVback-wood
p3050
aVdegrading
p3051
aVsmuttier
p3052
aVjaundiced
p3053
aVabrade
p3054
aVfalsehood
p3055
aVincompatibility
p3056
aVdistraught
p3057
aVill-favored
p3058
aVdisliked
p3059
aVberserk
p3060
aVstagnation
p3061
aVinvoluntarily
p3062
aVhardship
p3063
aVnotoriously
p3064
aVfidgety
p3065
aVoppress
p3066
aVfigurehead
p3067
aVregretful
p3068
aVbetrayer
p3069
aVdisallow
p3070
aVincommensurate
p3071
aVcounter-productive
p3072
aVtramp
p3073
aVaggrieve
p3074
aVsmoldering
p3075
aVhallucination
p3076
aVabruptly
p3077
aVexpulse
p3078
aVdespise
p3079
aVdefunct
p3080
aVindiscriminately
p3081
aVhesitant
p3082
aVperplexed
p3083
aVcarelessness
p3084
aVquarrelsome
p3085
aVharpy
p3086
aVsty
p3087
aVdoggedly
p3088
aVscams
p3089
aVretarded
p3090
aVpoverty
p3091
aVdevilishly
p3092
aVapocalyptic
p3093
aVshortsighted
p3094
aVconceited
p3095
aVsloth
p3096
aVdistress
p3097
aVdrunk
p3098
aVembarrassing
p3099
aVcrippled
p3100
aVuncivil
p3101
aVsmother
p3102
aVasininely
p3103
aVimproper
p3104
aVpanicking
p3105
aVregretfully
p3106
aVglib
p3107
aVnonresponsive
p3108
aVpeeled
p3109
aVunsuccessful
p3110
aVnagging
p3111
aVturbulent
p3112
aVself-coup
p3113
aVacrid
p3114
aVdistrusting
p3115
aVexpensive
p3116
aVdisinterested
p3117
aVstartling
p3118
aVcomplication
p3119
aVoversimplify
p3120
aVfilth
p3121
aVfrets
p3122
aVmanipulation
p3123
aVoverlook
p3124
aVreprehensive
p3125
aVinconsequent
p3126
aVadulterate
p3127
aVincompatability
p3128
aVapprehensively
p3129
aVdamn
p3130
aVcoarse
p3131
aVthreaten
p3132
aVmockingly
p3133
aVscrewed-up
p3134
aVderisiveness
p3135
aVineptitude
p3136
aVdropout
p3137
aVaborts
p3138
aVimprudence
p3139
aVcruelty
p3140
aVdissension
p3141
aVpricey
p3142
aVdevil
p3143
aVdecadent
p3144
aVstupified
p3145
aVwomanizing
p3146
aVinexcusably
p3147
aVlaughingstock
p3148
aVfretful
p3149
aVchatter
p3150
aVstruck
p3151
aVinclement
p3152
aVstolen
p3153
aVoverplay
p3154
aVconspirator
p3155
aVfrozen
p3156
aVfleed
p3157
aVgrainy
p3158
aVwimpy
p3159
aVspitefulness
p3160
aVerror
p3161
aVendanger
p3162
aVloot
p3163
aVpitilessly
p3164
aVflees
p3165
aVfleer
p3166
aVuncompromising
p3167
aVinvidiousness
p3168
aVshoddy
p3169
aVcostly
p3170
aVdisavow
p3171
aVimperialist
p3172
aVdrawbacks
p3173
aVdemon
p3174
aVdecline
p3175
aVrip
p3176
aVrancor
p3177
aVhoax
p3178
aVgall
p3179
aVpricier
p3180
aVdebaser
p3181
aVfrantic
p3182
aVstubbornly
p3183
aVmeager
p3184
aVenervate
p3185
aVanguish
p3186
aVmeltdown
p3187
aVwail
p3188
aVruts
p3189
aVaches
p3190
aVlengthy
p3191
aVfacetiously
p3192
aVradicalization
p3193
aVachey
p3194
aVdishonor
p3195
aVfallacies
p3196
aVbutcher
p3197
aVthoughtlessly
p3198
aVdiscredit
p3199
aVineffective
p3200
aVspade
p3201
aVmadly
p3202
aVugliness
p3203
aVitchy
p3204
aVimpious
p3205
aVconflict
p3206
aVsham
p3207
aVmisguidance
p3208
aVcontravene
p3209
aVmortifying
p3210
aVdispleased
p3211
aVfatty
p3212
aVitch
p3213
aVlie
p3214
aVoverweight
p3215
aVcensure
p3216
aVjealously
p3217
aVimpede
p3218
aVrabid
p3219
aVunwillingly
p3220
aVill-fated
p3221
aVhaunting
p3222
aVuneasily
p3223
aVlivid
p3224
aVtimid
p3225
aVfabrication
p3226
aVinfamous
p3227
aVflirty
p3228
aVanti-israeli
p3229
aVoddest
p3230
aVwhores
p3231
aVpicky
p3232
aVstuffy
p3233
aVlacking
p3234
aVloathsome
p3235
aVgrind
p3236
aVunlicensed
p3237
aVinhibition
p3238
aVscummy
p3239
aVuproariously
p3240
aVtoil
p3241
aVrecant
p3242
aVappalled
p3243
aVgrossly
p3244
aVgrievance
p3245
aVdiscourteously
p3246
aVinterferes
p3247
aVpillory
p3248
aVvindictive
p3249
aVached
p3250
aVcommotion
p3251
aVirritably
p3252
aVignoble
p3253
aVdevastatingly
p3254
aVdistracting
p3255
aVrumbling
p3256
aVinactive
p3257
aVcocky
p3258
aVirritable
p3259
aVinsolent
p3260
aVlackadaisical
p3261
aVdishonesty
p3262
aVsuperficial
p3263
aVglitches
p3264
aVillusions
p3265
aVbotch
p3266
aVdastard
p3267
aVhated
p3268
aVdecayed
p3269
aVmiscreant
p3270
aVirritant
p3271
aVtormented
p3272
aVimpoverished
p3273
aVslave
p3274
aVlimp
p3275
aVhates
p3276
aVhater
p3277
aVdirtbag
p3278
aVcomplaint
p3279
aVoverthrows
p3280
aVcomplains
p3281
aVemergency
p3282
aVdiscriminatory
p3283
aVdisplace
p3284
aVscoldingly
p3285
aVsuffering
p3286
aVcataclysm
p3287
aVhallucinate
p3288
aVbloody
p3289
aVindiscernible
p3290
aVsmudging
p3291
aVpaupers
p3292
aVirretrievable
p3293
aVblemish
p3294
aVmiff
p3295
aVimmorally
p3296
aVconfront
p3297
aVmaltreatment
p3298
aVstagnate
p3299
aVdissemble
p3300
aVmistrustfully
p3301
aVstrife
p3302
aVignore
p3303
aVuproar
p3304
aVdistrust
p3305
aVunstable
p3306
aVsugar-coat
p3307
aVmediocrity
p3308
aVfoolish
p3309
aVinjury
p3310
aVtransgress
p3311
aVparalyzed
p3312
aVscare
p3313
aVdepravedly
p3314
aVfucking
p3315
aVextremism
p3316
aVdisinclined
p3317
aVimpeach
p3318
aVextremist
p3319
aVurgent
p3320
aVfelonious
p3321
aVpathetically
p3322
aV;    2. You will notice many misspelled words in the list. They are not
p3323
aVhard-line
p3324
aVselfishness
p3325
aVanti-american
p3326
aVbruising
p3327
aVpale
p3328
aVindigent
p3329
aVsavage
p3330
aVflagging
p3331
aVculprit
p3332
aVdefamation
p3333
aVback-logged
p3334
aVhalfheartedly
p3335
aVill-mannered
p3336
aVviciousness
p3337
aVbogus
p3338
aVpillage
p3339
aVapathetic
p3340
aVdismally
p3341
aVinimical
p3342
aVtwo-faced
p3343
aVlowly
p3344
aVcostlier
p3345
aVdepressions
p3346
aVtaxing
p3347
aVwayward
p3348
aVcrooks
p3349
aVodor
p3350
aVlose
p3351
aVobscures
p3352
aVunderlings
p3353
aVrefused
p3354
aVzombie
p3355
aVrestrictive
p3356
aVstew
p3357
aVtwo-faces
p3358
aVbs
p3359
aVrefuses
p3360
aVache
p3361
aV; This file and the papers can all be downloaded from
p3362
aVobscured
p3363
aVsubtract
p3364
aVintense
p3365
aVrut
p3366
aVunconfirmed
p3367
aVhawkish
p3368
aVdiscontented
p3369
aVpeeved
p3370
aVplunder
p3371
aVtortuous
p3372
aVinhumanity
p3373
aVordeal
p3374
aVvirus
p3375
aVwrinkles
p3376
aVfrightful
p3377
aVlifeless
p3378
aVambush
p3379
aVinexperienced
p3380
aVconfounded
p3381
aVwrinkled
p3382
aVhatred
p3383
aVbleeds
p3384
aVrestrict
p3385
aVpaltry
p3386
aVcriticized
p3387
aVmisbehavior
p3388
aVincoherence
p3389
aVprideful
p3390
aVdisturbingly
p3391
aVheedless
p3392
aVobstructed
p3393
aVdissatisfaction
p3394
aVharasses
p3395
aVinconstant
p3396
aVsmelly
p3397
aVobscenely
p3398
aVinhospitable
p3399
aVsubversion
p3400
aVinsurmountably
p3401
aVghosting
p3402
aVdownhill
p3403
aVdelusional
p3404
aVstench
p3405
aVcriticisms
p3406
aVsad
p3407
aVtraduce
p3408
aVsneaky
p3409
aVfrustrates
p3410
aVsneer
p3411
aVnauseates
p3412
aVchide
p3413
aVdestains
p3414
aVincongruously
p3415
aVaddicting
p3416
aVinexcusable
p3417
aVmishandle
p3418
aVoddities
p3419
aVcalumny
p3420
aVbored
p3421
aVtingled
p3422
aVscared
p3423
aVerrant
p3424
aVopponent
p3425
aVfragmented
p3426
aVforlornly
p3427
aVinsensitivity
p3428
aVimpudent
p3429
aVbyzantine
p3430
aVtreasonous
p3431
aVprohibitive
p3432
aVbrazenness
p3433
aVdisaffirm
p3434
aVimpoverish
p3435
aVhatefulness
p3436
aVarchaic
p3437
aVscratched
p3438
aVtragically
p3439
aVforbidding
p3440
aVwarlike
p3441
aVdull
p3442
aVflickers
p3443
aVmystify
p3444
aVdiscomfit
p3445
aVrejection
p3446
aVcorrupts
p3447
aVblockage
p3448
aVhideousness
p3449
aVslowwww
p3450
aVfull-blown
p3451
aVhalfhearted
p3452
aVslander
p3453
aVzealously
p3454
aVindefensible
p3455
aVaversion
p3456
aVretaliatory
p3457
aVskittish
p3458
aVrepulse
p3459
aVcurt
p3460
aVimpudently
p3461
aVfreak
p3462
aVoddity
p3463
aVcastrated
p3464
aVnepotism
p3465
aVinexpertly
p3466
aVlackeys
p3467
aVunsafe
p3468
aVhaunt
p3469
aVdeprive
p3470
aVdivisive
p3471
aVwarning
p3472
aVseethe
p3473
aVshrivel
p3474
aVone-sided
p3475
aVunwise
p3476
aVobtuse
p3477
aVdragging
p3478
aVtouted
p3479
aVdenying
p3480
aVsuicide
p3481
aVcackle
p3482
aVcaustically
p3483
aVsullen
p3484
aVlemon
p3485
aVnag
p3486
aVunjustifiably
p3487
aVtentative
p3488
aVevils
p3489
aVinequities
p3490
aVmalicious
p3491
aVcontrived
p3492
aVfutilely
p3493
aVrift
p3494
aVexcuses
p3495
aVrevulsive
p3496
aVcramped
p3497
aVdefrauding
p3498
aVirreplacible
p3499
aVdimmer
p3500
aVinglorious
p3501
aVassassinate
p3502
aVdeviate
p3503
aVmock
p3504
aVraped
p3505
aVscapegoat
p3506
aVwrongly
p3507
aVaccidental
p3508
aVbesiege
p3509
aVmalevolently
p3510
aVproblems
p3511
aVbravado
p3512
aVinflame
p3513
aVdrag
p3514
aVself-criticism
p3515
aVsuppression
p3516
aVruthlessly
p3517
aVwrinkle
p3518
aVdesert
p3519
aVeffrontery
p3520
aVunprove
p3521
aVhells
p3522
aVgloatingly
p3523
aVsuffers
p3524
aVmindlessly
p3525
aVvice
p3526
aVtank
p3527
aVappalling
p3528
aVimpatient
p3529
aVdeviousness
p3530
aVperplex
p3531
aVprotests
p3532
aVinaccuracy
p3533
aVfailures
p3534
aVmenace
p3535
aVimprecise
p3536
aVoffensiveness
p3537
aVtraitorously
p3538
aVpervert
p3539
aVdogged
p3540
aVrubbish
p3541
aVunuseably
p3542
aVeffigy
p3543
aVrants
p3544
aVknotted
p3545
aV;       mean that the sentence expresses a positive or negative opinion.
p3546
aVwrangle
p3547
aVposturing
p3548
aVinfuriating
p3549
aVhellion
p3550
aVmisreading
p3551
aVamiss
p3552
aVdiscordant
p3553
aVoverzealously
p3554
aVegomania
p3555
aVbumpping
p3556
aVunfaithful
p3557
aVworrisome
p3558
aVrigidity
p3559
aVdeviously
p3560
aVhoodium
p3561
aVblindingly
p3562
aVdistains
p3563
aVarrogance
p3564
aVloathsomely
p3565
aVcorrosive
p3566
aVobstinate
p3567
aVrantingly
p3568
aVbarbarically
p3569
aVbreach
p3570
aVdislike
p3571
aVblandish
p3572
aVlaggy
p3573
aVkaput
p3574
aVmoot
p3575
aVpestilent
p3576
aVannoy
p3577
aVimplausibly
p3578
aVmurderous
p3579
aVtorture
p3580
aVpunitive
p3581
aVimprisonment
p3582
aVconfounding
p3583
aVdrop-outs
p3584
aVprecarious
p3585
aVheadaches
p3586
aVneurotic
p3587
aVaccuse
p3588
aVspook
p3589
aVimplausible
p3590
aVsubservient
p3591
aVdiscouragement
p3592
aVimpolitely
p3593
aVdefamatory
p3594
aVundue
p3595
aVdetested
p3596
aVunhappily
p3597
aVneedy
p3598
aVincoherent
p3599
aVexcruciating
p3600
aVstiff
p3601
aViniquity
p3602
aVshock
p3603
aVtenuously
p3604
aVbewilderingly
p3605
aVdamning
p3606
aVanxious
p3607
aVdeformed
p3608
aVcatastrophes
p3609
aVexasperatingly
p3610
aVinsubordinate
p3611
aVsedentary
p3612
aVchoppy
p3613
aVrefuse
p3614
aVpleas
p3615
aVslow
p3616
aVpretend
p3617
aV;       frequently in social media content.
p3618
aVdisordered
p3619
aVabominably
p3620
aVrecklessness
p3621
aVbleeding
p3622
aVfatalistic
p3623
aVuncomfortably
p3624
aVencroachment
p3625
aVmalice
p3626
aVfrigid
p3627
aVunprofitable
p3628
aVcrook
p3629
aVsquabble
p3630
aVuncomfortable
p3631
aVovertaxed
p3632
aVlanguor
p3633
aVabominable
p3634
aVodd
p3635
aVleakage
p3636
aVdepression
p3637
aVdisappoints
p3638
aVbackaches
p3639
aVpittance
p3640
aVunavailable
p3641
aVimpasse
p3642
aVwaning
p3643
aVgrating
p3644
aVperversion
p3645
aVbearish
p3646
aVexacerbate
p3647
aVsweaty
p3648
aVunhelpful
p3649
aVthrob
p3650
aVrotten
p3651
aVaground
p3652
aVvolatile
p3653
aVself-defeating
p3654
aVdrags
p3655
aV;
aVintrusive
p3656
aVpoky
p3657
aVraked
p3658
aVdefiler
p3659
aVmelancholy
p3660
aVdenunciations
p3661
aVsneeringly
p3662
aVembroilment
p3663
aVupsetting
p3664
aVnitpick
p3665
aVrepudiation
p3666
aVuncollectible
p3667
aVpunch
p3668
aVmisgiving
p3669
aVelimination
p3670
aVradicals
p3671
aVbowdlerize
p3672
aVlicentiousness
p3673
aVsink
p3674
aVinsouciance
p3675
aVwoefully
p3676
aVdissuade
p3677
aVho-hum
p3678
aVdiscouragingly
p3679
aVpolution
p3680
aVimperfections
p3681
aVforgetfulness
p3682
aVrevile
p3683
aVgabble
p3684
aVnebulous
p3685
aVindiscreetly
p3686
aVdistressed
p3687
aVgullible
p3688
aVtrivialize
p3689
aVinoperable
p3690
aVtroublemaker
p3691
aVaudaciousness
p3692
aVcontradiction
p3693
aVstubbornness
p3694
aVavaricious
p3695
aVdastardly
p3696
aVineffectualness
p3697
aVnervous
p3698
aVwack
p3699
aVacridness
p3700
aVabominate
p3701
aVdissolute
p3702
aVslogging
p3703
aVdanger
p3704
aVforbid
p3705
aVgrotesque
p3706
aVdisobey
p3707
aVconfession
p3708
aVapprehensive
p3709
aVimprobably
p3710
aVrepugn
p3711
aVimprobable
p3712
aVweaker
p3713
aVbust
p3714
aVmortify
p3715
aVdoubtfully
p3716
aVinfest
p3717
aVgimmick
p3718
aVoverzelous
p3719
aVinconveniently
p3720
aVcloud
p3721
aVseething
p3722
aVabsurdness
p3723
aVwashed-out
p3724
aVdissonance
p3725
aVcrap
p3726
aVdesperation
p3727
aVbelittling
p3728
aVbreakup
p3729
aVineffectively
p3730
aVdemoralizingly
p3731
aVslug
p3732
aVprocrastinate
p3733
aVanti-semites
p3734
aVlittle-known
p3735
aVdoubt
p3736
aVscariest
p3737
aVirrepressible
p3738
aVbitterly
p3739
aVdisappointingly
p3740
aVnoisy
p3741
aVmaledict
p3742
aVdisgustingly
p3743
aVrepulsiveness
p3744
aVdispirited
p3745
aVshipwreck
p3746
aVinfamy
p3747
aVexasperating
p3748
aVcredulous
p3749
aVfrighten
p3750
aVinfection
p3751
aVdripping
p3752
aVinsincerity
p3753
aVsore
p3754
aVinsufficiency
p3755
aVuncompetitive
p3756
aVvirulence
p3757
aVdebaucher
p3758
aVtattered
p3759
aVeccentricity
p3760
aVenviously
p3761
aVinattentive
p3762
aVunforgiving
p3763
aVrivalry
p3764
aVwretch
p3765
aVinexpiable
p3766
aVconscons
p3767
aVunscrupulously
p3768
aVhurted
p3769
aVdisingenuous
p3770
aVretreated
p3771
aVpout
p3772
aVjeers
p3773
aVlapse
p3774
aVcritic
p3775
aVfractiously
p3776
aVfeebleminded
p3777
aVgruff
p3778
aVmonster
p3779
aVsnobby
p3780
aVirreparable
p3781
aVlanguorously
p3782
aVaweful
p3783
aVpicket
p3784
aVwedge
p3785
aVimmoderate
p3786
aVproprietary
p3787
aVbent
p3788
aVoverpayed
p3789
aVbeleaguer
p3790
aVvillian
p3791
aVwater-down
p3792
aVunorthodoxy
p3793
aVvicious
p3794
aVcondescend
p3795
aVbull----
p3796
aVrecklessly
p3797
aVdevastate
p3798
aVcowardly
p3799
aVcontempt
p3800
aVweaken
p3801
aVgalls
p3802
aVclogs
p3803
aVsyndrome
p3804
aVdefective
p3805
aVget-rich
p3806
aVambivalence
p3807
aVtamper
p3808
aVembarrassingly
p3809
aVsillily
p3810
aVnegation
p3811
aVpatronize
p3812
aVapocalypse
p3813
aVspurious
p3814
aVignominious
p3815
aVcalumnious
p3816
aVundersized
p3817
aVstruggled
p3818
aVdeplore
p3819
aVsin
p3820
aVocclude
p3821
aVmislike
p3822
aVabrasive
p3823
aVpuppets
p3824
aVfuriously
p3825
aVscornful
p3826
aVterrible
p3827
aVincompetence
p3828
aVdetests
p3829
aVimpenitent
p3830
aVhazard
p3831
aVbothered
p3832
aVdiscomfort
p3833
aVpigs
p3834
aVfatigue
p3835
aVunnaturally
p3836
aVinsufficient
p3837
aVdebasement
p3838
aVbombastic
p3839
aVresent
p3840
aVflagrantly
p3841
aVambiguous
p3842
aVlecher
p3843
aVdiabolical
p3844
aVnoises
p3845
aVarduous
p3846
aVavarice
p3847
aVredundant
p3848
aVwrip
p3849
aVcheapen
p3850
aValienation
p3851
aVwomanizer
p3852
aVfurious
p3853
aV;          Handbook of Natural Language Processing, Second Edition,
p3854
aVirregularity
p3855
aVprocrastination
p3856
aVuntimely
p3857
aVgloomy
p3858
aVresurgent
p3859
aVfeeblely
p3860
aVlanguorous
p3861
aVcontaminates
p3862
aVricer
p3863
aVdisarm
p3864
aVrebellious
p3865
aVstruggles
p3866
aVapathetically
p3867
aVless-developed
p3868
aVtyrant
p3869
aVindignantly
p3870
aVfatally
p3871
aVvilify
p3872
aVmire
p3873
aVcontaminated
p3874
aVsubversive
p3875
aVdelay
p3876
aVcrabby
p3877
aVexclusion
p3878
aVdecay
p3879
aVgoading
p3880
aVflawed
p3881
aVlech
p3882
aVregress
p3883
aVcriticize
p3884
aVblatant
p3885
aVcorruptted
p3886
aVinconsistencies
p3887
aVcholeric
p3888
aVfustigate
p3889
aVdemoralize
p3890
aVrip-off
p3891
aVcuss
p3892
aVacridly
p3893
aVcrash
p3894
aVlunatic
p3895
aVgrievances
p3896
aVnon-confidence
p3897
aVconspiratorial
p3898
aVmuddle
p3899
aVdenigrate
p3900
aVflout
p3901
aVnegligent
p3902
aVheavy-handed
p3903
aVoverbearing
p3904
aVbothering
p3905
aVseriousness
p3906
aVimpaired
p3907
aVloner
p3908
aVpompous
p3909
aVgrudgingly
p3910
aVcrass
p3911
aVbewilderment
p3912
aVspilling
p3913
aVspoon-feed
p3914
aVirks
p3915
aVscrambling
p3916
aVimmoral
p3917
aVsacrificed
p3918
aVirrelevance
p3919
aVdevilment
p3920
aVsully
p3921
aVunpredictable
p3922
aVadmonisher
p3923
aVsneering
p3924
aVpales
p3925
aVshortage
p3926
aVdisregard
p3927
aVlicentiously
p3928
aVcliched
p3929
aVerratic
p3930
aVflair
p3931
aVunjustly
p3932
aVthwart
p3933
aVscaly
p3934
aVbump
p3935
aVtepid
p3936
aVstresses
p3937
aVoutlaw
p3938
aVlesser-known
p3939
aVheavyhearted
p3940
aVmundane
p3941
aVcastigate
p3942
aVirritation
p3943
aVjagged
p3944
aVbanal
p3945
aVbluring
p3946
aVtainted
p3947
aVlukewarm
p3948
aVconceit
p3949
aVpertinacity
p3950
aVconfess
p3951
aVdisarray
p3952
aVunlawful
p3953
aVchaos
p3954
aVrepress
p3955
aVplaything
p3956
aVinvective
p3957
aVwearisome
p3958
aVshambles
p3959
aVunprepared
p3960
aVdisapointed
p3961
aVshortsightedness
p3962
aVobsessive
p3963
aVoccluding
p3964
aVdespairing
p3965
aVobsess
p3966
aVindecently
p3967
aVperish
p3968
aVassail
p3969
aVunwieldy
p3970
aVchastise
p3971
aVdiscontinuity
p3972
aVhumiliating
p3973
aVinferiority
p3974
aV;       2005, Chiba, Japan.
p3975
aVpresumptuously
p3976
aVhype
p3977
aVunipolar
p3978
aVundocumented
p3979
aVupbraid
p3980
aVadulterier
p3981
aVdissenter
p3982
aVimplode
p3983
aVretards
p3984
aVembarrass
p3985
aVdelinquency
p3986
aVimpulsive
p3987
aVbleed
p3988
aVadulteration
p3989
aVimprecision
p3990
aVdrowning
p3991
aVcorrosion
p3992
aVdissatisfactory
p3993
aVinconceivably
p3994
aVlone
p3995
aVpeeve
p3996
aVdeprived
p3997
aVscars
p3998
aVobstacle
p3999
aVthrobs
p4000
aVirking
p4001
aVrelentless
p4002
aVchilly
p4003
aVabuse
p4004
aVrepulsed
p4005
aVbarbarity
p4006
aVcunts
p4007
aVbiting
p4008
aVgrieving
p4009
aVsorrowful
p4010
aVbuckle
p4011
aVinsane
p4012
aVobscurity
p4013
aVunskilled
p4014
aVbleakness
p4015
aVconfuse
p4016
aVsack
p4017
aVmadden
p4018
aVstraining
p4019
aVlistless
p4020
aVpuppet
p4021
aVbitch
p4022
aVlagging
p4023
aVaffliction
p4024
aVpauper
p4025
aVfrazzle
p4026
aVimportunate
p4027
aVdeceptive
p4028
aVcynical
p4029
aVunlawfulness
p4030
aVunknown
p4031
aVflakieness
p4032
aVvulgar
p4033
aVunspecified
p4034
aVlamentable
p4035
aVimmovable
p4036
aVattack
p4037
aVlamentably
p4038
aVunbelievably
p4039
aVirredeemably
p4040
aVscant
p4041
aVbelligerently
p4042
aVferocity
p4043
aVterribleness
p4044
aVboil
p4045
aVmisunderstood
p4046
aVmalady
p4047
aVoverpower
p4048
aVsloppily
p4049
aVunscrupulous
p4050
aVchagrin
p4051
aVpunish
p4052
aVdoomed
p4053
aVshallow
p4054
aVdreary
p4055
aVmotionless
p4056
aVdepressing
p4057
aVdeteriorating
p4058
aVskeptically
p4059
aVabsent-minded
p4060
aVdisrespectablity
p4061
aVfuzzy
p4062
aVoverwhelming
p4063
aVapologist
p4064
aVvague
p4065
aVunappealing
p4066
aVbashed
p4067
aVslack
p4068
aVegregious
p4069
aVbrusque
p4070
aVboring
p4071
aVbother
p4072
aVanti-proliferation
p4073
aVaggressor
p4074
aVbeg
p4075
aVtortured
p4076
aVcartoonish
p4077
aVcalamity
p4078
aVtransgression
p4079
aVrollercoaster
p4080
aVfastidiously
p4081
aVallergic
p4082
aVsteep
p4083
aVtorrent
p4084
aVmisunderstand
p4085
aVvengeful
p4086
aVaccusing
p4087
aVconflicts
p4088
aVfalse
p4089
aVbeggar
p4090
aVwoebegone
p4091
aVplasticky
p4092
aVabomination
p4093
aVsardonic
p4094
aVdisapointment
p4095
aVpersecute
p4096
aVinterruptions
p4097
aVnosey
p4098
aVkilljoy
p4099
aVmisaligned
p4100
aVbastard
p4101
aVafraid
p4102
aVhegemonism
p4103
aVhaywire
p4104
aVregressive
p4105
aVmistress
p4106
aVallergies
p4107
aVfanatic
p4108
aVboastful
p4109
aVthorny
p4110
aVmeasly
p4111
aVrepugnant
p4112
aVforbidden
p4113
aVconcerns
p4114
aVpretentiously
p4115
aVexpire
p4116
aVunsettled
p4117
aVdissuasive
p4118
aVpickets
p4119
aVautocratic
p4120
aVtyrannical
p4121
aVembroiled
p4122
aVsavages
p4123
aVstringently
p4124
aVbuggy
p4125
aVspinster
p4126
aVdisavowal
p4127
aVclash
p4128
aVdisgustedly
p4129
aVunleash
p4130
aVdisappointments
p4131
aVfatalistically
p4132
aVharmful
p4133
aVdisheartening
p4134
aVbrutalising
p4135
aVdemise
p4136
aVsavaged
p4137
aVhobble
p4138
aVprisoner
p4139
aVmisjudgment
p4140
aValarmed
p4141
aVexpired
p4142
aVbloodthirsty
p4143
aVwaste
p4144
aVdeny
p4145
aVdisrespecting
p4146
aVscrambles
p4147
aVappallingly
p4148
aVtemptation
p4149
aVupset
p4150
aVbungle
p4151
aVmisalign
p4152
aVscrambled
p4153
aVabsurd
p4154
aVfiasco
p4155
aVnebulously
p4156
aVunsophisticated
p4157
aVskinny
p4158
aVmaddeningly
p4159
aVinane
p4160
aVcontemptuous
p4161
aVinexorably
p4162
aVqualms
p4163
aVunsettle
p4164
aVcovetous
p4165
aVreprehensible
p4166
aV;       International World Wide Web conference (WWW-2005), May 10-14,
p4167
aVsceptical
p4168
aVbanalize
p4169
aVwince
p4170
aVvengefulness
p4171
aVmalodorous
p4172
aVfarfetched
p4173
aVineloquent
p4174
aVdowncast
p4175
aVtraitor
p4176
aVslanderer
p4177
aVrebuke
p4178
aVdisvalue
p4179
aVpasse
p4180
aVmolest
p4181
aVreprehensibly
p4182
aVtrivial
p4183
aVthicker
p4184
aVincompliant
p4185
aVwrestle
p4186
aVuprising
p4187
aVbull****
p4188
aVunfinished
p4189
aVcraziness
p4190
aVidiocies
p4191
aVmadman
p4192
aVmisjudge
p4193
aVrash
p4194
aVstrident
p4195
aVineffectually
p4196
aVdestabilisation
p4197
aVjam
p4198
aVpreposterously
p4199
aVbetrayals
p4200
aVcatastrophies
p4201
aVsmutty
p4202
aVwretchedness
p4203
aVsinisterly
p4204
aVinfernal
p4205
aVinferior
p4206
aVhead-aches
p4207
aVprosecute
p4208
aVhassles
p4209
aVsued
p4210
aVtopple
p4211
aVdelirious
p4212
aVcrumbling
p4213
aVdope
p4214
aVmassacre
p4215
aVcranky
p4216
aVindiscreet
p4217
aVdespoiler
p4218
aVmalaise
p4219
aVsues
p4220
aVhassled
p4221
aVfallout
p4222
aVhothead
p4223
aVforebodingly
p4224
aVdoubtful
p4225
aVburned
p4226
aVantagonist
p4227
aVghetto
p4228
aVheretic
p4229
aVdishearten
p4230
aVawkwardness
p4231
aVcontemptible
p4232
aVupseting
p4233
aV;    1. The appearance of an opinion word in a sentence does not necessarily
p4234
aVdeceiver
p4235
aVdissidents
p4236
aVdejected
p4237
aVbeguile
p4238
aVdefame
p4239
aVcorruption
p4240
aVhollow
p4241
aVdisingenuously
p4242
aVdisapprobation
p4243
aVallegation
p4244
aVprotesting
p4245
aVmisdirection
p4246
aVshortchange
p4247
aVmonstrosities
p4248
aVcraven
p4249
aVlimitations
p4250
aVkill
p4251
aVomission
p4252
aVsunk
p4253
aVhumiliation
p4254
aVexpel
p4255
aVcatastrophic
p4256
aVshowdown
p4257
aVshrouded
p4258
aVlazy
p4259
aVfreeze
p4260
aVscandalize
p4261
aV;          (editors: N. Indurkhya and F. J. Damerau), 2010.
p4262
aVinexplainable
p4263
aVdesititute
p4264
aVdesperate
p4265
aVmisapprehend
p4266
aVrifts
p4267
aVoverturn
p4268
aVstrike
p4269
aVworryingly
p4270
aVdungeon
p4271
aVbrittle
p4272
aVimposition
p4273
aVinsulting
p4274
aVoutrageousness
p4275
aVnightmare
p4276
aVdullard
p4277
aVworthlessness
p4278
aVmishap
p4279
aVthoughtlessness
p4280
aVscathingly
p4281
aVdistressingly
p4282
aVtaunting
p4283
aVinjustice
p4284
aVderisively
p4285
aVhorrible
p4286
aVcrude
p4287
aVtravesties
p4288
aVtediously
p4289
aVfrustrated
p4290
aVcorrode
p4291
aVbrowbeat
p4292
aVdirty
p4293
aVdismaying
p4294
aVderogatory
p4295
aVtimidly
p4296
aVexplosive
p4297
aVdouchbag
p4298
aVmockery
p4299
aVmordantly
p4300
aVbelie
p4301
aVsorrow
p4302
aVreprimand
p4303
aVoppressiveness
p4304
aVlaid-off
p4305
aVindiscriminate
p4306
aVbemoan
p4307
aVcalamitously
p4308
aVbarbarously
p4309
aVrefuting
p4310
aVspoil
p4311
aVself-interested
p4312
aVparadoxically
p4313
aVstutters
p4314
aVpoorer
p4315
aVmulish
p4316
aVabsentee
p4317
aVdeclining
p4318
aVhaughty
p4319
aVundetermined
p4320
aVuntouched
p4321
aVtantrum
p4322
aVnauseating
p4323
aVinundate
p4324
aVasunder
p4325
aVlimits
p4326
aVperfidious
p4327
aVjoke
p4328
aVmonstrously
p4329
aVpowerless
p4330
aVgrouse
p4331
aVrecession
p4332
aVinsidious
p4333
aVinsociable
p4334
aVclogged
p4335
aVdirts
p4336
aVpropagandize
p4337
aVfear
p4338
aVvent
p4339
aVinflammatory
p4340
aVspewed
p4341
aVopposition
p4342
aVinvasive
p4343
aVcontamination
p4344
aVnarrower
p4345
aVunwisely
p4346
aVimperfection
p4347
aVinvisible
p4348
aVimpolitic
p4349
aVcoercive
p4350
aVremorseless
p4351
aVaccursed
p4352
aVunclean
p4353
aVinstigators
p4354
aVimplicate
p4355
aVundependable
p4356
aVoutsider
p4357
aVdisintegrate
p4358
aVmuddy
p4359
aVunaffordable
p4360
aVmismanage
p4361
aVwhiny
p4362
aVegotism
p4363
aVfrenetically
p4364
aVobjectionable
p4365
aVqueer
p4366
aVjeeringly
p4367
aVimpetuously
p4368
aVbewildering
p4369
aVuproarous
p4370
aVanomaly
p4371
aVtyranny
p4372
aVintefere
p4373
aVslumping
p4374
aVfibber
p4375
aVf**k
p4376
aVbutchery
p4377
aVjaded
p4378
aVoverwhelmingly
p4379
aVinjustices
p4380
aVmeddlesome
p4381
aVdispiritedly
p4382
aVcommiserate
p4383
aVmisguide
p4384
aVtense
p4385
aVgnawing
p4386
aVhateful
p4387
aVlawlessness
p4388
aVignominy
p4389
aVvanity
p4390
aVenviousness
p4391
aVshameless
p4392
aVbanish
p4393
aVhypocrite
p4394
aVwreck
p4395
aVimbalance
p4396
aVsourly
p4397
aVlecherous
p4398
aVintimidate
p4399
aVundermines
p4400
aVbrat
p4401
aVinnuendo
p4402
aVirate
p4403
aVpretentious
p4404
aVharden
p4405
aVremorselessly
p4406
aVfascism
p4407
aVinaccurately
p4408
aVfault
p4409
aVwild
p4410
aVsmokescreen
p4411
aVdebility
p4412
aVintolerablely
p4413
aVfrustrating
p4414
aVmisguided
p4415
aVexorbitantance
p4416
aVvainly
p4417
aVdent
p4418
aVlayoff
p4419
aVbicker
p4420
aVchaotic
p4421
aVcramping
p4422
aVdelusion
p4423
aVunworkable
p4424
aVdisapprove
p4425
aVimmoderately
p4426
aVdraining
p4427
aVexcessively
p4428
aVvillainously
p4429
aVprecipitous
p4430
aVaggressiveness
p4431
aVominously
p4432
aVdeterrent
p4433
aVwhore
p4434
aVcontention
p4435
aVtumbled
p4436
aVunfaithfully
p4437
aVdenial
p4438
aVbroke
p4439
aVexagerates
p4440
aVblasphemous
p4441
aVrhetorical
p4442
aVcalamitous
p4443
aVmaddening
p4444
aVindistinguishable
p4445
aVdefiant
p4446
aVexagerated
p4447
aVadverse
p4448
aVstrange
p4449
aVdevastated
p4450
aVripped
p4451
aVoutbreak
p4452
aVterrorism
p4453
aVfanatics
p4454
aVdisorient
p4455
aVdifficult
p4456
aVgarish
p4457
aVconflicting
p4458
aVunimaginable
p4459
aVprickles
p4460
aVhardliner
p4461
aVspiritless
p4462
aVreactionary
p4463
aVselfish
p4464
aVeccentric
p4465
aVdisagree
p4466
aVstumbled
p4467
aVoutcast
p4468
aVbullying
p4469
aVdisquieting
p4470
aVstumped
p4471
aVsagged
p4472
aVspew
p4473
aVpainful
p4474
aVappall
p4475
aVdust
p4476
aVjunky
p4477
aVtoll
p4478
aVblurring
p4479
aVsteals
p4480
aVdestruction
p4481
aVillogical
p4482
aVretard
p4483
aVgutter
p4484
aVdistraughtness
p4485
aVoversights
p4486
aVglower
p4487
aVchastisement
p4488
aVdissing
p4489
aVdisoriented
p4490
aVenrage
p4491
aVsueing
p4492
aVinsurmountable
p4493
aVcatastrophically
p4494
aVillusory
p4495
aVdeadly
p4496
aVonerously
p4497
aVfail
p4498
aVraving
p4499
aVpoisonously
p4500
aVdevilry
p4501
aVexcessive
p4502
aVintransigence
p4503
aVill-tempered
p4504
aVdiscord
p4505
aVdissatisfying
p4506
aVlaconic
p4507
aVglut
p4508
aVmistaken
p4509
aVinveigle
p4510
aVback-woods
p4511
aVglum
p4512
aVmiserableness
p4513
aVsmash
p4514
aVdispleasing
p4515
aVfat-cats
p4516
aVuntested
p4517
aVhypocritically
p4518
aVunjust
p4519
aVtemerity
p4520
aVdisturbance
p4521
aVrun-down
p4522
aVsquabbling
p4523
aVfreakish
p4524
aVmaliciously
p4525
aVmorbidly
p4526
aVkilled
p4527
aVignorance
p4528
aVstressfully
p4529
aVdevastates
p4530
aVcrack
p4531
aVcontradictory
p4532
aVconfusions
p4533
aVuncompromisingly
p4534
aVscoundrel
p4535
aVindignation
p4536
aVstumbles
p4537
aVvirulently
p4538
aVquarrellously
p4539
aVcommotions
p4540
aVstumps
p4541
aVmyth
p4542
aVmiscalculate
p4543
aVtesty
p4544
aVtaunt
p4545
aVcrushed
p4546
aVvirulent
p4547
aVfrighteningly
p4548
aVsuspiciously
p4549
aVobstructs
p4550
aVburden
p4551
aVhypocricy
p4552
aVatrophy
p4553
aVspookily
p4554
aVincessant
p4555
aVunneeded
p4556
aVdisservice
p4557
aVdebatable
p4558
aVloss
p4559
aVdisplaced
p4560
aVincomprehensible
p4561
aVinsolvent
p4562
aVlost
p4563
aVbigotry
p4564
aVmistrustful
p4565
aVloser
p4566
aVloses
p4567
aVincendiary
p4568
aVestranged
p4569
aVflickering
p4570
aVimprison
p4571
aVsunken
p4572
aVtauntingly
p4573
aVbafflement
p4574
aVadversity
p4575
aVfruitless
p4576
aVdazed
p4577
aVglare
p4578
aVshabby
p4579
aVtumble
p4580
aVimaginary
p4581
aVmisgivings
p4582
aVdifficulties
p4583
aVflagrant
p4584
aVsubvert
p4585
aVjunk
p4586
aVhoodwink
p4587
aVcrazily
p4588
aVprohibit
p4589
aVblameworthy
p4590
aVoblivious
p4591
aVauthoritarian
p4592
aVhissing
p4593
aVleery
p4594
aVhumming
p4595
aVshrug
p4596
aVfrazzled
p4597
aVhelplessness
p4598
aVbrood
p4599
aVcruelest
p4600
aVdisbelief
p4601
aVleak
p4602
aVtraumatic
p4603
aVeyesore
p4604
aVoppressively
p4605
aVunsupportive
p4606
aVinflammation
p4607
aVscrewed
p4608
aVwarned
p4609
aVhysterically
p4610
aVironies
p4611
aVblurry
p4612
aVtrap
p4613
aVhinder
p4614
aVunlamentably
p4615
aVmania
p4616
aVnoise
p4617
aVmurderer
p4618
aVinaccurate
p4619
aVslooow
p4620
aVslur
p4621
aVcombative
p4622
aVextravagance
p4623
aVworthless
p4624
aVslut
p4625
aVdawdle
p4626
aVdogmatic
p4627
aVimperfectly
p4628
aVirretating
p4629
aVwoe
p4630
aVasinine
p4631
aVscolded
p4632
aVhostage
p4633
aVindolent
p4634
aVdespoil
p4635
aVmisbecoming
p4636
aVcoldly
p4637
aVjobless
p4638
aVinconsiderate
p4639
aVun-viewable
p4640
aVwreak
p4641
aVashamed
p4642
aVbewilder
p4643
aVstereotypically
p4644
aVvexation
p4645
aVsinister
p4646
aVflake
p4647
aVflaky
p4648
aVunaccessible
p4649
aVingrate
p4650
aVarrogantly
p4651
aVconcession
p4652
aVuncaring
p4653
aVobnoxiously
p4654
aVfutility
p4655
aVbaseless
p4656
aVhigh-priced
p4657
aVvillify
p4658
aVargumentative
p4659
aVdud
p4660
aVuncertain
p4661
aVobliterated
p4662
aVfascist
p4663
aVrecessionary
p4664
aVchronic
p4665
aVcancerous
p4666
aVdisaffected
p4667
aVrigidness
p4668
aVskeptical
p4669
aVsecretive
p4670
aVnegate
p4671
aVunproductive
p4672
aVfraud
p4673
aVpointless
p4674
aVgape
p4675
aVmacabre
p4676
aVpanick
p4677
aVinsupportably
p4678
aVimpatience
p4679
aVembroil
p4680
aVnoxious
p4681
aVlagged
p4682
aVtrapped
p4683
aVadversarial
p4684
aVdisapproval
p4685
aVkooky
p4686
aVbraggart
p4687
aVdelusions
p4688
aVfrustration
p4689
aVheresy
p4690
aVtroubling
p4691
aVrumors
p4692
aVinsanely
p4693
aVviper
p4694
aVearsplitting
p4695
aVtricky
p4696
aVbaffling
p4697
aVcorrosions
p4698
aVtreacherous
p4699
aVhazardous
p4700
aVgrudge
p4701
aVadmonish
p4702
aVbrashness
p4703
aVbum
p4704
aVgrate
p4705
aVcontemptuously
p4706
aVvillains
p4707
aVbug
p4708
aVstymied
p4709
aVneurotically
p4710
aVscream
p4711
aVdetestable
p4712
aVwretchedly
p4713
aVdeficiency
p4714
aVsoreness
p4715
aVdangerous
p4716
aVfrustrations
p4717
aVgrieve
p4718
aVjealousness
p4719
aVdistract
p4720
aVscoffingly
p4721
aVcruel
p4722
aVslowly
p4723
aVlimit
p4724
aVstatic
p4725
aVproblem
p4726
aVdetestably
p4727
aVexcruciatingly
p4728
aVbewail
p4729
aVunusual
p4730
aVhorrific
p4731
aVintimidating
p4732
aVinadequate
p4733
aVmeaningless
p4734
aVdearth
p4735
aVpig
p4736
aVtwist
p4737
aVtroublesomely
p4738
aVrepel
p4739
aVultimatum
p4740
aVunsavory
p4741
aVunwatchable
p4742
aVmysteriously
p4743
aVadversary
p4744
aVletch
p4745
aVslaughter
p4746
aVsharply
p4747
aVunintelligible
p4748
aVacerbically
p4749
aVincorrigibly
p4750
aVdemonize
p4751
aVoffensive
p4752
aVcave
p4753
aVimmobilized
p4754
aVevildoer
p4755
aVgossip
p4756
aVcrummy
p4757
aVsick
p4758
aVcutthroat
p4759
aVmisconceptions
p4760
aVlong-time
p4761
aVoverwhelms
p4762
aVhysteria
p4763
aVscandal
p4764
aVillusion
p4765
aVreckless
p4766
aVsatirize
p4767
aVconfrontational
p4768
aVblunders
p4769
aVslothful
p4770
aVbetrays
p4771
aVadmonishingly
p4772
aVinsupportable
p4773
aVoppression
p4774
aVtreason
p4775
aVinescapable
p4776
aVsleazy
p4777
aVfrustrate
p4778
aVinescapably
p4779
aVdragoon
p4780
aVlonging
p4781
aVstab
p4782
aVsqueak
p4783
aVhotheaded
p4784
aVanimosity
p4785
aVagonizing
p4786
aVsqueal
p4787
aValienated
p4788
aVunreasonably
p4789
aVillegally
p4790
aVtestily
p4791
aVstunt
p4792
aVfrightfully
p4793
aVreprovingly
p4794
aVextravagant
p4795
aVundercutting
p4796
aVdecrepit
p4797
aVrevoltingly
p4798
aVimpair
p4799
aVpandering
p4800
aVmonstrous
p4801
aVvillainous
p4802
aVdisconsolation
p4803
aVinessential
p4804
aVpugnaciously
p4805
aVvehement
p4806
aVunspeakable
p4807
aVdisruptive
p4808
atRp4809
.