c__builtin__
set
p1
((lp2
V
aVunencumbered
p3
aVpardon
p4
aVsaver
p5
aVdynamic
p6
aVencouragingly
p7
aVsleek
p8
aVpamperedly
p9
aVworked
p10
aVundisputed
p11
aVsagely
p12
aVcushy
p13
aVoriginality
p14
aVoutwit
p15
aVwholeheartedly
p16
aVtenacity
p17
aVregal
p18
aVpride
p19
aVworth
p20
aVwondrous
p21
aVcompassion
p22
aVdesirable
p23
aVtantalizing
p24
aVgratification
p25
aVreforms
p26
aVcourageous
p27
aVprize
p28
aVovation
p29
aVmarvelled
p30
aVconvenience
p31
aVflashy
p32
aVenhance
p33
aVsteadfastness
p34
aVtriumph
p35
aVenjoy
p36
aVveritable
p37
aVconcise
p38
aVconsistent
p39
aVexcelled
p40
aVelegant
p41
aVfabulous
p42
aVvaliant
p43
aVworthiness
p44
aVdesirous
p45
aVrevolutionize
p46
aVliberty
p47
aVbonuses
p48
aVreverently
p49
aVendorse
p50
aVresilient
p51
aVnon-violence
p52
aVhero
p53
aVfestive
p54
aVjubilantly
p55
aVfeisty
p56
aVrefinement
p57
aVprotection
p58
aVhumility
p59
aVcelebration
p60
aVkudos
p61
aVuplifting
p62
aVgod-send
p63
aVwell-bred
p64
aVlucrative
p65
aVsuitable
p66
aVintrigue
p67
aVimaculate
p68
aVgolden
p69
aVfantastic
p70
aVsecure
p71
aVpatience
p72
aVachievable
p73
aVromantically
p74
aVwell-balanced
p75
aVtickle
p76
aVsumptuously
p77
aVcatchy
p78
aVbest-selling
p79
aVimpartiality
p80
aVglimmering
p81
aVcalm
p82
aVrecommend
p83
aVholy
p84
aVsuccessful
p85
aVmesmerize
p86
aVaward
p87
aVexuberantly
p88
aVardently
p89
aVexcellent
p90
aVstriving
p91
aVecenomical
p92
aVcheapest
p93
aVfamed
p94
aVaccomplishment
p95
aVelegantly
p96
aVexcellant
p97
aVachievible
p98
aVradiance
p99
aVgoood
p100
aVfresher
p101
aVingenuity
p102
aVexcallent
p103
aVguarantee
p104
aVpreferably
p105
aVsmoothest
p106
aVrecovery
p107
aVamazing
p108
aVtitillate
p109
aVpreferable
p110
aVswiftness
p111
aVdignified
p112
aVbeauty
p113
aVrighten
p114
aVbreathlessness
p115
aVdelicacy
p116
aVloyalty
p117
aVastoundingly
p118
aVmodest
p119
aVmeaningful
p120
aVrejoicingly
p121
aVsplendid
p122
aVeffective
p123
aVcontentment
p124
aVwins
p125
aVappreciate
p126
aVstimulate
p127
aVovertakes
p128
aVreforming
p129
aVmodesty
p130
aVgumption
p131
aVsatisfied
p132
aVoutshine
p133
aVinnovative
p134
aVresponsive
p135
aVfidelity
p136
aVadmirably
p137
aVpleasurably
p138
aVsucceeds
p139
aValluringly
p140
aVbetter
p141
aVentranced
p142
aVvalor
p143
aVadmirable
p144
aVeasier
p145
aVpleasurable
p146
aVglorify
p147
aVremission
p148
aVvouchsafe
p149
aVenrich
p150
aVamenable
p151
aVtop-quality
p152
aVebullient
p153
aVreasonably
p154
aVmarvellous
p155
aVspotless
p156
aVvictory
p157
aVreasonable
p158
aVfecilitous
p159
aVelatedly
p160
aVpepping
p161
aVluck
p162
aVbright
p163
aVwoo
p164
aVapotheosis
p165
aVameliorate
p166
aVdawn
p167
aVunbound
p168
aVsparkle
p169
aVencourage
p170
aVunabashed
p171
aVeasiness
p172
aVheavenly
p173
aVtops
p174
aVfave
p175
aVfree
p176
aVfervid
p177
aVmasterpiece
p178
aVdexterous
p179
aVdelightfully
p180
aVamazement
p181
aVslammin
p182
aVcornerstone
p183
aVcounter-attacks
p184
aVundisputably
p185
aVundaunted
p186
aVinexpensive
p187
aVflawless
p188
aVspeedy
p189
aVtempting
p190
aVattune
p191
aVaspire
p192
aVundisputable
p193
aVwowed
p194
aVrock-stars
p195
aVnon-violent
p196
aVrapturously
p197
aVangelic
p198
aVplayfully
p199
aVlovably
p200
aVencouraging
p201
aVlovable
p202
aV; If you use this list, please cite one of the following two papers:
p203
aVdelicious
p204
aVrobust
p205
aVthoughtfully
p206
aVclarity
p207
aVsharpest
p208
aVmasterfully
p209
aVrevival
p210
aV; This file contains a list of POSITIVE opinion words (or sentiment words).
p211
aVtop
p212
aVdumbfounded
p213
aVeuphoric
p214
aVeuphoria
p215
aVplentiful
p216
aVenthral
p217
aVmaster
p218
aVinsightful
p219
aVenthrall
p220
aVhappily
p221
aVdiversified
p222
aVwisdom
p223
aVpositively
p224
aVmercy
p225
aVmercifully
p226
aVexultation
p227
aVreaffirm
p228
aVwell-positioned
p229
aVsplendidly
p230
aVdeserving
p231
aVacclaim
p232
aVwillingness
p233
aVmodern
p234
aVlow-priced
p235
aVconvience
p236
aVoutperforms
p237
aVbrainy
p238
aVunaffected
p239
aVpraising
p240
aVquieter
p241
aVwholesome
p242
aVconvenient
p243
aVeagerly
p244
aVelation
p245
aVrecommended
p246
aVovertook
p247
aVamusing
p248
aVresponsibly
p249
aVeffectiveness
p250
aVpropitious
p251
aVwell-backlit
p252
aVthrilled
p253
aVvisionary
p254
aVclears
p255
aVaffirmation
p256
aVreverence
p257
aVexonerate
p258
aVglow
p259
aVlifesaver
p260
aVsweetly
p261
aVorderly
p262
aVreputation
p263
aVcalmness
p264
aVentertaining
p265
aVmarvel
p266
aVinspire
p267
aVmarveled
p268
aVendear
p269
aVrapture
p270
aVbrilliance
p271
aVrespectfully
p272
aVenjoyed
p273
aVmarvelously
p274
aVquaint
p275
aVastounded
p276
aVguidance
p277
aVgutsy
p278
aVbliss
p279
aVexcitedly
p280
aVheartily
p281
aVadequate
p282
aVcontinuity
p283
aVcolorful
p284
aVrejoicing
p285
aVprospros
p286
aVardor
p287
aVforemost
p288
aVtenaciously
p289
aVconsiderate
p290
aVrelish
p291
aVcleanly
p292
aV;       and Comparing Opinions on the Web." Proceedings of the 14th
p293
aVnicely
p294
aValtruistically
p295
aVlarge-capacity
p296
aVmonumental
p297
aVstunningly
p298
aVenchant
p299
aVfragrant
p300
aVfascinating
p301
aVrockstar
p302
aVgladness
p303
aVwinnable
p304
aVwell-educated
p305
aVbest
p306
aVimmaculately
p307
aVsucceeding
p308
aVsimplest
p309
aVeyecatch
p310
aVenrapt
p311
aVadventuresome
p312
aVsnazzy
p313
aVsupports
p314
aVdevout
p315
aVdexterously
p316
aVimprove
p317
aVprotect
p318
aVilu
p319
aVsublime
p320
aVexceeds
p321
aVdistinction
p322
aVcontribution
p323
aVfreshest
p324
aVfearlessly
p325
aVpeacefully
p326
aVself-respect
p327
aVexemplary
p328
aV;       Proceedings of the ACM SIGKDD International Conference on Knowledge
p329
aVawesomely
p330
aVmajestic
p331
aVtrust
p332
aVgratitude
p333
aVstrong
p334
aVnicer
p335
aVbeneficiary
p336
aVconfident
p337
aVcharisma
p338
aVbrand-new
p339
aVmiraculously
p340
aVprivilege
p341
aVflexible
p342
aVlovely
p343
aVadroitly
p344
aVwarmth
p345
aVidol
p346
aVfirst-in-class
p347
aVeasy
p348
aVprosperous
p349
aVexcite
p350
aVwell-run
p351
aVcoherent
p352
aVdote
p353
aVspellbind
p354
aVgracious
p355
aV;   Bing Liu, Minqing Hu and Junsheng Cheng. "Opinion Observer: Analyzing
p356
aVdotingly
p357
aVaffirm
p358
aVinviolable
p359
aVexamplary
p360
aVneat
p361
aVsafely
p362
aVentertains
p363
aVrightness
p364
aVovertaking
p365
aVsincerity
p366
aVsucces
p367
aVdummy-proof
p368
aVcongratulation
p369
aVpreeminent
p370
aVdefeated
p371
aVdazzled
p372
aVupscale
p373
aVuplift
p374
aVtremendously
p375
aVtrusted
p376
aVshimmering
p377
aVadmiration
p378
aVagreeableness
p379
aVharmony
p380
aVworld-famous
p381
aVsurvival
p382
aVfairly
p383
aVergonomical
p384
aVeffortlessly
p385
aVoutperformed
p386
aVopulent
p387
aVdelight
p388
aVrenaissance
p389
aVgroundbreaking
p390
aVpositives
p391
aVstupendous
p392
aVhumble
p393
aVbonny
p394
aVsavings
p395
aVgreatest
p396
aVadmiringly
p397
aVdignify
p398
aVenvious
p399
aVpersonages
p400
aVextol
p401
aVamusingly
p402
aVenlighten
p403
aVagile
p404
aVease
p405
aVexalt
p406
aVaffinity
p407
aVbeloved
p408
aVrighteous
p409
aVtolerable
p410
aVusable
p411
aVbrainiest
p412
aVfirmer
p413
aVunequivocally
p414
aVauspicious
p415
aVaffability
p416
aVadvanced
p417
aVharmoniously
p418
aVdignity
p419
aVzeal
p420
aVgifted
p421
aVexcitedness
p422
aVsplendor
p423
aVpolished
p424
aVinvaluable
p425
aVeffusion
p426
aVbeneficial
p427
aVright
p428
aVhonored
p429
aVflatter
p430
aVsuccessfully
p431
aVrevel
p432
aVunrivaled
p433
aVcongratulate
p434
aVhumor
p435
aVphenomenal
p436
aVcreative
p437
aVwitty
p438
aVenticingly
p439
aVadorable
p440
aVposh
p441
aVconstructive
p442
aVrestructuring
p443
aVidolized
p444
aVmemorable
p445
aVsuper
p446
aVendorsing
p447
aVempowerment
p448
aVtrustworthy
p449
aVtitillatingly
p450
aVblithe
p451
aVcherish
p452
aVimprovement
p453
aVthinner
p454
aVunabashedly
p455
aVlow-cost
p456
aVlavishly
p457
aVdelighted
p458
aVrespectable
p459
aVfinely
p460
aVformidable
p461
aVbalanced
p462
aVrefined
p463
aVamazingly
p464
aVsuffice
p465
aVillustrious
p466
aVwell-connected
p467
aVvictorious
p468
aVgreatness
p469
aVhappy
p470
aVoverjoyed
p471
aVdiligence
p472
aVfascination
p473
aVunfazed
p474
aVheal
p475
aVtalents
p476
aVpowerfully
p477
aVunderstandable
p478
aVprettily
p479
aVastonished
p480
aVevaluative
p481
aVluxuriant
p482
aVcongratulations
p483
aVhigh-quality
p484
aVinvincible
p485
aVbargain
p486
aVgenerosity
p487
aVnicest
p488
aVpromises
p489
aVingenuously
p490
aVclassic
p491
aVstupendously
p492
aVproven
p493
aVsoothe
p494
aVcure-all
p495
aVproves
p496
aVrevitalize
p497
aVacclaimed
p498
aVbelievable
p499
aVlevity
p500
aVwillingly
p501
aVfaithful
p502
aVauthoritative
p503
aVexcel
p504
aVambitious
p505
aV;       Bing Liu. "Sentiment Analysis and Subjectivity." An chapter in
p506
aVfrolic
p507
aVeye-catch
p508
aVsubsidize
p509
aVroomier
p510
aV;   Minqing Hu and Bing Liu. "Mining and Summarizing Customer Reviews."
p511
aVclear-cut
p512
aVguiltless
p513
aVconvincing
p514
aVpolite
p515
aVmightily
p516
aVcomely
p517
aVmagnificence
p518
aVentrust
p519
aVunmatched
p520
aVfaster
p521
aVluckier
p522
aVwarm
p523
aVwhoooa
p524
aVintimacy
p525
aVrestored
p526
aVwell-rounded
p527
aVremarkable
p528
aVpros
p529
aVleads
p530
aVgrateful
p531
aVremarkably
p532
aVabundant
p533
aVempathize
p534
aVextoll
p535
aVhonoring
p536
aVfancier
p537
aVcounter-attack
p538
aVamaze
p539
aVpersevere
p540
aVabundance
p541
aVprotective
p542
aVadvantage
p543
aVexalted
p544
aVnavigable
p545
aVrapturous
p546
aVcool
p547
aVimpressive
p548
aVexcellency
p549
aVenthuse
p550
aVhooray
p551
aVengrossing
p552
aVexcellence
p553
aVsweeten
p554
aVbetter-than-expected
p555
aVspiritual
p556
aVbrave
p557
aVverifiable
p558
aVtougher
p559
aVbravo
p560
aVadulation
p561
aVcomforting
p562
aVkindliness
p563
aVenticing
p564
aVstately
p565
aVwell-established
p566
aVcleanliness
p567
aVcelebrated
p568
aVpleasingly
p569
aVfavour
p570
aVsupporter
p571
aVunrestricted
p572
aVappeal
p573
aVboost
p574
aVsatisfy
p575
aVsupporting
p576
aVefficacious
p577
aVinspiring
p578
aVentertain
p579
aVingenuous
p580
aVlustrous
p581
aVmomentous
p582
aVmerriment
p583
aVstandout
p584
aVredemption
p585
aVbrilliant
p586
aVstaunchly
p587
aVaccomplished
p588
aVpatriotic
p589
aVpriceless
p590
aVconveniently
p591
aVreclaim
p592
aVgorgeously
p593
aVbreathtaking
p594
aVadjustable
p595
aVlove
p596
aVhumour
p597
aVkeenness
p598
aVerudite
p599
aVprefer
p600
aVhardier
p601
aVmarvelous
p602
aVflexibility
p603
aVself-sufficient
p604
aVsurmount
p605
aVvivid
p606
aVsharper
p607
aVpositive
p608
aVcaptivate
p609
aVjoyous
p610
aVrejuvenating
p611
aVcherished
p612
aVwonderfully
p613
aVcompactly
p614
aVloving
p615
aVtrophy
p616
aVadoringly
p617
aVupgradable
p618
aVvirtue
p619
aVsavior
p620
aVeasiest
p621
aVdefeats
p622
aVharmonious
p623
aV;       Washington, USA,
p624
aVstimulating
p625
aVtoll-free
p626
aVgeeky
p627
aVdeservedly
p628
aVdedicated
p629
aVtrump
p630
aVawesome
p631
aVsupremacy
p632
aVrefine
p633
aVadmirer
p634
aVchic
p635
aVintelligible
p636
aVunwavering
p637
aVproductive
p638
aVfortunately
p639
aVeloquent
p640
aVstrikingly
p641
aVpure
p642
aVendorsement
p643
aVconvienient
p644
aVunforgettable
p645
aVunbeatable
p646
aVparamount
p647
aVpeerless
p648
aVimpartial
p649
aVpraiseworthy
p650
aVconvincingly
p651
aVsustainability
p652
aVvivacious
p653
aVimproving
p654
aVflourish
p655
aVinfallibility
p656
aVsucceeded
p657
aVamuse
p658
aVpurify
p659
aVfluent
p660
aVsagacity
p661
aVfortuitously
p662
aVdreamland
p663
aVimpartially
p664
aVrefund
p665
aVcute
p666
aVinnocuous
p667
aVlionhearted
p668
aVnoteworthy
p669
aVplayful
p670
aVaccolades
p671
aVpre-eminent
p672
aVthoughtfulness
p673
aVavid
p674
aVswank
p675
aVsolace
p676
aVcleanest
p677
aVhot
p678
aVattraction
p679
aVgem
p680
aVwork
p681
aVinstantly
p682
aVsmarter
p683
aVsoulful
p684
aVcourageously
p685
aVqualified
p686
aVhale
p687
aVwealthy
p688
aVaspirations
p689
aVfirst-rate
p690
aVappreciatively
p691
aVstabilize
p692
aVthankful
p693
aVtruthful
p694
aVrealistic
p695
aVaccomplishments
p696
aVrightly
p697
aVskilled
p698
aVrevere
p699
aVraptureously
p700
aVedify
p701
aVjubiliant
p702
aVpeacekeepers
p703
aVbreakthrough
p704
aVrichly
p705
aVprudently
p706
aVobsession
p707
aVaccomplish
p708
aVbullish
p709
aVboundless
p710
aVtingle
p711
aVrational
p712
aVdominate
p713
aVcorrect
p714
aVassurance
p715
aVstreamlined
p716
aVcooperatively
p717
aVself-determination
p718
aVpreferes
p719
aVoasis
p720
aVadvantages
p721
aVmatchless
p722
aVskillfully
p723
aVprefered
p724
aVheroize
p725
aVinvaluablely
p726
aVgusto
p727
aVhonest
p728
aVbest-known
p729
aVsensationally
p730
aVassuredly
p731
aVsimplifies
p732
aVstriking
p733
aVmerrily
p734
aVsimplified
p735
aVtruthfully
p736
aVsilent
p737
aVwowing
p738
aVtraction
p739
aVfortuitous
p740
aVfiery
p741
aVcost-effective
p742
aVhug
p743
aVappreciates
p744
aVproving
p745
aVaccurately
p746
aVstylized
p747
aVerr-free
p748
aVappreciated
p749
aVraptureous
p750
aVovertaken
p751
aVdirt-cheap
p752
aVdiplomatic
p753
aVoptimism
p754
aVindividualized
p755
aVprofuse
p756
aVproactive
p757
aVpoeticize
p758
aVangel
p759
aVtantalize
p760
aVsumptuous
p761
aVworkable
p762
aVpremier
p763
aVprestigious
p764
aVrecover
p765
aVluminous
p766
aVprosperity
p767
aVastonishingly
p768
aVfashionable
p769
aVefficient
p770
aVterrific
p771
aVacumen
p772
aVideal
p773
aVpersonalized
p774
aVfashionably
p775
aVrelaxed
p776
aVfuturestic
p777
aVamiable
p778
aVagilely
p779
aVneatly
p780
aVclearer
p781
aVremunerate
p782
aVcontrasty
p783
aVexpertly
p784
aVsupremely
p785
aVcleared
p786
aVwell-intentioned
p787
aVviewable
p788
aVswankier
p789
aVflawlessly
p790
aVenergize
p791
aVsaintliness
p792
aVproud
p793
aVsteady
p794
aVgracefully
p795
aVilluminating
p796
aVsatisfactorily
p797
aVprecise
p798
aVunassailable
p799
aVpalatial
p800
aVmerit
p801
aVgratifies
p802
aVelevate
p803
aVelan
p804
aVgratified
p805
aVpainlessly
p806
aVenthusiast
p807
aVprincipled
p808
aVgenius
p809
aVtreasure
p810
aVwell-wishers
p811
aVliberation
p812
aVenergy-saving
p813
aVenthusiasm
p814
aVgodlike
p815
aVupgradeable
p816
aVinfallibly
p817
aVrevolutionized
p818
aVhandily
p819
aVinfallible
p820
aVlighter
p821
aVcelebrate
p822
aVpinnacle
p823
aVkeenly
p824
aVoutperform
p825
aVtopnotch
p826
aVmaneuverable
p827
aVeffectual
p828
aVheartwarming
p829
aVenthralled
p830
aVhonesty
p831
aVsoothingly
p832
aVsatisfies
p833
aVwonder
p834
aVforesight
p835
aVsatisfying
p836
aVsteadfast
p837
aVkid-friendly
p838
aVenough
p839
aVrefreshed
p840
aVadore
p841
aVenjoys
p842
aVaffordable
p843
aVfearless
p844
aVgratefully
p845
aVjovial
p846
aVawards
p847
aVaffordably
p848
aVrealizable
p849
aVtalented
p850
aVcrisper
p851
aVsuccesses
p852
aVquiet
p853
aVlaudably
p854
aVenjoyable
p855
aVadroit
p856
aVplusses
p857
aVgaiety
p858
aV;       mistakes. They are included as these misspelled words appear
p859
aVprodigy
p860
aVcharismatic
p861
aVlaudable
p862
aVworthwhile
p863
aVsensible
p864
aVawsome
p865
aVcapable
p866
aVdependably
p867
aVstylishly
p868
aVdependable
p869
aVpeaceful
p870
aVcapably
p871
aVsensibly
p872
aVenraptured
p873
aVeducated
p874
aVdead-on
p875
aVimpressiveness
p876
aVultra-crisp
p877
aVattentive
p878
aVinvigorate
p879
aVprominence
p880
aVstraighten
p881
aVpromising
p882
aVcherub
p883
aVcoolest
p884
aVpromised
p885
aVamiability
p886
aVzenith
p887
aVsincere
p888
aVwisely
p889
aVfame
p890
aVbreathtakingly
p891
aVpoetic
p892
aVtriumphantly
p893
aVdeference
p894
aVpeps
p895
aVfavorited
p896
aVsafe
p897
aVmaturely
p898
aVdeft
p899
aVenjoyment
p900
aVdelicate
p901
aVcheery
p902
aVnobly
p903
aVenchanting
p904
aVawesomeness
p905
aVpurposeful
p906
aVdelectable
p907
aVmagical
p908
aVsubstantive
p909
aVstaunchness
p910
aVbreeze
p911
aVrelief
p912
aVeasing
p913
aVreward
p914
aVuncomplicated
p915
aVconvient
p916
aVprofusion
p917
aVadoring
p918
aVknowledgeable
p919
aVvibrantly
p920
aVvaluable
p921
aVlavish
p922
aVreputable
p923
aVrenewed
p924
aVdauntless
p925
aVtrustworthiness
p926
aVdumbfounding
p927
aVastonishment
p928
aVcomplements
p929
aVpoised
p930
aVjoyful
p931
aVexult
p932
aVspectacular
p933
aVsoundly
p934
aVearnest
p935
aVgrin
p936
aVsensational
p937
aVfortune
p938
aVexquisitely
p939
aVendorses
p940
aVmiracle
p941
aVbenefit
p942
aVgratifyingly
p943
aVmiraculous
p944
aVpassionate
p945
aVendorsed
p946
aVwell-received
p947
aVsatisfactory
p948
aVobsessions
p949
aVsmiles
p950
aVdivine
p951
aVredeeming
p952
aVbooming
p953
aVeloquence
p954
aVprolific
p955
aVslick
p956
aVbeckons
p957
aVgladden
p958
aVfreed
p959
aVwelcome
p960
aVzest
p961
aVintimate
p962
aVthumbs-up
p963
aVnotably
p964
aVexciting
p965
aVfondness
p966
aVpep
p967
aVpiety
p968
aVfavorite
p969
aVthrive
p970
aVmasterpieces
p971
aVdaringly
p972
aVfertile
p973
aVbountiful
p974
aVsteadiness
p975
aVcommodious
p976
aVlively
p977
aVrockstars
p978
aVwonderous
p979
aVheroine
p980
aVcompliant
p981
aVpoliteness
p982
aVdecisive
p983
aVwindfall
p984
aVimmaculate
p985
aVundamaged
p986
aVimpeccably
p987
aVtranquility
p988
aVregard
p989
aVsophisticated
p990
aVdefeating
p991
aVgod-given
p992
aVromantic
p993
aVafordable
p994
aVreceptive
p995
aVlawfully
p996
aVmerriness
p997
aVexemplar
p998
aVflatteringly
p999
aVaffection
p1000
aVbrotherly
p1001
aVinvigorating
p1002
aVthriving
p1003
aVhigh-spirited
p1004
aVingeniously
p1005
aVtranquil
p1006
aVfirst-class
p1007
aVideally
p1008
aVloyal
p1009
aVproductively
p1010
aVunparalleled
p1011
aVcoherence
p1012
aVgaining
p1013
aVblessing
p1014
aVwieldy
p1015
aVreverent
p1016
aVrefunded
p1017
aVa+
p1018
aVimportant
p1019
aVequitable
p1020
aVprudent
p1021
aVunselfish
p1022
aVtitillating
p1023
aVdextrous
p1024
aVhard-working
p1025
aVthoughtful
p1026
aVsporty
p1027
aVcooperative
p1028
aVfairness
p1029
aVhomage
p1030
aVsparkling
p1031
aVfervor
p1032
aVsmile
p1033
aVenjoying
p1034
aVproblem-solver
p1035
aVresounding
p1036
aVstraightforward
p1037
aVfav
p1038
aVcarefree
p1039
aVdeginified
p1040
aVfortitude
p1041
aVmanageable
p1042
aVsecurely
p1043
aVelated
p1044
aVheaven
p1045
aVinpressed
p1046
aVbenevolent
p1047
aVlaud
p1048
aVsane
p1049
aVenrapture
p1050
aVtender
p1051
aVquicker
p1052
aVportable
p1053
aVaffably
p1054
aVenhancement
p1055
aVresound
p1056
aVaffectation
p1057
aVaffable
p1058
aVpamperedness
p1059
aVadvantageous
p1060
aVexhilaratingly
p1061
aVeminent
p1062
aV;;;;;;;;;;;;;;;;;;;;;;;;;;;;;;;;;;;;;;;;;;;;;;;;;;;;;;;;;;;;;;;;;;;;;;;;;;;;
p1063
aVresourceful
p1064
aVjudicious
p1065
aVeverlasting
p1066
aVplush
p1067
aVoutperforming
p1068
aVempower
p1069
aVreplaceable
p1070
aVsmartest
p1071
aVselective
p1072
aVeventful
p1073
aVoutdone
p1074
aVthrift
p1075
aVgraciousness
p1076
aVluxuriate
p1077
aVexceptionally
p1078
aVdashing
p1079
aVgleeful
p1080
aVsweetness
p1081
aVexcellently
p1082
aVreadily
p1083
aVeasy-to-use
p1084
aVenliven
p1085
aVrevelation
p1086
aVwarmhearted
p1087
aVgorgeous
p1088
aVjubilant
p1089
aVaffluence
p1090
aVhandsomely
p1091
aVbrisk
p1092
aVinstrumental
p1093
aVglad
p1094
aVpleasing
p1095
aVspontaneous
p1096
aVbeautiful
p1097
aVtenacious
p1098
aVprompt
p1099
aVrejuvenate
p1100
aVrejuvenated
p1101
aVexpeditiously
p1102
aVunbiased
p1103
aVsharp
p1104
aVdazzle
p1105
aVcomfort
p1106
aVlow-risk
p1107
aVrapport
p1108
aVglowing
p1109
aVcajole
p1110
aVvigilance
p1111
aVcredible
p1112
aV;    http://www.cs.uic.edu/~liub/FBS/sentiment-analysis.html
p1113
aVpanoramic
p1114
aVfast-growing
p1115
aVspectacularly
p1116
aVthrills
p1117
aVauthentic
p1118
aVflutter
p1119
aVbenifits
p1120
aVprefers
p1121
aVpleasure
p1122
aVtruthfulness
p1123
aVheartfelt
p1124
aVpeppy
p1125
aVsuperiority
p1126
aVstaunch
p1127
aVsmiling
p1128
aVzippy
p1129
aVthrilling
p1130
aVjollify
p1131
aVtantalizingly
p1132
aVfruitful
p1133
aVharmless
p1134
aVastonish
p1135
aVheros
p1136
aVnifty
p1137
aVebulliently
p1138
aVfiner
p1139
aVgood
p1140
aVmotivated
p1141
aVgenerously
p1142
aVreassure
p1143
aVpermissible
p1144
aVsweeping
p1145
aVadventurous
p1146
aVrespectful
p1147
aVrefresh
p1148
aVbless
p1149
aVexquisite
p1150
aVdelightfulness
p1151
aVpamper
p1152
aVnoble
p1153
aVresolute
p1154
aVbeneficent
p1155
aVengaging
p1156
aVnoiseless
p1157
aVdominates
p1158
aVtrusty
p1159
aVftw
p1160
aVfoolproof
p1161
aVmarvelousness
p1162
aVtrivially
p1163
aVjolly
p1164
aVapplaud
p1165
aVdominated
p1166
aVparadise
p1167
aVcongenial
p1168
aVdarling
p1169
aVsalute
p1170
aVexpansive
p1171
aVfavored
p1172
aVcashbacks
p1173
aVpleasant
p1174
aVextraordinary
p1175
aVqualify
p1176
aVbrightest
p1177
aVentrancing
p1178
aVheroic
p1179
aVrevolutionary
p1180
aVbenefits
p1181
aVexaltedly
p1182
aVsensations
p1183
aVindebted
p1184
aVoutstandingly
p1185
aVfancy
p1186
aVrevive
p1187
aVwell-known
p1188
aVhumourous
p1189
aVeffortless
p1190
aVglitter
p1191
aVpeaceable
p1192
aVleverage
p1193
aVindulgent
p1194
aVblossom
p1195
aVleading
p1196
aVsmoothes
p1197
aVsmoother
p1198
aVcomfy
p1199
aVhallowed
p1200
aVobtainable
p1201
aVwonderful
p1202
aVsaint
p1203
aVaver
p1204
aVfervidly
p1205
aVjustly
p1206
aVrecord-setting
p1207
aVgleefully
p1208
aVexcels
p1209
aVadulate
p1210
aVfavorable
p1211
aVprodigious
p1212
aVversatility
p1213
aVkindly
p1214
aVrevolutionizes
p1215
aVspirited
p1216
aVamazes
p1217
aVrestful
p1218
aVlow-price
p1219
aVcleaner
p1220
aVoutstanding
p1221
aVwell
p1222
aVswanky
p1223
aVaffirmative
p1224
aVsturdier
p1225
aVecstatically
p1226
aVwarmly
p1227
aVblissful
p1228
aVthrillingly
p1229
aVserene
p1230
aVeasygoing
p1231
aVadulatory
p1232
aVstate-of-the-art
p1233
aVcharm
p1234
aVsignificant
p1235
aVexceled
p1236
aVprestige
p1237
aVachievement
p1238
aVsturdy
p1239
aVclear
p1240
aVcharitable
p1241
aVamazed
p1242
aVclean
p1243
aVliberate
p1244
aVperseverance
p1245
aVennoble
p1246
aVgold
p1247
aVfond
p1248
aVmeticulously
p1249
aVtop-notch
p1250
aVimpressively
p1251
aVdefender
p1252
aVfine
p1253
aVgrace
p1254
aVfreedoms
p1255
aVbeauteous
p1256
aVresourcefulness
p1257
aVprowess
p1258
aVgains
p1259
aVcongratulatory
p1260
aVcheaper
p1261
aVfamous
p1262
aVremedy
p1263
aVcourage
p1264
aVfastest
p1265
aVvirtuously
p1266
aVcharmingly
p1267
aVrewardingly
p1268
aVprogressive
p1269
aVterrifically
p1270
aVrecommendations
p1271
aVsustainable
p1272
aV; Opinion Lexicon: Positive
p1273
aVunfettered
p1274
aVcourteous
p1275
aVeyecatching
p1276
aVloveliness
p1277
aVintelligence
p1278
aVvenerate
p1279
aVcleverly
p1280
aVgaily
p1281
aVglistening
p1282
aVdistinctive
p1283
aVwow
p1284
aVworth-while
p1285
aVinsightfully
p1286
aVbeautifullly
p1287
aVfans
p1288
aVwon
p1289
aVhappiness
p1290
aVcompliment
p1291
aVavailable
p1292
aVcomplementary
p1293
aVmasterful
p1294
aVtrustingly
p1295
aVsucceed
p1296
aVlyrical
p1297
aVuseable
p1298
aVimproved
p1299
aVadorer
p1300
aVinfluential
p1301
aVadored
p1302
aVimproves
p1303
aVapprove
p1304
aVblissfully
p1305
aVupgraded
p1306
aVliked
p1307
aVmajesty
p1308
aVambitiously
p1309
aVsweet
p1310
aVlikes
p1311
aVopenness
p1312
aVall-around
p1313
aVcivilize
p1314
aVpatiently
p1315
aVbolster
p1316
aVrock-star
p1317
aVmind-blowing
p1318
aVfaithfully
p1319
aVsociable
p1320
aVwhoa
p1321
aVrosy
p1322
aVaffectionate
p1323
aVsweetheart
p1324
aVdecisiveness
p1325
aVchampion
p1326
aVenchantingly
p1327
aVwell-made
p1328
aVadaptable
p1329
aVgoodly
p1330
aVwell-mannered
p1331
aVintriguing
p1332
aVspellbindingly
p1333
aVenchanted
p1334
aVsolid
p1335
aVreliable
p1336
aVcivility
p1337
aVadmire
p1338
aVhealthy
p1339
aVsmart
p1340
aVreliably
p1341
aVfun
p1342
aVcredence
p1343
aVheroically
p1344
aVastound
p1345
aVecstasy
p1346
aVheadway
p1347
aVbeautifully
p1348
aVready
p1349
aVstimulates
p1350
aVlaw-abiding
p1351
aVreachable
p1352
aVgrand
p1353
aVpunctual
p1354
aVbonus
p1355
aVcomprehensive
p1356
aVpainless
p1357
aVappreciable
p1358
aVdecency
p1359
aVgenuine
p1360
aVcelebratory
p1361
aVenergy-efficient
p1362
aVcheer
p1363
aVinspirational
p1364
aVsavvy
p1365
aVromanticize
p1366
aValluring
p1367
aVglitz
p1368
aValtruistic
p1369
aVcompetitive
p1370
aVprofoundly
p1371
aVopenly
p1372
aVelegance
p1373
aVvigilant
p1374
aVuseful
p1375
aVgems
p1376
aVexcites
p1377
aVspeedily
p1378
aVdanke
p1379
aVeager
p1380
aVexhilarate
p1381
aVbravery
p1382
aVharmonize
p1383
aVexcited
p1384
aVluxury
p1385
aVfabulously
p1386
aVaudibly
p1387
aVadvocate
p1388
aVunlimited
p1389
aVself-sufficiency
p1390
aVenthusiastically
p1391
aVredeem
p1392
aVabound
p1393
aVcuteness
p1394
aVstirringly
p1395
aVhelpful
p1396
aVbeutifully
p1397
aVsincerely
p1398
aVentice
p1399
aVneatest
p1400
aVpopular
p1401
aVstylish
p1402
aVamicably
p1403
aVirresistibly
p1404
aVhumorous
p1405
aVimpassioned
p1406
aVmagnificent
p1407
aVeuphorically
p1408
aVstrongest
p1409
aVmighty
p1410
aV;    2. You will notice many misspelled words in the list. They are not
p1411
aVtrendy
p1412
aVsprightly
p1413
aVfanfare
p1414
aVamicable
p1415
aVirresistible
p1416
aVbeneficially
p1417
aVproficient
p1418
aVnovelty
p1419
aVexceeding
p1420
aVprovidence
p1421
aVinnovation
p1422
aVtrouble-free
p1423
aVbest-performing
p1424
aVtwinkly
p1425
aVpatient
p1426
aVbenefactor
p1427
aVsuavely
p1428
aVeffusive
p1429
aVrespite
p1430
aV; This file and the papers can all be downloaded from
p1431
aVtogetherness
p1432
aVshine
p1433
aVfaith
p1434
aVsimplify
p1435
aVconciliatory
p1436
aVaudible
p1437
aVcomplimentary
p1438
aVshiny
p1439
aVpluses
p1440
aVyouthful
p1441
aVmiracles
p1442
aVrazor-sharp
p1443
aVmesmerizingly
p1444
aVintegral
p1445
aVappropriate
p1446
aVconscientious
p1447
aVcalming
p1448
aVimpressed
p1449
aVissue-free
p1450
aVglowingly
p1451
aV; Notes:
p1452
aVfast
p1453
aVimpresses
p1454
aVstatuesque
p1455
aVupheld
p1456
aVmorality
p1457
aVgraciously
p1458
aVhealthful
p1459
aVtime-honored
p1460
aVwell-regarded
p1461
aVproperly
p1462
aVreassurance
p1463
aVuser-replaceable
p1464
aVecstasies
p1465
aVpatriot
p1466
aVintuitive
p1467
aVgoodwill
p1468
aVgratifying
p1469
aVmaturity
p1470
aVmature
p1471
aVautonomous
p1472
aVawestruck
p1473
aVgenial
p1474
aVreconcile
p1475
aVbeckoning
p1476
aVeye-catching
p1477
aVcure
p1478
aVgraceful
p1479
aVevocative
p1480
aVpeach
p1481
aVpeace
p1482
aVcohesive
p1483
aVafford
p1484
aVconsummate
p1485
aVirreplaceable
p1486
aVnice
p1487
aVexcelent
p1488
aVenergetic
p1489
aVsmitten
p1490
aVlucid
p1491
aVbackbone
p1492
aVdetachable
p1493
aVlong-lasting
p1494
aVluxurious
p1495
aVhelping
p1496
aVfervently
p1497
aVphenomenally
p1498
aVrightful
p1499
aVhappier
p1500
aVreasoned
p1501
aVwellbeing
p1502
aVadmiring
p1503
aVlogical
p1504
aVfresh
p1505
aVenrichment
p1506
aVevenly
p1507
aVfaultless
p1508
aVenjoyably
p1509
aV;       mean that the sentence expresses a positive or negative opinion.
p1510
aVcheerful
p1511
aVrenown
p1512
aVfascinatingly
p1513
aVgladly
p1514
aVintricate
p1515
aVcompact
p1516
aVstunned
p1517
aVuphold
p1518
aVappreciative
p1519
aVsuave
p1520
aVstable
p1521
aVenlightenment
p1522
aVfriendly
p1523
aVvirtuous
p1524
aVsteadiest
p1525
aVprudence
p1526
aVfelicity
p1527
aVpromise
p1528
aVtimely
p1529
aVmagic
p1530
aVmesmerizing
p1531
aVfast-paced
p1532
aVcompassionate
p1533
aVnourishing
p1534
aVjaw-dropping
p1535
aVidealize
p1536
aVoutdo
p1537
aVfriendliness
p1538
aV;       frequently in social media content.
p1539
aVsensation
p1540
aVexuberant
p1541
aVardent
p1542
aVlower-priced
p1543
aVreconciliation
p1544
aVoutsmart
p1545
aVconsistently
p1546
aVrelent
p1547
aV;
aVadvantageously
p1548
aVled
p1549
aVcozy
p1550
aVpoise
p1551
aVnimble
p1552
aVsexy
p1553
aVenterprising
p1554
aVcommendably
p1555
aVgreat
p1556
aVfondly
p1557
aVtalent
p1558
aVsurvivor
p1559
aVbenevolence
p1560
aVunconditional
p1561
aVdefeat
p1562
aVcommendable
p1563
aVhonor
p1564
aVchaste
p1565
aVcost-saving
p1566
aVwin
p1567
aVworthy
p1568
aVthumb-up
p1569
aVhardy
p1570
aVbeckon
p1571
aVdesiring
p1572
aVsubsidizes
p1573
aVconfidence
p1574
aVagreeably
p1575
aVreadable
p1576
aVseamless
p1577
aVpain-free
p1578
aVassuring
p1579
aVcashback
p1580
aVsubsidized
p1581
aVagreeable
p1582
aVclever
p1583
aVpretty
p1584
aVimpress
p1585
aVcharming
p1586
aVsteadfastly
p1587
aVmagnanimous
p1588
aVfelicitate
p1589
aVenviously
p1590
aVjoyfully
p1591
aVbeckoned
p1592
aVebullience
p1593
aVexhilaration
p1594
aVunreal
p1595
aVpraise
p1596
aVsmartly
p1597
aVindulgence
p1598
aVearnestness
p1599
aVrapt
p1600
aVeffectively
p1601
aVinviolate
p1602
aVfulfillment
p1603
aVtrumpet
p1604
aVgainfully
p1605
aVmagnificently
p1606
aVinvincibility
p1607
aVdaring
p1608
aVpicturesque
p1609
aVbuoyant
p1610
aVfortunate
p1611
aVunquestionably
p1612
aVdanken
p1613
aVintelligent
p1614
aVluster
p1615
aVfine-looking
p1616
aVrestructured
p1617
aVluxuriously
p1618
aVpreferring
p1619
aVsolidarity
p1620
aVefficiently
p1621
aVadvocated
p1622
aVregally
p1623
aVadvocates
p1624
aVclassy
p1625
aVwell-managed
p1626
aV;          Handbook of Natural Language Processing, Second Edition,
p1627
aVflattering
p1628
aVchivalry
p1629
aVunquestionable
p1630
aVhotcakes
p1631
aVperfect
p1632
aVsuperior
p1633
aVindustrious
p1634
aVglee
p1635
aVwinning
p1636
aVwinners
p1637
aVspellbound
p1638
aVrevives
p1639
aVwonderously
p1640
aVoutshone
p1641
aVprosper
p1642
aVrectification
p1643
aVmulti-purpose
p1644
aVwows
p1645
aVself-satisfaction
p1646
aVshimmeringly
p1647
aVoptimal
p1648
aVnurturing
p1649
aVkindness
p1650
aVhandy
p1651
aVmasters
p1652
aVhallmarks
p1653
aVthrill
p1654
aVprofound
p1655
aVmastery
p1656
aVscenic
p1657
aVradiant
p1658
aVeased
p1659
aVsufficiently
p1660
aVdelightful
p1661
aVenviably
p1662
aVsatisified
p1663
aVmonumentally
p1664
aVeases
p1665
aVilluminate
p1666
aVilluminati
p1667
aVupliftingly
p1668
aVexceeded
p1669
aVgallant
p1670
aV;       Discovery and Data Mining (KDD-2004), Aug 22-25, 2004, Seattle,
p1671
aVsufficed
p1672
aVsuperbly
p1673
aVthrifty
p1674
aVhilarious
p1675
aVhonorable
p1676
aVadaptive
p1677
aVsuffices
p1678
aVintegrated
p1679
aVachievements
p1680
aVsolicitously
p1681
aV;       2005, Chiba, Japan.
p1682
aVpromptly
p1683
aVtempt
p1684
aVsimplifying
p1685
aVovertake
p1686
aVmesmerized
p1687
aVfeasible
p1688
aVmesmerizes
p1689
aVkeen
p1690
aVfeasibly
p1691
aVserenity
p1692
aVstainless
p1693
aVfacilitate
p1694
aVastutely
p1695
aVsofter
p1696
aVwhooa
p1697
aVhandier
p1698
aVfinest
p1699
aVethical
p1700
aVpowerful
p1701
aVfelicitous
p1702
aVrectifying
p1703
aVimprovements
p1704
aVeminence
p1705
aVprecisely
p1706
aVsalutary
p1707
aVsupurbly
p1708
aVglisten
p1709
aVdurable
p1710
aVunequivocal
p1711
aVgainful
p1712
aVexhilarating
p1713
aVperfectly
p1714
aVinterests
p1715
aVagility
p1716
aVinestimably
p1717
aVvouch
p1718
aVluckiness
p1719
aVinestimable
p1720
aVblameless
p1721
aVelite
p1722
aVexultingly
p1723
aVloved
p1724
aVglamorous
p1725
aVjaw-droping
p1726
aVaspiration
p1727
aVricher
p1728
aVextraordinarily
p1729
aVfrugal
p1730
aVappealing
p1731
aVhalcyon
p1732
aVloves
p1733
aVlover
p1734
aVdistinguished
p1735
aVingenious
p1736
aVimaginative
p1737
aVchivalrous
p1738
aVintriguingly
p1739
aVtrusting
p1740
aVtidy
p1741
aVcomfortable
p1742
aVgentle
p1743
aVcomfortably
p1744
aVfeature-rich
p1745
aVoutstrip
p1746
aVblockbuster
p1747
aVassurances
p1748
aVclearly
p1749
aVsaintly
p1750
aVskillful
p1751
aVawed
p1752
aVbrilliances
p1753
aVfancinating
p1754
aVeffusiveness
p1755
aVtriumphal
p1756
aVtoughest
p1757
aVpassionately
p1758
aVresplendent
p1759
aVbetter-known
p1760
aVawe
p1761
aVfervent
p1762
aVfair
p1763
aVcourageousness
p1764
aVrefreshing
p1765
aVheartening
p1766
aVenthusiastic
p1767
aVstronger
p1768
aVastonishing
p1769
aVmagnanimously
p1770
aV;       International World Wide Web conference (WWW-2005), May 10-14,
p1771
aVpleases
p1772
aVsupported
p1773
aVwell-being
p1774
aVfeat
p1775
aVpleased
p1776
aVenvy
p1777
aVillumine
p1778
aVconciliate
p1779
aVwinner
p1780
aVhopeful
p1781
aVbrighten
p1782
aVbrighter
p1783
aVhandsome
p1784
aVgratify
p1785
aVrighteousness
p1786
aVenviable
p1787
aVexceptional
p1788
aVexaltation
p1789
aVirreproachable
p1790
aVlucky
p1791
aVperfection
p1792
aVexultant
p1793
aVmarvels
p1794
aVstability
p1795
aV;    1. The appearance of an opinion word in a sentence does not necessarily
p1796
aVaffluent
p1797
aVgush
p1798
aVsolicitous
p1799
aVfuturistic
p1800
aVenhances
p1801
aVinventive
p1802
aVsubsidizing
p1803
aVfantastically
p1804
aV;          (editors: N. Indurkhya and F. J. Damerau), 2010.
p1805
aVenhanced
p1806
aVhumane
p1807
aVrighteously
p1808
aVluckiest
p1809
aVdestiny
p1810
aVreform
p1811
aVinvulnerable
p1812
aVsuperb
p1813
aVfavor
p1814
aVbeautify
p1815
aVcorrectly
p1816
aVexellent
p1817
aVprogress
p1818
aVcomplement
p1819
aVbelieveable
p1820
aVsmilingly
p1821
aVjoy
p1822
aVstellarly
p1823
aVmerry
p1824
aVproficiently
p1825
aVapproval
p1826
aVprecious
p1827
aVswift
p1828
aVthank
p1829
aVempathy
p1830
aVdiligent
p1831
aVvaliantly
p1832
aVgalore
p1833
aVassure
p1834
aVinteresting
p1835
aVexalting
p1836
aVglorious
p1837
aVmeticulous
p1838
aVgooood
p1839
aVsumptuousness
p1840
aVcommend
p1841
aVrespect
p1842
aVcohere
p1843
aVjubilate
p1844
aVflourishing
p1845
aVyay
p1846
aVpropitiously
p1847
aVelectrify
p1848
aVdecent
p1849
aVdazzling
p1850
aVimmense
p1851
aVwilling
p1852
aVseasoned
p1853
aVamiabily
p1854
aVupbeat
p1855
aVhottest
p1856
aVgeekier
p1857
aVspacious
p1858
aVdivinely
p1859
aVsufficient
p1860
aVmeritorious
p1861
aVoverture
p1862
aVacclamation
p1863
aVtenderly
p1864
aVenviousness
p1865
aVpromoter
p1866
aVstunning
p1867
aVdead-cheap
p1868
aVsupurb
p1869
aVamenity
p1870
aVlikable
p1871
aVlush
p1872
aVencouragement
p1873
aVhelped
p1874
aVhearten
p1875
aVoptimistic
p1876
aVwell-behaved
p1877
aVsensitive
p1878
aVeulogize
p1879
aVrichness
p1880
aVtemptingly
p1881
aVunity
p1882
aVexuberance
p1883
aVmerciful
p1884
aVsoundness
p1885
aVjoyously
p1886
aVprivileged
p1887
aVgrandeur
p1888
aVcovenant
p1889
aVeffusively
p1890
aVcomplemented
p1891
aVrightfully
p1892
aVprodigiously
p1893
aVabounds
p1894
aVamicability
p1895
aVimpeccable
p1896
aVlight-hearted
p1897
aVendearing
p1898
aVpleasantly
p1899
aVfascinate
p1900
aVpampered
p1901
aVvariety
p1902
aV;       See the paper below:
p1903
aVexceedingly
p1904
aVrisk-free
p1905
aVuser-friendly
p1906
aVrestructure
p1907
aVattractively
p1908
aVaccurate
p1909
aVsurpass
p1910
aVtough
p1911
aVskill
p1912
aVgentlest
p1913
aVroomy
p1914
aVreaffirmation
p1915
aVswankiest
p1916
aVgenerous
p1917
aVrapid
p1918
aVavidly
p1919
aVsurreal
p1920
aVtransparent
p1921
aVattractive
p1922
aVearnestly
p1923
aVpampers
p1924
aVreformed
p1925
aVcaptivating
p1926
aVample
p1927
aVfamously
p1928
aVidyllic
p1929
aVmiraculousness
p1930
aVamply
p1931
aVbloom
p1932
aVprominent
p1933
aVaccomodative
p1934
aVgallantly
p1935
aVcrisp
p1936
aVlike
p1937
aVsuccess
p1938
aVhands-down
p1939
aVvibrant
p1940
aVworks
p1941
aVsoft
p1942
aVlucidly
p1943
aVwonders
p1944
aVaccessible
p1945
aVexceed
p1946
aVretractable
p1947
aVsmoothly
p1948
aVhail
p1949
aVwarmer
p1950
aVrecommendation
p1951
aVproper
p1952
aVliking
p1953
aVsupportive
p1954
aVsupple
p1955
aVlead
p1956
aVbreakthroughs
p1957
aVlean
p1958
aVsnappy
p1959
aVrewarding
p1960
aVpassion
p1961
aVeconomical
p1962
aVhumorously
p1963
aVcapability
p1964
aVstellar
p1965
aVpoignant
p1966
aVpepped
p1967
aVhospitable
p1968
aVproblem-free
p1969
aVwell-informed
p1970
aVsimpler
p1971
aVgained
p1972
aVaccessable
p1973
aVfreedom
p1974
aVlegendary
p1975
aVidolize
p1976
aVcompatible
p1977
aVcourtly
p1978
aVhallmark
p1979
aVeloquently
p1980
aVfaithfulness
p1981
aVrectify
p1982
aVhotcake
p1983
aVcommitment
p1984
aVarticulate
p1985
aVchamp
p1986
aVlawful
p1987
aVbrilliantly
p1988
aVdoubtless
p1989
aVrejoice
p1990
aVfastest-growing
p1991
aVsupport
p1992
aVawarded
p1993
aVupliftment
p1994
aVenticed
p1995
aVstimulative
p1996
aVglimmer
p1997
aVnourish
p1998
aVelate
p1999
aVamity
p2000
aVjubilation
p2001
aVgain
p2002
aVversatile
p2003
aVexaltingly
p2004
aVwise
p2005
aVglory
p2006
aVinstructive
p2007
aVembolden
p2008
aVsmooth
p2009
aVtriumphant
p2010
aVexcitement
p2011
aVaccommodative
p2012
aVexamplar
p2013
aVdiligently
p2014
aVsupreme
p2015
aVeagerness
p2016
aVgoodness
p2017
aVrecomend
p2018
aVaccolade
p2019
aVrenowned
p2020
aVincredible
p2021
aVspellbinding
p2022
aVboom
p2023
aVincredibly
p2024
aVecstatic
p2025
aVexcitingly
p2026
aVnourishment
p2027
aVastounding
p2028
aVgloriously
p2029
aVgodsend
p2030
aVinspiration
p2031
aVrich
p2032
atRp2033
.