c__builtin__
set
p1
((lp2
V['as']
p3
aV['nor']
p4
aV['too']
p5
aV['did']
p6
aV['such']
p7
aV['further']
p8
aV['we']
p9
aV['me']
p10
aV['can']
p11
aV['himself']
p12
aV['at']
p13
aV['between']
p14
aV['t']
p15
aV['here']
p16
aV['during']
p17
aV['my']
p18
aV['are']
p19
aV['myself']
p20
aV['hers']
p21
aV['have']
p22
aV['once']
p23
aV['ours']
p24
aV['why']
p25
aV['them']
p26
aV['not']
p27
aV['through']
p28
aV['has']
p29
aV['by']
p30
aV['ourselves']
p31
aV['you']
p32
aV['in']
p33
aV['just']
p34
aV['was']
p35
aV['what']
p36
aV['he']
p37
aV['there']
p38
aV['then']
p39
aV['itself']
p40
aV['very']
p41
aV['is']
p42
aV['will']
p43
aV['over']
p44
aV['more']
p45
aV['into']
p46
aV['now']
p47
aV['that']
p48
aV['because']
p49
aV['only']
p50
aV['where']
p51
aV['s']
p52
aV['yourselves']
p53
aV['him']
p54
aV['were']
p55
aV['she']
p56
aV['below']
p57
aV['does']
p58
aV['when']
p59
aV['up']
p60
aV['with']
p61
aV['be']
p62
aV['i']
p63
aV['those']
p64
aV['if']
p65
aV['whom']
p66
aV['few']
p67
aV['after']
p68
aV['their']
p69
aV['had']
p70
aV['same']
p71
aV['theirs']
p72
aV['themselves']
p73
aV['having']
p74
aV['until']
p75
aV['other']
p76
aV['out']
p77
aV['how']
p78
aV['off']
p79
aV['all']
p80
aV['it']
p81
aV['this']
p82
aV['should']
p83
aV['and']
p84
aV['before']
p85
aV['down']
p86
aV['been']
p87
aV['his']
p88
aV['for']
p89
aV['again']
p90
aV['which']
p91
aV['a']
p92
aV['its']
p93
aV['each']
p94
aV['don']
p95
aV['against']
p96
aV['from']
p97
aV['most']
p98
aV['above']
p99
aV['yourself']
p100
aV['own']
p101
aV['yours']
p102
aV['on']
p103
aV['some']
p104
aV['under']
p105
aV['so']
p106
aV['while']
p107
aV['they']
p108
aV['no']
p109
aV['her']
p110
aV['who']
p111
aV['or']
p112
aV['being']
p113
aV['doing']
p114
aV['our']
p115
aV['herself']
p116
aV['these']
p117
aV['both']
p118
aV['about']
p119
aV['your']
p120
aV['do']
p121
aV['an']
p122
aV['than']
p123
aV['but']
p124
aV['any']
p125
aV['of']
p126
aV['the']
p127
aV['am']
p128
aV['to']
p129
atRp130
.