c__builtin__
set
p1
((lp2
(S'the'
tp3
a(S'at'
tp4
a(S'where'
tp5
a(S'what'
tp6
a(S'until'
tp7
a(S'from'
tp8
a(S'will'
tp9
a(S'to'
tp10
a(S'it'
tp11
a(S'does'
tp12
a(S'but'
tp13
a(S'such'
tp14
a(S'too'
tp15
a(S'now'
tp16
a(S'on'
tp17
a(S'them'
tp18
a(S'by'
tp19
a(S'this'
tp20
a(S'own'
tp21
a(S'he'
tp22
a(S'most'
tp23
a(S'against'
tp24
a(S'me'
tp25
a(S'have'
tp26
a(S'being'
tp27
a(S't'
tp28
a(S'no'
tp29
a(S'only'
tp30
a(S'she'
tp31
a(S'your'
tp32
a(S'herself'
tp33
a(S'his'
tp34
a(S'if'
tp35
a(S'that'
tp36
a(S'been'
tp37
a(S'has'
tp38
a(S'few'
tp39
a(S'in'
tp40
a(S'more'
tp41
a(S'her'
tp42
a(S'how'
tp43
a(S'below'
tp44
a(S'here'
tp45
a(S'so'
tp46
a(S'an'
tp47
a(S'him'
tp48
a(S'because'
tp49
a(S'yours'
tp50
a(S'you'
tp51
a(S'again'
tp52
a(S'myself'
tp53
a(S'having'
tp54
a(S'off'
tp55
a(S'over'
tp56
a(S'after'
tp57
a(S'some'
tp58
a(S'hers'
tp59
a(S'and'
tp60
a(S'above'
tp61
a(S'each'
tp62
a(S'all'
tp63
a(S'ourselves'
tp64
a(S'nor'
tp65
a(S'theirs'
tp66
a(S'whom'
tp67
a(S'had'
tp68
a(S'who'
tp69
a(S'are'
tp70
a(S'these'
tp71
a(S'they'
tp72
a(S'both'
tp73
a(S'my'
tp74
a(S'for'
tp75
a(S'their'
tp76
a(S's'
tp77
a(S'other'
tp78
a(S'yourself'
tp79
a(S'between'
tp80
a(S'why'
tp81
a(S'did'
tp82
a(S'don'
tp83
a(S'down'
tp84
a(S'our'
tp85
a(S'as'
tp86
a(S'through'
tp87
a(S'themselves'
tp88
a(S'about'
tp89
a(S'once'
tp90
a(S'is'
tp91
a(S'not'
tp92
a(S'can'
tp93
a(S'do'
tp94
a(S'be'
tp95
a(S'with'
tp96
a(S'its'
tp97
a(S'himself'
tp98
a(S'out'
tp99
a(S'when'
tp100
a(S'up'
tp101
a(S'itself'
tp102
a(S'very'
tp103
a(S'of'
tp104
a(S'while'
tp105
a(S'yourselves'
tp106
a(S'under'
tp107
a(S'we'
tp108
a(S'than'
tp109
a(S'i'
tp110
a(S'there'
tp111
a(S'during'
tp112
a(S'should'
tp113
a(S'a'
tp114
a(S'was'
tp115
a(S'or'
tp116
a(S'doing'
tp117
a(S'into'
tp118
a(S'am'
tp119
a(S'further'
tp120
a(S'which'
tp121
a(S'then'
tp122
a(S'were'
tp123
a(S'any'
tp124
a(S'those'
tp125
a(S'before'
tp126
a(S'just'
tp127
a(S'same'
tp128
a(S'ours'
tp129
atRp130
.