c__builtin__
set
p1
((lp2
V['Greensboro']
p3
aV['Clearwater']
p4
aV['Flint']
p5
aV['McAllen']
p6
aV['Eugene']
p7
aV['New', 'York', 'City']
p8
aV['Naperville']
p9
aV['Berkeley']
p10
aV['Inglewood']
p11
aV['Birmingham']
p12
aV['Houston']
p13
aV['Pasadena']
p14
aV['Honolulu']
p15
aV['Charleston']
p16
aV['Chicago']
p17
aV['Hollywood']
p18
aV['Winston-Salem']
p19
aV['Oklahoma', 'City']
p20
aV['Paterson']
p21
aV['Tucson']
p22
aV['Washington']
p23
aV['Lexington']
p24
aV['Independence']
p25
aV['Fontana']
p26
aV['Hampton']
p27
aV['Santa', 'Clarita']
p28
aV['Albuquerque']
p29
aV['Thousand', 'Oaks']
p30
aV['Fullerton']
p31
aV['Jersey', 'City']
p32
aV['Denton']
p33
aV['Brownsville']
p34
aV['Fort', 'Collins']
p35
aV['Kansas', 'City']
p36
aV['Green', 'Bay']
p37
aV['New', 'Haven']
p38
aV['Killeen']
p39
aV['Cary']
p40
aV['Bridgeport']
p41
aV['Santa', 'Clara']
p42
aV['Newark']
p43
aV['Lowell']
p44
aV['Madison']
p45
aV['Pomona']
p46
aV['Visalia']
p47
aV['Huntington', 'Beach']
p48
aV['Overland', 'Park']
p49
aV['Milwaukee']
p50
aV['Fayetteville']
p51
aV['Evansville']
p52
aV['Orange']
p53
aV['Provo']
p54
aV['Louisville-Jefferson', 'County']
p55
aV['Knoxville']
p56
aV['Nashville']
p57
aV['Seattle']
p58
aV['Lafayette']
p59
aV['Hialeah']
p60
aV['Fremont']
p61
aV['Austin']
p62
aV['Oxnard']
p63
aV['Little', 'Rock']
p64
aV['Columbia']
p65
aV['El', 'Monte']
p66
aV['Omaha']
p67
aV['Sunnyvale']
p68
aV['West', 'Valley', 'City']
p69
aV['Waterbury']
p70
aV['Moreno', 'Valley']
p71
aV['Pompano', 'Beach']
p72
aV['Salt', 'Lake', 'City']
p73
aV['Stockton']
p74
aV['Detroit']
p75
aV['Gainesville']
p76
aV['Ontario']
p77
aV['Lancaster']
p78
aV['Boise']
p79
aV['Warren']
p80
aV['San', 'Buenaventura', '(', 'Ventura', ')']
p81
aV['Irving']
p82
aV['Salem']
p83
aV['Elizabeth']
p84
aV['Philadelphia']
p85
aV['Huntsville']
p86
aV['San', 'Francisco']
p87
aV['Worcester']
p88
aV['Beaumont']
p89
aV['Fort', 'Lauderdale']
p90
aV['Elk', 'Grove']
p91
aV['Corpus', 'Christi']
p92
aV['Pueblo']
p93
aV['Irvine']
p94
aV['Spokane']
p95
aV['Jacksonville']
p96
aV['Fort', 'Worth']
p97
aV['Henderson']
p98
aV['Carrollton']
p99
aV['Pembroke', 'Pines']
p100
aV['Miramar']
p101
aV['Grand', 'Prairie']
p102
aV['Durham']
p103
aV['Palmdale']
p104
aV['Alexandria']
p105
aV['Las', 'Vegas']
p106
aV['Olathe']
p107
aV['Wilmington']
p108
aV['Vancouver']
p109
aV['Chandler']
p110
aV['Escondido']
p111
aV['Rochester']
p112
aV['San', 'Jose']
p113
aV['Indianapolis']
p114
aV['New', 'Orleans']
p115
aV['Virginia', 'Beach']
p116
aV['Tampa']
p117
aV['Dallas']
p118
aV['Costa', 'Mesa']
p119
aV['North', 'Las', 'Vegas']
p120
aV['Akron']
p121
aV['Savannah']
p122
aV['High']
p123
aV['Norman']
p124
aV['Tempe']
p125
aV['Memphis']
p126
aV['Boston']
p127
aV['Bellevue']
p128
aV['Fresno']
p129
aV['Richmond']
p130
aV['Arlington']
p131
aV['Arvada']
p132
aV['Denver']
p133
aV['Joliet']
p134
aV['Rancho', 'Cucamonga']
p135
aV['Anchorage']
p136
aV['Riverside']
p137
aV['Allentown']
p138
aV['Lansing']
p139
aV['South', 'Bend']
p140
aV['Lakewood']
p141
aV['Garden', 'Grove']
p142
aV['Everett']
p143
aV['Shreveport']
p144
aV['Oakland']
p145
aV['Jackson']
p146
aV['Hartford']
p147
aV['Sioux', 'Falls']
p148
aV['Abilene']
p149
aV['Tulsa']
p150
aV['Toledo']
p151
aV['Providence']
p152
aV['Oceanside']
p153
aV['Raleigh']
p154
aV['Portland']
p155
aV['Antioch']
p156
aV['Concord']
p157
aV['San', 'Bernardino']
p158
aV['Burbank']
p159
aV['Des', 'Moines']
p160
aV['Sacramento']
p161
aV['Downey']
p162
aV['Lincoln']
p163
aV['Baton', 'Rouge']
p164
aV['Norfolk']
p165
aV['Thornton']
p166
aV['Stamford']
p167
aV['Yonkers']
p168
aV['Orlando']
p169
aV['Chesapeake']
p170
aV['Minneapolis']
p171
aV['Clarksville']
p172
aV['Mesa']
p173
aV['Amarillo']
p174
aV['Atlanta']
p175
aV['West', 'Covina']
p176
aV['Cincinnati']
p177
aV['St.', 'Paul']
p178
aV['Syracuse']
p179
aV['Sterling', 'Heights']
p180
aV['Corona']
p181
aV['Rockford']
p182
aV['Montgomery']
p183
aV['Cleveland']
p184
aV['Newport', 'News']
p185
aV['Charlotte']
p186
aV['Phoenix']
p187
aV['Mobile']
p188
aV['Tacoma']
p189
aV['Scottsdale']
p190
aV['Los', 'Angeles']
p191
aV['Westminster']
p192
aV['Lubbock']
p193
aV['Daly', 'City']
p194
aV['El', 'Paso']
p195
aV['St.', 'Louis']
p196
aV['Portsmouth']
p197
aV['Dayton']
p198
aV['Coral', 'Springs']
p199
aV['Vallejo']
p200
aV['Cape', 'Coral']
p201
aV['Mesquite']
p202
aV['Torrance']
p203
aV['Wichita']
p204
aV['Peoria']
p205
aV['Manchester']
p206
aV['Chula', 'Vista']
p207
aV['Simi', 'Valley']
p208
aV['Wichita', 'Falls']
p209
aV['Roseville']
p210
aV['Erie']
p211
aV['San', 'Antonio']
p212
aV['Grand', 'Rapids']
p213
aV['San', 'Diego']
p214
aV['Hayward']
p215
aV['Laredo']
p216
aV['Modesto']
p217
aV['Macon']
p218
aV['Long', 'Beach']
p219
aV['St.', 'Petersburg']
p220
aV['Glendale']
p221
aV['Baltimore']
p222
aV['Miami']
p223
aV['Columbus']
p224
aV['Ann', 'Arbor']
p225
aV['Pittsburgh']
p226
aV['Garland']
p227
aV['Salinas']
p228
aV['Springfield']
p229
aV['Chattanooga']
p230
aV['Topeka']
p231
aV['Anaheim']
p232
aV['Santa', 'Ana']
p233
aV['Fairfield']
p234
aV['Plano']
p235
aV['Reno']
p236
aV['Tallahassee']
p237
aV['Bakersfield']
p238
aV['Aurora']
p239
aV['Waco']
p240
aV['Buffalo']
p241
aV['Santa', 'Rosa']
p242
aV['Cambridge']
p243
aV['Colorado', 'Springs']
p244
aV['Fort', 'Wayne']
p245
aV['Cedar', 'Rapids']
p246
atRp247
.