c__builtin__
set
p1
((lp2
(S'McAllen'
tp3
a(S'Houston'
tp4
a(S'Portland'
tp5
a(S'Toledo'
tp6
a(S'Alexandria'
tp7
a(S'New'
S'York'
S'City'
tp8
a(S'Independence'
tp9
a(S'St.'
S'Petersburg'
tp10
a(S'Phoenix'
tp11
a(S'Corpus'
S'Christi'
tp12
a(S'Salinas'
tp13
a(S'Philadelphia'
tp14
a(S'Detroit'
tp15
a(S'Manchester'
tp16
a(S'Montgomery'
tp17
a(S'El'
S'Paso'
tp18
a(S'Santa'
S'Rosa'
tp19
a(S'Miramar'
tp20
a(S'Vallejo'
tp21
a(S'Cambridge'
tp22
a(S'Ontario'
tp23
a(S'Springfield'
tp24
a(S'Sacramento'
tp25
a(S'Spokane'
tp26
a(S'Newark'
tp27
a(S'Washington'
tp28
a(S'Bakersfield'
tp29
a(S'Carrollton'
tp30
a(S'Lakewood'
tp31
a(S'Overland'
S'Park'
tp32
a(S'Irvine'
tp33
a(S'Riverside'
tp34
a(S'Bridgeport'
tp35
a(S'Oakland'
tp36
a(S'Paterson'
tp37
a(S'Sterling'
S'Heights'
tp38
a(S'Las'
S'Vegas'
tp39
a(S'Anchorage'
tp40
a(S'Cincinnati'
tp41
a(S'Inglewood'
tp42
a(S'Norman'
tp43
a(S'Allentown'
tp44
a(S'Fullerton'
tp45
a(S'Bellevue'
tp46
a(S'Akron'
tp47
a(S'Evansville'
tp48
a(S'Shreveport'
tp49
a(S'Pueblo'
tp50
a(S'Huntsville'
tp51
a(S'Huntington'
S'Beach'
tp52
a(S'Jackson'
tp53
a(S'Los'
S'Angeles'
tp54
a(S'West'
S'Covina'
tp55
a(S'St.'
S'Paul'
tp56
a(S'San'
S'Jose'
tp57
a(S'Downey'
tp58
a(S'Ann'
S'Arbor'
tp59
a(S'Moreno'
S'Valley'
tp60
a(S'Tempe'
tp61
a(S'Hayward'
tp62
a(S'Sunnyvale'
tp63
a(S'Wichita'
tp64
a(S'Naperville'
tp65
a(S'Arlington'
tp66
a(S'Brownsville'
tp67
a(S'Pompano'
S'Beach'
tp68
a(S'Concord'
tp69
a(S'Coral'
S'Springs'
tp70
a(S'Knoxville'
tp71
a(S'New'
S'Orleans'
tp72
a(S'St.'
S'Louis'
tp73
a(S'Simi'
S'Valley'
tp74
a(S'Burbank'
tp75
a(S'Charleston'
tp76
a(S'Stamford'
tp77
a(S'Eugene'
tp78
a(S'Hartford'
tp79
a(S'Lowell'
tp80
a(S'Chesapeake'
tp81
a(S'Costa'
S'Mesa'
tp82
a(S'Santa'
S'Clara'
tp83
a(S'Escondido'
tp84
a(S'Virginia'
S'Beach'
tp85
a(S'Norfolk'
tp86
a(S'Macon'
tp87
a(S'Sioux'
S'Falls'
tp88
a(S'Thousand'
S'Oaks'
tp89
a(S'Chicago'
tp90
a(S'Albuquerque'
tp91
a(S'Chula'
S'Vista'
tp92
a(S'Minneapolis'
tp93
a(S'Cape'
S'Coral'
tp94
a(S'Grand'
S'Prairie'
tp95
a(S'Rancho'
S'Cucamonga'
tp96
a(S'South'
S'Bend'
tp97
a(S'Palmdale'
tp98
a(S'Indianapolis'
tp99
a(S'Yonkers'
tp100
a(S'Tallahassee'
tp101
a(S'Warren'
tp102
a(S'Pembroke'
S'Pines'
tp103
a(S'Des'
S'Moines'
tp104
a(S'Fort'
S'Collins'
tp105
a(S'Dayton'
tp106
a(S'Lexington'
tp107
a(S'Salem'
tp108
a(S'Plano'
tp109
a(S'San'
S'Francisco'
tp110
a(S'Fayetteville'
tp111
a(S'Lancaster'
tp112
a(S'Honolulu'
tp113
a(S'Thornton'
tp114
a(S'Elizabeth'
tp115
a(S'Boston'
tp116
a(S'Rochester'
tp117
a(S'Joliet'
tp118
a(S'Waterbury'
tp119
a(S'Killeen'
tp120
a(S'Anaheim'
tp121
a(S'Topeka'
tp122
a(S'Grand'
S'Rapids'
tp123
a(S'Olathe'
tp124
a(S'Lafayette'
tp125
a(S'Hialeah'
tp126
a(S'San'
S'Buenaventura'
S'('
S'Ventura'
S')'
tp127
a(S'West'
S'Valley'
S'City'
tp128
a(S'Gainesville'
tp129
a(S'Lubbock'
tp130
a(S'Columbia'
tp131
a(S'Syracuse'
tp132
a(S'Visalia'
tp133
a(S'Oceanside'
tp134
a(S'Wilmington'
tp135
a(S'Fresno'
tp136
a(S'Arvada'
tp137
a(S'Fort'
S'Lauderdale'
tp138
a(S'Corona'
tp139
a(S'Birmingham'
tp140
a(S'Lansing'
tp141
a(S'New'
S'Haven'
tp142
a(S'Rockford'
tp143
a(S'Lincoln'
tp144
a(S'Savannah'
tp145
a(S'Richmond'
tp146
a(S'Nashville'
tp147
a(S'Dallas'
tp148
a(S'Daly'
S'City'
tp149
a(S'Flint'
tp150
a(S'Reno'
tp151
a(S'Boise'
tp152
a(S'Mesa'
tp153
a(S'Raleigh'
tp154
a(S'Mobile'
tp155
a(S'Tacoma'
tp156
a(S'Salt'
S'Lake'
S'City'
tp157
a(S'Laredo'
tp158
a(S'Tampa'
tp159
a(S'Kansas'
S'City'
tp160
a(S'Fairfield'
tp161
a(S'Oklahoma'
S'City'
tp162
a(S'Denver'
tp163
a(S'Fremont'
tp164
a(S'Austin'
tp165
a(S'Denton'
tp166
a(S'Pittsburgh'
tp167
a(S'Garland'
tp168
a(S'Baltimore'
tp169
a(S'Little'
S'Rock'
tp170
a(S'Colorado'
S'Springs'
tp171
a(S'Omaha'
tp172
a(S'Winston-Salem'
tp173
a(S'Waco'
tp174
a(S'Providence'
tp175
a(S'Santa'
S'Ana'
tp176
a(S'Roseville'
tp177
a(S'Tucson'
tp178
a(S'Worcester'
tp179
a(S'Scottsdale'
tp180
a(S'Santa'
S'Clarita'
tp181
a(S'Amarillo'
tp182
a(S'Jersey'
S'City'
tp183
a(S'Peoria'
tp184
a(S'Fort'
S'Wayne'
tp185
a(S'Charlotte'
tp186
a(S'Atlanta'
tp187
a(S'Columbus'
tp188
a(S'Jacksonville'
tp189
a(S'Miami'
tp190
a(S'Portsmouth'
tp191
a(S'Stockton'
tp192
a(S'High'
tp193
a(S'Tulsa'
tp194
a(S'Orlando'
tp195
a(S'Erie'
tp196
a(S'Provo'
tp197
a(S'Orange'
tp198
a(S'Clarksville'
tp199
a(S'Modesto'
tp200
a(S'Hollywood'
tp201
a(S'Antioch'
tp202
a(S'Baton'
S'Rouge'
tp203
a(S'Everett'
tp204
a(S'Berkeley'
tp205
a(S'Pomona'
tp206
a(S'San'
S'Diego'
tp207
a(S'Westminster'
tp208
a(S'Elk'
S'Grove'
tp209
a(S'San'
S'Bernardino'
tp210
a(S'Louisville-Jefferson'
S'County'
tp211
a(S'Madison'
tp212
a(S'Clearwater'
tp213
a(S'Irving'
tp214
a(S'Abilene'
tp215
a(S'Oxnard'
tp216
a(S'Milwaukee'
tp217
a(S'Vancouver'
tp218
a(S'Long'
S'Beach'
tp219
a(S'Wichita'
S'Falls'
tp220
a(S'Seattle'
tp221
a(S'Memphis'
tp222
a(S'Fontana'
tp223
a(S'Cary'
tp224
a(S'North'
S'Las'
S'Vegas'
tp225
a(S'Cedar'
S'Rapids'
tp226
a(S'Glendale'
tp227
a(S'Durham'
tp228
a(S'Torrance'
tp229
a(S'El'
S'Monte'
tp230
a(S'Mesquite'
tp231
a(S'Fort'
S'Worth'
tp232
a(S'Newport'
S'News'
tp233
a(S'Hampton'
tp234
a(S'Buffalo'
tp235
a(S'Cleveland'
tp236
a(S'Chandler'
tp237
a(S'Greensboro'
tp238
a(S'Henderson'
tp239
a(S'Aurora'
tp240
a(S'San'
S'Antonio'
tp241
a(S'Beaumont'
tp242
a(S'Chattanooga'
tp243
a(S'Green'
S'Bay'
tp244
a(S'Pasadena'
tp245
a(S'Garden'
S'Grove'
tp246
atRp247
.