(lp0
(lp1
S'Birmingham'
p2
aa(lp3
S'Huntsville'
p4
aa(lp5
S'Mobile'
p6
aa(lp7
S'Montgomery'
p8
aa(lp9
S'Anchorage'
p10
aa(lp11
S'Chandler'
p12
aa(lp13
S'Glendale'
p14
aa(lp15
S'Mesa'
p16
aa(lp17
S'Peoria'
p18
aa(lp19
S'Phoenix'
p20
aa(lp21
S'Scottsdale'
p22
aa(lp23
S'Tempe'
p24
aa(lp25
S'Tucson'
p26
aa(lp27
S'Little'
p28
aS'Rock'
p29
aa(lp30
S'Anaheim'
p31
aa(lp32
S'Antioch'
p33
aa(lp34
S'Bakersfield'
p35
aa(lp36
S'Berkeley'
p37
aa(lp38
S'Burbank'
p39
aa(lp40
S'Chula'
p41
aS'Vista'
p42
aa(lp43
S'Concord'
p44
aa(lp45
S'Corona'
p46
aa(lp47
S'Costa'
p48
aS'Mesa'
p49
aa(lp50
S'Daly'
p51
aS'City'
p52
aa(lp53
S'Downey'
p54
aa(lp55
S'El'
p56
aS'Monte'
p57
aa(lp58
S'Elk'
p59
aS'Grove'
p60
aa(lp61
S'Escondido'
p62
aa(lp63
S'Fairfield'
p64
aa(lp65
S'Fontana'
p66
aa(lp67
S'Fremont'
p68
aa(lp69
S'Fresno'
p70
aa(lp71
S'Fullerton'
p72
aa(lp73
S'Garden'
p74
aS'Grove'
p75
aa(lp76
S'Glendale'
p77
aa(lp78
S'Hayward'
p79
aa(lp80
S'Huntington'
p81
aS'Beach'
p82
aa(lp83
S'Inglewood'
p84
aa(lp85
S'Irvine'
p86
aa(lp87
S'Lancaster'
p88
aa(lp89
S'Long'
p90
aS'Beach'
p91
aa(lp92
S'Los'
p93
aS'Angeles'
p94
aa(lp95
S'Modesto'
p96
aa(lp97
S'Moreno'
p98
aS'Valley'
p99
aa(lp100
S'Oakland'
p101
aa(lp102
S'Oceanside'
p103
aa(lp104
S'Ontario'
p105
aa(lp106
S'Orange'
p107
aa(lp108
S'Oxnard'
p109
aa(lp110
S'Palmdale'
p111
aa(lp112
S'Pasadena'
p113
aa(lp114
S'Pomona'
p115
aa(lp116
S'Rancho'
p117
aS'Cucamonga'
p118
aa(lp119
S'Richmond'
p120
aa(lp121
S'Riverside'
p122
aa(lp123
S'Roseville'
p124
aa(lp125
S'Sacramento'
p126
aa(lp127
S'Salinas'
p128
aa(lp129
S'San'
p130
aS'Bernardino'
p131
aa(lp132
S'San'
p133
aS'Buenaventura'
p134
aS'('
p135
aS'Ventura'
p136
aS')'
p137
aa(lp138
S'San'
p139
aS'Diego'
p140
aa(lp141
S'San'
p142
aS'Francisco'
p143
aa(lp144
S'San'
p145
aS'Jose'
p146
aa(lp147
S'Santa'
p148
aS'Ana'
p149
aa(lp150
S'Santa'
p151
aS'Clara'
p152
aa(lp153
S'Santa'
p154
aS'Clarita'
p155
aa(lp156
S'Santa'
p157
aS'Rosa'
p158
aa(lp159
S'Simi'
p160
aS'Valley'
p161
aa(lp162
S'Stockton'
p163
aa(lp164
S'Sunnyvale'
p165
aa(lp166
S'Thousand'
p167
aS'Oaks'
p168
aa(lp169
S'Torrance'
p170
aa(lp171
S'Vallejo'
p172
aa(lp173
S'Visalia'
p174
aa(lp175
S'West'
p176
aS'Covina'
p177
aa(lp178
S'Arvada'
p179
aa(lp180
S'Aurora'
p181
aa(lp182
S'Colorado'
p183
aS'Springs'
p184
aa(lp185
S'Denver'
p186
aa(lp187
S'Fort'
p188
aS'Collins'
p189
aa(lp190
S'Lakewood'
p191
aa(lp192
S'Pueblo'
p193
aa(lp194
S'Thornton'
p195
aa(lp196
S'Westminster'
p197
aa(lp198
S'Bridgeport'
p199
aa(lp200
S'Hartford'
p201
aa(lp202
S'New'
p203
aS'Haven'
p204
aa(lp205
S'Stamford'
p206
aa(lp207
S'Waterbury'
p208
aa(lp209
S'Washington'
p210
aa(lp211
S'Cape'
p212
aS'Coral'
p213
aa(lp214
S'Clearwater'
p215
aa(lp216
S'Coral'
p217
aS'Springs'
p218
aa(lp219
S'Fort'
p220
aS'Lauderdale'
p221
aa(lp222
S'Gainesville'
p223
aa(lp224
S'Hialeah'
p225
aa(lp226
S'Hollywood'
p227
aa(lp228
S'Jacksonville'
p229
aa(lp230
S'Miami'
p231
aa(lp232
S'Miramar'
p233
aa(lp234
S'Orlando'
p235
aa(lp236
S'Pembroke'
p237
aS'Pines'
p238
aa(lp239
S'Pompano'
p240
aS'Beach'
p241
aa(lp242
S'St.'
p243
aS'Petersburg'
p244
aa(lp245
S'Tallahassee'
p246
aa(lp247
S'Tampa'
p248
aa(lp249
S'Atlanta'
p250
aa(lp251
S'Columbus'
p252
aa(lp253
S'Macon'
p254
aa(lp255
S'Savannah'
p256
aa(lp257
S'Honolulu'
p258
aa(lp259
S'Boise'
p260
aa(lp261
S'Aurora'
p262
aa(lp263
S'Chicago'
p264
aa(lp265
S'Joliet'
p266
aa(lp267
S'Naperville'
p268
aa(lp269
S'Peoria'
p270
aa(lp271
S'Rockford'
p272
aa(lp273
S'Springfield'
p274
aa(lp275
S'Evansville'
p276
aa(lp277
S'Fort'
p278
aS'Wayne'
p279
aa(lp280
S'Indianapolis'
p281
aa(lp282
S'South'
p283
aS'Bend'
p284
aa(lp285
S'Cedar'
p286
aS'Rapids'
p287
aa(lp288
S'Des'
p289
aS'Moines'
p290
aa(lp291
S'Kansas'
p292
aS'City'
p293
aa(lp294
S'Olathe'
p295
aa(lp296
S'Overland'
p297
aS'Park'
p298
aa(lp299
S'Topeka'
p300
aa(lp301
S'Wichita'
p302
aa(lp303
S'Lexington'
p304
aa(lp305
S'Louisville-Jefferson'
p306
aS'County'
p307
aa(lp308
S'Baton'
p309
aS'Rouge'
p310
aa(lp311
S'Lafayette'
p312
aa(lp313
S'New'
p314
aS'Orleans'
p315
aa(lp316
S'Shreveport'
p317
aa(lp318
S'Baltimore'
p319
aa(lp320
S'Boston'
p321
aa(lp322
S'Cambridge'
p323
aa(lp324
S'Lowell'
p325
aa(lp326
S'Springfield'
p327
aa(lp328
S'Worcester'
p329
aa(lp330
S'Ann'
p331
aS'Arbor'
p332
aa(lp333
S'Detroit'
p334
aa(lp335
S'Flint'
p336
aa(lp337
S'Grand'
p338
aS'Rapids'
p339
aa(lp340
S'Lansing'
p341
aa(lp342
S'Sterling'
p343
aS'Heights'
p344
aa(lp345
S'Warren'
p346
aa(lp347
S'Minneapolis'
p348
aa(lp349
S'St.'
p350
aS'Paul'
p351
aa(lp352
S'Rochester'
p353
aa(lp354
S'Jackson'
p355
aa(lp356
S'Independence'
p357
aa(lp358
S'Kansas'
p359
aS'City'
p360
aa(lp361
S'Springfield'
p362
aa(lp363
S'St.'
p364
aS'Louis'
p365
aa(lp366
S'Lincoln'
p367
aa(lp368
S'Omaha'
p369
aa(lp370
S'Henderson'
p371
aa(lp372
S'Las'
p373
aS'Vegas'
p374
aa(lp375
S'North'
p376
aS'Las'
p377
aS'Vegas'
p378
aa(lp379
S'Reno'
p380
aa(lp381
S'Manchester'
p382
aa(lp383
S'Elizabeth'
p384
aa(lp385
S'Jersey'
p386
aS'City'
p387
aa(lp388
S'Newark'
p389
aa(lp390
S'Paterson'
p391
aa(lp392
S'Albuquerque'
p393
aa(lp394
S'Buffalo'
p395
aa(lp396
S'New'
p397
aS'York'
p398
aS'City'
p399
aa(lp400
S'Rochester'
p401
aa(lp402
S'Syracuse'
p403
aa(lp404
S'Yonkers'
p405
aa(lp406
S'Cary'
p407
aa(lp408
S'Charlotte'
p409
aa(lp410
S'Durham'
p411
aa(lp412
S'Fayetteville'
p413
aa(lp414
S'Greensboro'
p415
aa(lp416
S'High'
p417
aa(lp418
S'Raleigh'
p419
aa(lp420
S'Wilmington'
p421
aa(lp422
S'Winston-Salem'
p423
aa(lp424
S'Akron'
p425
aa(lp426
S'Cincinnati'
p427
aa(lp428
S'Cleveland'
p429
aa(lp430
S'Columbus'
p431
aa(lp432
S'Dayton'
p433
aa(lp434
S'Toledo'
p435
aa(lp436
S'Norman'
p437
aa(lp438
S'Oklahoma'
p439
aS'City'
p440
aa(lp441
S'Tulsa'
p442
aa(lp443
S'Eugene'
p444
aa(lp445
S'Portland'
p446
aa(lp447
S'Salem'
p448
aa(lp449
S'Allentown'
p450
aa(lp451
S'Erie'
p452
aa(lp453
S'Philadelphia'
p454
aa(lp455
S'Pittsburgh'
p456
aa(lp457
S'Providence'
p458
aa(lp459
S'Charleston'
p460
aa(lp461
S'Columbia'
p462
aa(lp463
S'Sioux'
p464
aS'Falls'
p465
aa(lp466
S'Chattanooga'
p467
aa(lp468
S'Clarksville'
p469
aa(lp470
S'Knoxville'
p471
aa(lp472
S'Memphis'
p473
aa(lp474
S'Nashville'
p475
aa(lp476
S'Abilene'
p477
aa(lp478
S'Amarillo'
p479
aa(lp480
S'Arlington'
p481
aa(lp482
S'Austin'
p483
aa(lp484
S'Beaumont'
p485
aa(lp486
S'Brownsville'
p487
aa(lp488
S'Carrollton'
p489
aa(lp490
S'Corpus'
p491
aS'Christi'
p492
aa(lp493
S'Dallas'
p494
aa(lp495
S'Denton'
p496
aa(lp497
S'El'
p498
aS'Paso'
p499
aa(lp500
S'Fort'
p501
aS'Worth'
p502
aa(lp503
S'Garland'
p504
aa(lp505
S'Grand'
p506
aS'Prairie'
p507
aa(lp508
S'Houston'
p509
aa(lp510
S'Irving'
p511
aa(lp512
S'Killeen'
p513
aa(lp514
S'Laredo'
p515
aa(lp516
S'Lubbock'
p517
aa(lp518
S'McAllen'
p519
aa(lp520
S'Mesquite'
p521
aa(lp522
S'Pasadena'
p523
aa(lp524
S'Plano'
p525
aa(lp526
S'San'
p527
aS'Antonio'
p528
aa(lp529
S'Wichita'
p530
aS'Falls'
p531
aa(lp532
S'Waco'
p533
aa(lp534
S'Provo'
p535
aa(lp536
S'Salt'
p537
aS'Lake'
p538
aS'City'
p539
aa(lp540
S'West'
p541
aS'Valley'
p542
aS'City'
p543
aa(lp544
S'Alexandria'
p545
aa(lp546
S'Arlington'
p547
aa(lp548
S'Chesapeake'
p549
aa(lp550
S'Hampton'
p551
aa(lp552
S'Newport'
p553
aS'News'
p554
aa(lp555
S'Norfolk'
p556
aa(lp557
S'Portsmouth'
p558
aa(lp559
S'Richmond'
p560
aa(lp561
S'Virginia'
p562
aS'Beach'
p563
aa(lp564
S'Bellevue'
p565
aa(lp566
S'Everett'
p567
aa(lp568
S'Seattle'
p569
aa(lp570
S'Spokane'
p571
aa(lp572
S'Tacoma'
p573
aa(lp574
S'Vancouver'
p575
aa(lp576
S'Green'
p577
aS'Bay'
p578
aa(lp579
S'Madison'
p580
aa(lp581
S'Milwaukee'
p582
aa.