(lp0
(lp1
S'Abkhazia'
p2
aa(lp3
S'Afghanistan'
p4
aa(lp5
S'Akrotiri'
p6
aa(lp7
S'Akrotiri'
p8
aS'and'
p9
aS'Dhekelia'
p10
aa(lp11
S'Aland'
p12
aa(lp13
S'Aland'
p14
aS'Islands'
p15
aa(lp16
S'Albania'
p17
aa(lp18
S'Algeria'
p19
aa(lp20
S'America'
p21
aa(lp22
S'American'
p23
aS'Samoa'
p24
aa(lp25
S'Andorra'
p26
aa(lp27
S'Angola'
p28
aa(lp29
S'Anguilla'
p30
aa(lp31
S'Antigua'
p32
aa(lp33
S'Antigua'
p34
aS'and'
p35
aS'Barbuda'
p36
aa(lp37
S'Argentina'
p38
aa(lp39
S'Armenia'
p40
aa(lp41
S'Aruba'
p42
aa(lp43
S'Ascension'
p44
aS'Island'
p45
aa(lp46
S'Australia'
p47
aa(lp48
S'Austria'
p49
aa(lp50
S'Azerbaijan'
p51
aa(lp52
S'Bahamas'
p53
aa(lp54
S'Bahrain'
p55
aa(lp56
S'Bangladesh'
p57
aa(lp58
S'Barbados'
p59
aa(lp60
S'Barbuda'
p61
aa(lp62
S'Belarus'
p63
aa(lp64
S'Belgium'
p65
aa(lp66
S'Belize'
p67
aa(lp68
S'Benin'
p69
aa(lp70
S'Bermuda'
p71
aa(lp72
S'Bhutan'
p73
aa(lp74
S'Bolivia'
p75
aa(lp76
S'Bosnia'
p77
aa(lp78
S'Bosnia'
p79
aS'and'
p80
aS'Herzegovina'
p81
aa(lp82
S'Botswana'
p83
aa(lp84
S'Brazil'
p85
aa(lp86
S'British'
p87
aS'Virgin'
p88
aS'Islands'
p89
aa(lp90
S'Brunei'
p91
aa(lp92
S'Bulgaria'
p93
aa(lp94
S'Burkina'
p95
aS'Faso'
p96
aa(lp97
S'Burma'
p98
aa(lp99
S'Burundi'
p100
aa(lp101
S'Caicos'
p102
aS'Islands'
p103
aa(lp104
S'Cambodia'
p105
aa(lp106
S'Cameroon'
p107
aa(lp108
S'Canada'
p109
aa(lp110
S'Cape'
p111
aS'Verde'
p112
aa(lp113
S'Cayman'
p114
aS'Islands'
p115
aa(lp116
S'Central'
p117
aS'African'
p118
aS'Republic'
p119
aa(lp120
S'Chad'
p121
aa(lp122
S'Chile'
p123
aa(lp124
S'China'
p125
aa(lp126
S'Christmas'
p127
aS'Island'
p128
aa(lp129
S'Cocos'
p130
aa(lp131
S'Cocos'
p132
aS'Islands'
p133
aa(lp134
S'Colombia'
p135
aa(lp136
S'Comoros'
p137
aa(lp138
S'Congo'
p139
aa(lp140
S'Cook'
p141
aS'Islands'
p142
aa(lp143
S'Costa'
p144
aS'Rica'
p145
aa(lp146
S'Cote'
p147
aS"d'Ivoire"
p148
aa(lp149
S'Croatia'
p150
aa(lp151
S'Cuba'
p152
aa(lp153
S'Cyprus'
p154
aa(lp155
S'Czech'
p156
aS'Republic'
p157
aa(lp158
S'Democratic'
p159
aS'Republic'
p160
aS'of'
p161
aS'Congo'
p162
aa(lp163
S'Denmark'
p164
aa(lp165
S'Dhekelia'
p166
aa(lp167
S'Djibouti'
p168
aa(lp169
S'Dominica'
p170
aa(lp171
S'Dominican'
p172
aS'Republic'
p173
aa(lp174
S'East'
p175
aS'Timor'
p176
aa(lp177
S'Ecuador'
p178
aa(lp179
S'Egypt'
p180
aa(lp181
S'El'
p182
aS'Salvador'
p183
aa(lp184
S'England'
p185
aa(lp186
S'Equatorial'
p187
aS'Guinea'
p188
aa(lp189
S'Eritrea'
p190
aa(lp191
S'Estonia'
p192
aa(lp193
S'Ethiopia'
p194
aa(lp195
S'Falkland'
p196
aS'Islands'
p197
aa(lp198
S'Faroe'
p199
aS'Islands'
p200
aa(lp201
S'Fiji'
p202
aa(lp203
S'Finland'
p204
aa(lp205
S'Former'
p206
aS'Soviet'
p207
aS'Union'
p208
aa(lp209
S'Former'
p210
aS'USSR'
p211
aa(lp212
S'France'
p213
aa(lp214
S'French'
p215
aS'Polynesia'
p216
aa(lp217
S'Futuna'
p218
aS'Islands'
p219
aa(lp220
S'Gabon'
p221
aa(lp222
S'Gambia'
p223
aa(lp224
S'Georgia'
p225
aa(lp226
S'Germany'
p227
aa(lp228
S'Ghana'
p229
aa(lp230
S'Gibraltar'
p231
aa(lp232
S'Greece'
p233
aa(lp234
S'Greenland'
p235
aa(lp236
S'Grenada'
p237
aa(lp238
S'Grenadines'
p239
aa(lp240
S'Guam'
p241
aa(lp242
S'Guatemala'
p243
aa(lp244
S'Guernsey'
p245
aa(lp246
S'Guinea'
p247
aa(lp248
S'Guinea-Bissau'
p249
aa(lp250
S'Guyana'
p251
aa(lp252
S'Haiti'
p253
aa(lp254
S'Herzegovina'
p255
aa(lp256
S'Honduras'
p257
aa(lp258
S'Hong'
p259
aS'Kong'
p260
aa(lp261
S'Hoorn'
p262
aS'Islands'
p263
aa(lp264
S'Hungary'
p265
aa(lp266
S'Iceland'
p267
aa(lp268
S'India'
p269
aa(lp270
S'Indonesia'
p271
aa(lp272
S'Iran'
p273
aa(lp274
S'Iraq'
p275
aa(lp276
S'Ireland'
p277
aa(lp278
S'Isle'
p279
aS'of'
p280
aS'Man'
p281
aa(lp282
S'Israel'
p283
aa(lp284
S'Italy'
p285
aa(lp286
S'Jamaica'
p287
aa(lp288
S'Japan'
p289
aa(lp290
S'Jersey'
p291
aa(lp292
S'Jordan'
p293
aa(lp294
S'Kazakhstan'
p295
aa(lp296
S'Keeling'
p297
aS'Islands'
p298
aa(lp299
S'Kenya'
p300
aa(lp301
S'Kiribati'
p302
aa(lp303
S'Korea'
p304
aa(lp305
S'Kosovo'
p306
aa(lp307
S'Kuwait'
p308
aa(lp309
S'Kyrgyzstan'
p310
aa(lp311
S'Laos'
p312
aa(lp313
S'Latvia'
p314
aa(lp315
S'Lebanon'
p316
aa(lp317
S'Lesotho'
p318
aa(lp319
S'Liberia'
p320
aa(lp321
S'Libya'
p322
aa(lp323
S'Liechtenstein'
p324
aa(lp325
S'Lithuania'
p326
aa(lp327
S'Luxembourg'
p328
aa(lp329
S'Macao'
p330
aa(lp331
S'Macau'
p332
aa(lp333
S'Macedonia'
p334
aa(lp335
S'Madagascar'
p336
aa(lp337
S'Malawi'
p338
aa(lp339
S'Malaysia'
p340
aa(lp341
S'Maldives'
p342
aa(lp343
S'Mali'
p344
aa(lp345
S'Malta'
p346
aa(lp347
S'Marshall'
p348
aS'Islands'
p349
aa(lp350
S'Mauritania'
p351
aa(lp352
S'Mauritius'
p353
aa(lp354
S'Mayotte'
p355
aa(lp356
S'Mexico'
p357
aa(lp358
S'Micronesia'
p359
aa(lp360
S'Miquelon'
p361
aa(lp362
S'Moldova'
p363
aa(lp364
S'Monaco'
p365
aa(lp366
S'Mongolia'
p367
aa(lp368
S'Montenegro'
p369
aa(lp370
S'Montserrat'
p371
aa(lp372
S'Morocco'
p373
aa(lp374
S'Mozambique'
p375
aa(lp376
S'Myanmar'
p377
aa(lp378
S'Nagorno-Karabakh'
p379
aS'Republic'
p380
aa(lp381
S'Namibia'
p382
aa(lp383
S'Nauru'
p384
aa(lp385
S'Nepal'
p386
aa(lp387
S'Netherlands'
p388
aa(lp389
S'Netherlands'
p390
aS'Antilles'
p391
aa(lp392
S'Nevis'
p393
aa(lp394
S'New'
p395
aS'Caledonia'
p396
aa(lp397
S'New'
p398
aS'Zealand'
p399
aa(lp400
S'Nicaragua'
p401
aa(lp402
S'Niger'
p403
aa(lp404
S'Nigeria'
p405
aa(lp406
S'Niue'
p407
aa(lp408
S'Norfolk'
p409
aS'Island'
p410
aa(lp411
S'Northern'
p412
aS'Mariana'
p413
aS'Islands'
p414
aa(lp415
S'North'
p416
aS'Korea'
p417
aa(lp418
S'Norway'
p419
aa(lp420
S'Oman'
p421
aa(lp422
S'Pakistan'
p423
aa(lp424
S'Palau'
p425
aa(lp426
S'Palestine'
p427
aa(lp428
S'Palestinian'
p429
aS'Territory'
p430
aa(lp431
S'Panama'
p432
aa(lp433
S'Papua'
p434
aS'New'
p435
aS'Guinea'
p436
aa(lp437
S'Paraguay'
p438
aa(lp439
S'People'
p440
aS"'s"
p441
aS'Republic'
p442
aS'of'
p443
aS'China'
p444
aa(lp445
S'Peru'
p446
aa(lp447
S'Philippines'
p448
aa(lp449
S'Pitcairn'
p450
aS'Islands'
p451
aa(lp452
S'Poland'
p453
aa(lp454
S'Portugal'
p455
aa(lp456
S'Principe'
p457
aa(lp458
S'Puerto'
p459
aS'Rico'
p460
aa(lp461
S'Qatar'
p462
aa(lp463
S'Romania'
p464
aa(lp465
S'Russia'
p466
aa(lp467
S'Rwanda'
p468
aa(lp469
S'Saint'
p470
aS'Barthelemy'
p471
aa(lp472
S'Saint'
p473
aS'Barts'
p474
aa(lp475
S'Saint'
p476
aS'Helena'
p477
aa(lp478
S'Saint'
p479
aS'Kitts'
p480
aa(lp481
S'Saint'
p482
aS'Kitts'
p483
aS'and'
p484
aS'Nevis'
p485
aa(lp486
S'Saint'
p487
aS'Lucia'
p488
aa(lp489
S'Saint'
p490
aS'Martin'
p491
aa(lp492
S'Saint'
p493
aS'Pierre'
p494
aa(lp495
S'Saint'
p496
aS'Pierre'
p497
aS'and'
p498
aS'Miquelon'
p499
aa(lp500
S'Saint'
p501
aS'Vincent'
p502
aa(lp503
S'Saint'
p504
aS'Vincent'
p505
aS'and'
p506
aS'the'
p507
aS'Grenadines'
p508
aa(lp509
S'Samoa'
p510
aa(lp511
S'San'
p512
aS'Marino'
p513
aa(lp514
S'Sao'
p515
aS'Tome'
p516
aa(lp517
S'Sao'
p518
aS'Tome'
p519
aS'and'
p520
aS'Principe'
p521
aa(lp522
S'Saudi'
p523
aS'Arabia'
p524
aa(lp525
S'Scotland'
p526
aa(lp527
S'Senegal'
p528
aa(lp529
S'Serbia'
p530
aa(lp531
S'Seychelles'
p532
aa(lp533
S'Sierra'
p534
aS'Leone'
p535
aa(lp536
S'Singapore'
p537
aa(lp538
S'Slovakia'
p539
aa(lp540
S'Slovenia'
p541
aa(lp542
S'Solomon'
p543
aS'Islands'
p544
aa(lp545
S'Somalia'
p546
aa(lp547
S'Somaliland'
p548
aa(lp549
S'South'
p550
aS'Africa'
p551
aa(lp552
S'South'
p553
aS'Korea'
p554
aa(lp555
S'South'
p556
aS'Ossetia'
p557
aa(lp558
S'Soviet'
p559
aS'Union'
p560
aa(lp561
S'Spain'
p562
aa(lp563
S'Sri'
p564
aS'Lanka'
p565
aa(lp566
S'Sudan'
p567
aa(lp568
S'Suriname'
p569
aa(lp570
S'Svalbard'
p571
aa(lp572
S'Swaziland'
p573
aa(lp574
S'Sweden'
p575
aa(lp576
S'Switzerland'
p577
aa(lp578
S'Syria'
p579
aa(lp580
S'Taiwan'
p581
aa(lp582
S'Tajikistan'
p583
aa(lp584
S'Tanzania'
p585
aa(lp586
S'Thailand'
p587
aa(lp588
S'Tibet'
p589
aa(lp590
S'Tobago'
p591
aa(lp592
S'Togo'
p593
aa(lp594
S'Tokelau'
p595
aa(lp596
S'Tonga'
p597
aa(lp598
S'Transnistria'
p599
aa(lp600
S'Trinidad'
p601
aa(lp602
S'Trinidad'
p603
aS'and'
p604
aS'Tobago'
p605
aa(lp606
S'Tristan'
p607
aS'da'
p608
aS'Cunha'
p609
aa(lp610
S'Tunisia'
p611
aa(lp612
S'Turkey'
p613
aa(lp614
S'Turkmenistan'
p615
aa(lp616
S'Turks'
p617
aS'and'
p618
aS'Caicos'
p619
aS'Islands'
p620
aa(lp621
S'Turks'
p622
aS'Islands'
p623
aa(lp624
S'Tuvalu'
p625
aa(lp626
S'UAE'
p627
aa(lp628
S'Uganda'
p629
aa(lp630
S'UK'
p631
aa(lp632
S'Ukraine'
p633
aa(lp634
S'United'
p635
aS'Arab'
p636
aS'Emirates'
p637
aa(lp638
S'United'
p639
aS'Kingdom'
p640
aa(lp641
S'United'
p642
aS'States'
p643
aa(lp644
S'United'
p645
aS'States'
p646
aS'Virgin'
p647
aS'Islands'
p648
aa(lp649
S'Uruguay'
p650
aa(lp651
S'US'
p652
aa(lp653
S'USA'
p654
aa(lp655
S'USSR'
p656
aa(lp657
S'US'
p658
aS'Virgin'
p659
aS'Islands'
p660
aa(lp661
S'Uzbekistan'
p662
aa(lp663
S'Vanuatu'
p664
aa(lp665
S'Vatican'
p666
aa(lp667
S'Vatican'
p668
aS'City'
p669
aa(lp670
S'Venezuela'
p671
aa(lp672
S'Vietnam'
p673
aa(lp674
S'Virgin'
p675
aS'Islands'
p676
aa(lp677
S'Wallis'
p678
aS'and'
p679
aS'Futuna'
p680
aa(lp681
S'Wallis'
p682
aS'Islands'
p683
aa(lp684
S'Western'
p685
aS'Sahara'
p686
aa(lp687
S'Yemen'
p688
aa(lp689
S'Zambia'
p690
aa(lp691
S'Zimbabwe'
p692
aa.