(lp0
(lp1
S'Abagael'
p2
aa(lp3
S'Abagail'
p4
aa(lp5
S'Abbe'
p6
aa(lp7
S'Abbey'
p8
aa(lp9
S'Abbi'
p10
aa(lp11
S'Abbie'
p12
aa(lp13
S'Abby'
p14
aa(lp15
S'Abigael'
p16
aa(lp17
S'Abigail'
p18
aa(lp19
S'Abigale'
p20
aa(lp21
S'Abra'
p22
aa(lp23
S'Acacia'
p24
aa(lp25
S'Ada'
p26
aa(lp27
S'Adah'
p28
aa(lp29
S'Adaline'
p30
aa(lp31
S'Adara'
p32
aa(lp33
S'Addie'
p34
aa(lp35
S'Addis'
p36
aa(lp37
S'Adel'
p38
aa(lp39
S'Adela'
p40
aa(lp41
S'Adelaide'
p42
aa(lp43
S'Adele'
p44
aa(lp45
S'Adelice'
p46
aa(lp47
S'Adelina'
p48
aa(lp49
S'Adelind'
p50
aa(lp51
S'Adeline'
p52
aa(lp53
S'Adella'
p54
aa(lp55
S'Adelle'
p56
aa(lp57
S'Adena'
p58
aa(lp59
S'Adey'
p60
aa(lp61
S'Adi'
p62
aa(lp63
S'Adiana'
p64
aa(lp65
S'Adina'
p66
aa(lp67
S'Adora'
p68
aa(lp69
S'Adore'
p70
aa(lp71
S'Adoree'
p72
aa(lp73
S'Adorne'
p74
aa(lp75
S'Adrea'
p76
aa(lp77
S'Adria'
p78
aa(lp79
S'Adriaens'
p80
aa(lp81
S'Adrian'
p82
aa(lp83
S'Adriana'
p84
aa(lp85
S'Adriane'
p86
aa(lp87
S'Adrianna'
p88
aa(lp89
S'Adrianne'
p90
aa(lp91
S'Adrien'
p92
aa(lp93
S'Adriena'
p94
aa(lp95
S'Adrienne'
p96
aa(lp97
S'Aeriel'
p98
aa(lp99
S'Aeriela'
p100
aa(lp101
S'Aeriell'
p102
aa(lp103
S'Ag'
p104
aa(lp105
S'Agace'
p106
aa(lp107
S'Agata'
p108
aa(lp109
S'Agatha'
p110
aa(lp111
S'Agathe'
p112
aa(lp113
S'Aggi'
p114
aa(lp115
S'Aggie'
p116
aa(lp117
S'Aggy'
p118
aa(lp119
S'Agna'
p120
aa(lp121
S'Agnella'
p122
aa(lp123
S'Agnes'
p124
aa(lp125
S'Agnese'
p126
aa(lp127
S'Agnesse'
p128
aa(lp129
S'Agneta'
p130
aa(lp131
S'Agnola'
p132
aa(lp133
S'Agretha'
p134
aa(lp135
S'Aida'
p136
aa(lp137
S'Aidan'
p138
aa(lp139
S'Aigneis'
p140
aa(lp141
S'Aila'
p142
aa(lp143
S'Aile'
p144
aa(lp145
S'Ailee'
p146
aa(lp147
S'Aileen'
p148
aa(lp149
S'Ailene'
p150
aa(lp151
S'Ailey'
p152
aa(lp153
S'Aili'
p154
aa(lp155
S'Ailina'
p156
aa(lp157
S'Ailyn'
p158
aa(lp159
S'Aime'
p160
aa(lp161
S'Aimee'
p162
aa(lp163
S'Aimil'
p164
aa(lp165
S'Aina'
p166
aa(lp167
S'Aindrea'
p168
aa(lp169
S'Ainslee'
p170
aa(lp171
S'Ainsley'
p172
aa(lp173
S'Ainslie'
p174
aa(lp175
S'Ajay'
p176
aa(lp177
S'Alaine'
p178
aa(lp179
S'Alameda'
p180
aa(lp181
S'Alana'
p182
aa(lp183
S'Alanah'
p184
aa(lp185
S'Alane'
p186
aa(lp187
S'Alanna'
p188
aa(lp189
S'Alayne'
p190
aa(lp191
S'Alberta'
p192
aa(lp193
S'Albertina'
p194
aa(lp195
S'Albertine'
p196
aa(lp197
S'Albina'
p198
aa(lp199
S'Alecia'
p200
aa(lp201
S'Aleda'
p202
aa(lp203
S'Aleece'
p204
aa(lp205
S'Aleecia'
p206
aa(lp207
S'Aleen'
p208
aa(lp209
S'Alejandra'
p210
aa(lp211
S'Alejandrina'
p212
aa(lp213
S'Alena'
p214
aa(lp215
S'Alene'
p216
aa(lp217
S'Alessandra'
p218
aa(lp219
S'Aleta'
p220
aa(lp221
S'Alethea'
p222
aa(lp223
S'Alex'
p224
aa(lp225
S'Alexa'
p226
aa(lp227
S'Alexandra'
p228
aa(lp229
S'Alexandrina'
p230
aa(lp231
S'Alexi'
p232
aa(lp233
S'Alexia'
p234
aa(lp235
S'Alexina'
p236
aa(lp237
S'Alexine'
p238
aa(lp239
S'Alexis'
p240
aa(lp241
S'Alfie'
p242
aa(lp243
S'Alfreda'
p244
aa(lp245
S'Ali'
p246
aa(lp247
S'Alia'
p248
aa(lp249
S'Alica'
p250
aa(lp251
S'Alice'
p252
aa(lp253
S'Alicea'
p254
aa(lp255
S'Alicia'
p256
aa(lp257
S'Alida'
p258
aa(lp259
S'Alidia'
p260
aa(lp261
S'Alina'
p262
aa(lp263
S'Aline'
p264
aa(lp265
S'Alis'
p266
aa(lp267
S'Alisa'
p268
aa(lp269
S'Alisha'
p270
aa(lp271
S'Alison'
p272
aa(lp273
S'Alissa'
p274
aa(lp275
S'Alisun'
p276
aa(lp277
S'Alix'
p278
aa(lp279
S'Aliza'
p280
aa(lp281
S'Alla'
p282
aa(lp283
S'Alleen'
p284
aa(lp285
S'Allegra'
p286
aa(lp287
S'Allene'
p288
aa(lp289
S'Alli'
p290
aa(lp291
S'Allianora'
p292
aa(lp293
S'Allie'
p294
aa(lp295
S'Allina'
p296
aa(lp297
S'Allis'
p298
aa(lp299
S'Allison'
p300
aa(lp301
S'Allissa'
p302
aa(lp303
S'Allsun'
p304
aa(lp305
S'Ally'
p306
aa(lp307
S'Allyce'
p308
aa(lp309
S'Allyn'
p310
aa(lp311
S'Allys'
p312
aa(lp313
S'Allyson'
p314
aa(lp315
S'Alma'
p316
aa(lp317
S'Almeda'
p318
aa(lp319
S'Almeria'
p320
aa(lp321
S'Almeta'
p322
aa(lp323
S'Almira'
p324
aa(lp325
S'Almire'
p326
aa(lp327
S'Aloise'
p328
aa(lp329
S'Aloisia'
p330
aa(lp331
S'Aloysia'
p332
aa(lp333
S'Alpa'
p334
aa(lp335
S'Alta'
p336
aa(lp337
S'Althea'
p338
aa(lp339
S'Alvera'
p340
aa(lp341
S'Alvina'
p342
aa(lp343
S'Alvinia'
p344
aa(lp345
S'Alvira'
p346
aa(lp347
S'Alyce'
p348
aa(lp349
S'Alyda'
p350
aa(lp351
S'Alys'
p352
aa(lp353
S'Alysa'
p354
aa(lp355
S'Alyse'
p356
aa(lp357
S'Alysia'
p358
aa(lp359
S'Alyson'
p360
aa(lp361
S'Alyss'
p362
aa(lp363
S'Alyssa'
p364
aa(lp365
S'Amabel'
p366
aa(lp367
S'Amabelle'
p368
aa(lp369
S'Amalea'
p370
aa(lp371
S'Amalee'
p372
aa(lp373
S'Amaleta'
p374
aa(lp375
S'Amalia'
p376
aa(lp377
S'Amalie'
p378
aa(lp379
S'Amalita'
p380
aa(lp381
S'Amalle'
p382
aa(lp383
S'Amanda'
p384
aa(lp385
S'Amandi'
p386
aa(lp387
S'Amandie'
p388
aa(lp389
S'Amandy'
p390
aa(lp391
S'Amara'
p392
aa(lp393
S'Amargo'
p394
aa(lp395
S'Amata'
p396
aa(lp397
S'Amber'
p398
aa(lp399
S'Amberly'
p400
aa(lp401
S'Ambrosia'
p402
aa(lp403
S'Ambur'
p404
aa(lp405
S'Ame'
p406
aa(lp407
S'Amelia'
p408
aa(lp409
S'Amelie'
p410
aa(lp411
S'Amelina'
p412
aa(lp413
S'Ameline'
p414
aa(lp415
S'Amelita'
p416
aa(lp417
S'Ami'
p418
aa(lp419
S'Amie'
p420
aa(lp421
S'Amity'
p422
aa(lp423
S'Ammamaria'
p424
aa(lp425
S'Amy'
p426
aa(lp427
S'Ana'
p428
aa(lp429
S'Anabel'
p430
aa(lp431
S'Anabella'
p432
aa(lp433
S'Anabelle'
p434
aa(lp435
S'Anais'
p436
aa(lp437
S'Analiese'
p438
aa(lp439
S'Analise'
p440
aa(lp441
S'Anallese'
p442
aa(lp443
S'Anallise'
p444
aa(lp445
S'Anastasia'
p446
aa(lp447
S'Anastasie'
p448
aa(lp449
S'Anastassia'
p450
aa(lp451
S'Anatola'
p452
aa(lp453
S'Andee'
p454
aa(lp455
S'Andi'
p456
aa(lp457
S'Andie'
p458
aa(lp459
S'Andra'
p460
aa(lp461
S'Andrea'
p462
aa(lp463
S'Andreana'
p464
aa(lp465
S'Andree'
p466
aa(lp467
S'Andrei'
p468
aa(lp469
S'Andria'
p470
aa(lp471
S'Andriana'
p472
aa(lp473
S'Andriette'
p474
aa(lp475
S'Andromache'
p476
aa(lp477
S'Andromeda'
p478
aa(lp479
S'Andy'
p480
aa(lp481
S'Anestassia'
p482
aa(lp483
S'Anet'
p484
aa(lp485
S'Anett'
p486
aa(lp487
S'Anetta'
p488
aa(lp489
S'Anette'
p490
aa(lp491
S'Ange'
p492
aa(lp493
S'Angel'
p494
aa(lp495
S'Angela'
p496
aa(lp497
S'Angele'
p498
aa(lp499
S'Angelia'
p500
aa(lp501
S'Angelica'
p502
aa(lp503
S'Angelika'
p504
aa(lp505
S'Angelina'
p506
aa(lp507
S'Angeline'
p508
aa(lp509
S'Angelique'
p510
aa(lp511
S'Angelita'
p512
aa(lp513
S'Angelle'
p514
aa(lp515
S'Angie'
p516
aa(lp517
S'Angil'
p518
aa(lp519
S'Angy'
p520
aa(lp521
S'Ania'
p522
aa(lp523
S'Anica'
p524
aa(lp525
S'Anissa'
p526
aa(lp527
S'Anita'
p528
aa(lp529
S'Anitra'
p530
aa(lp531
S'Anja'
p532
aa(lp533
S'Anjanette'
p534
aa(lp535
S'Anjela'
p536
aa(lp537
S'Ann'
p538
aa(lp539
S'Ann-Mari'
p540
aa(lp541
S'Ann-Marie'
p542
aa(lp543
S'Anna'
p544
aa(lp545
S'Anna-Diana'
p546
aa(lp547
S'Anna-Diane'
p548
aa(lp549
S'Anna-Maria'
p550
aa(lp551
S'Annabal'
p552
aa(lp553
S'Annabel'
p554
aa(lp555
S'Annabela'
p556
aa(lp557
S'Annabell'
p558
aa(lp559
S'Annabella'
p560
aa(lp561
S'Annabelle'
p562
aa(lp563
S'Annadiana'
p564
aa(lp565
S'Annadiane'
p566
aa(lp567
S'Annalee'
p568
aa(lp569
S'Annalena'
p570
aa(lp571
S'Annaliese'
p572
aa(lp573
S'Annalisa'
p574
aa(lp575
S'Annalise'
p576
aa(lp577
S'Annalyse'
p578
aa(lp579
S'Annamari'
p580
aa(lp581
S'Annamaria'
p582
aa(lp583
S'Annamarie'
p584
aa(lp585
S'Anne'
p586
aa(lp587
S'Anne-Corinne'
p588
aa(lp589
S'Anne-Mar'
p590
aa(lp591
S'Anne-Marie'
p592
aa(lp593
S'Annecorinne'
p594
aa(lp595
S'Anneliese'
p596
aa(lp597
S'Annelise'
p598
aa(lp599
S'Annemarie'
p600
aa(lp601
S'Annetta'
p602
aa(lp603
S'Annette'
p604
aa(lp605
S'Anni'
p606
aa(lp607
S'Annice'
p608
aa(lp609
S'Annie'
p610
aa(lp611
S'Annissa'
p612
aa(lp613
S'Annmaria'
p614
aa(lp615
S'Annmarie'
p616
aa(lp617
S'Annnora'
p618
aa(lp619
S'Annora'
p620
aa(lp621
S'Anny'
p622
aa(lp623
S'Anselma'
p624
aa(lp625
S'Ansley'
p626
aa(lp627
S'Anstice'
p628
aa(lp629
S'Anthe'
p630
aa(lp631
S'Anthea'
p632
aa(lp633
S'Anthia'
p634
aa(lp635
S'Antoinette'
p636
aa(lp637
S'Antonella'
p638
aa(lp639
S'Antonetta'
p640
aa(lp641
S'Antonia'
p642
aa(lp643
S'Antonie'
p644
aa(lp645
S'Antonietta'
p646
aa(lp647
S'Antonina'
p648
aa(lp649
S'Anya'
p650
aa(lp651
S'Aphrodite'
p652
aa(lp653
S'Appolonia'
p654
aa(lp655
S'April'
p656
aa(lp657
S'Aprilette'
p658
aa(lp659
S'Ara'
p660
aa(lp661
S'Arabel'
p662
aa(lp663
S'Arabela'
p664
aa(lp665
S'Arabele'
p666
aa(lp667
S'Arabella'
p668
aa(lp669
S'Arabelle'
p670
aa(lp671
S'Arda'
p672
aa(lp673
S'Ardath'
p674
aa(lp675
S'Ardeen'
p676
aa(lp677
S'Ardelia'
p678
aa(lp679
S'Ardelis'
p680
aa(lp681
S'Ardella'
p682
aa(lp683
S'Ardelle'
p684
aa(lp685
S'Arden'
p686
aa(lp687
S'Ardene'
p688
aa(lp689
S'Ardenia'
p690
aa(lp691
S'Ardine'
p692
aa(lp693
S'Ardis'
p694
aa(lp695
S'Ardith'
p696
aa(lp697
S'Ardra'
p698
aa(lp699
S'Ardyce'
p700
aa(lp701
S'Ardys'
p702
aa(lp703
S'Ardyth'
p704
aa(lp705
S'Aretha'
p706
aa(lp707
S'Ariadne'
p708
aa(lp709
S'Ariana'
p710
aa(lp711
S'Arianne'
p712
aa(lp713
S'Aridatha'
p714
aa(lp715
S'Ariel'
p716
aa(lp717
S'Ariela'
p718
aa(lp719
S'Ariella'
p720
aa(lp721
S'Arielle'
p722
aa(lp723
S'Arlana'
p724
aa(lp725
S'Arlee'
p726
aa(lp727
S'Arleen'
p728
aa(lp729
S'Arlen'
p730
aa(lp731
S'Arlena'
p732
aa(lp733
S'Arlene'
p734
aa(lp735
S'Arleta'
p736
aa(lp737
S'Arlette'
p738
aa(lp739
S'Arleyne'
p740
aa(lp741
S'Arlie'
p742
aa(lp743
S'Arliene'
p744
aa(lp745
S'Arlina'
p746
aa(lp747
S'Arlinda'
p748
aa(lp749
S'Arline'
p750
aa(lp751
S'Arly'
p752
aa(lp753
S'Arlyn'
p754
aa(lp755
S'Arlyne'
p756
aa(lp757
S'Aryn'
p758
aa(lp759
S'Ashely'
p760
aa(lp761
S'Ashlee'
p762
aa(lp763
S'Ashleigh'
p764
aa(lp765
S'Ashlen'
p766
aa(lp767
S'Ashley'
p768
aa(lp769
S'Ashli'
p770
aa(lp771
S'Ashlie'
p772
aa(lp773
S'Ashly'
p774
aa(lp775
S'Asia'
p776
aa(lp777
S'Astra'
p778
aa(lp779
S'Astrid'
p780
aa(lp781
S'Astrix'
p782
aa(lp783
S'Atalanta'
p784
aa(lp785
S'Athena'
p786
aa(lp787
S'Athene'
p788
aa(lp789
S'Atlanta'
p790
aa(lp791
S'Atlante'
p792
aa(lp793
S'Auberta'
p794
aa(lp795
S'Aubine'
p796
aa(lp797
S'Aubree'
p798
aa(lp799
S'Aubrette'
p800
aa(lp801
S'Aubrey'
p802
aa(lp803
S'Aubrie'
p804
aa(lp805
S'Aubry'
p806
aa(lp807
S'Audi'
p808
aa(lp809
S'Audie'
p810
aa(lp811
S'Audra'
p812
aa(lp813
S'Audre'
p814
aa(lp815
S'Audrey'
p816
aa(lp817
S'Audrie'
p818
aa(lp819
S'Audry'
p820
aa(lp821
S'Audrye'
p822
aa(lp823
S'Audy'
p824
aa(lp825
S'Augusta'
p826
aa(lp827
S'Auguste'
p828
aa(lp829
S'Augustina'
p830
aa(lp831
S'Augustine'
p832
aa(lp833
S'Aura'
p834
aa(lp835
S'Aurea'
p836
aa(lp837
S'Aurel'
p838
aa(lp839
S'Aurelea'
p840
aa(lp841
S'Aurelia'
p842
aa(lp843
S'Aurelie'
p844
aa(lp845
S'Auria'
p846
aa(lp847
S'Aurie'
p848
aa(lp849
S'Aurilia'
p850
aa(lp851
S'Aurlie'
p852
aa(lp853
S'Auroora'
p854
aa(lp855
S'Aurora'
p856
aa(lp857
S'Aurore'
p858
aa(lp859
S'Austin'
p860
aa(lp861
S'Austina'
p862
aa(lp863
S'Austine'
p864
aa(lp865
S'Ava'
p866
aa(lp867
S'Aveline'
p868
aa(lp869
S'Averil'
p870
aa(lp871
S'Averyl'
p872
aa(lp873
S'Avie'
p874
aa(lp875
S'Avis'
p876
aa(lp877
S'Aviva'
p878
aa(lp879
S'Avivah'
p880
aa(lp881
S'Avril'
p882
aa(lp883
S'Avrit'
p884
aa(lp885
S'Ayn'
p886
aa(lp887
S'Bab'
p888
aa(lp889
S'Babara'
p890
aa(lp891
S'Babette'
p892
aa(lp893
S'Babita'
p894
aa(lp895
S'Babs'
p896
aa(lp897
S'Bambi'
p898
aa(lp899
S'Bambie'
p900
aa(lp901
S'Bamby'
p902
aa(lp903
S'Barb'
p904
aa(lp905
S'Barbabra'
p906
aa(lp907
S'Barbara'
p908
aa(lp909
S'Barbara-Anne'
p910
aa(lp911
S'Barbaraanne'
p912
aa(lp913
S'Barbe'
p914
aa(lp915
S'Barbee'
p916
aa(lp917
S'Barbette'
p918
aa(lp919
S'Barbey'
p920
aa(lp921
S'Barbi'
p922
aa(lp923
S'Barbie'
p924
aa(lp925
S'Barbra'
p926
aa(lp927
S'Barby'
p928
aa(lp929
S'Bari'
p930
aa(lp931
S'Barrie'
p932
aa(lp933
S'Barry'
p934
aa(lp935
S'Basia'
p936
aa(lp937
S'Bathsheba'
p938
aa(lp939
S'Batsheva'
p940
aa(lp941
S'Bea'
p942
aa(lp943
S'Beatrice'
p944
aa(lp945
S'Beatrisa'
p946
aa(lp947
S'Beatrix'
p948
aa(lp949
S'Beatriz'
p950
aa(lp951
S'Beau'
p952
aa(lp953
S'Bebe'
p954
aa(lp955
S'Becca'
p956
aa(lp957
S'Becka'
p958
aa(lp959
S'Becki'
p960
aa(lp961
S'Beckie'
p962
aa(lp963
S'Becky'
p964
aa(lp965
S'Bee'
p966
aa(lp967
S'Beilul'
p968
aa(lp969
S'Beitris'
p970
aa(lp971
S'Bekki'
p972
aa(lp973
S'Bel'
p974
aa(lp975
S'Belia'
p976
aa(lp977
S'Belicia'
p978
aa(lp979
S'Belinda'
p980
aa(lp981
S'Belita'
p982
aa(lp983
S'Bell'
p984
aa(lp985
S'Bella'
p986
aa(lp987
S'Bellamy'
p988
aa(lp989
S'Bellanca'
p990
aa(lp991
S'Belle'
p992
aa(lp993
S'Bellina'
p994
aa(lp995
S'Belva'
p996
aa(lp997
S'Belvia'
p998
aa(lp999
S'Bendite'
p1000
aa(lp1001
S'Benedetta'
p1002
aa(lp1003
S'Benedicta'
p1004
aa(lp1005
S'Benedikta'
p1006
aa(lp1007
S'Benetta'
p1008
aa(lp1009
S'Benita'
p1010
aa(lp1011
S'Benni'
p1012
aa(lp1013
S'Bennie'
p1014
aa(lp1015
S'Benny'
p1016
aa(lp1017
S'Benoite'
p1018
aa(lp1019
S'Berenice'
p1020
aa(lp1021
S'Beret'
p1022
aa(lp1023
S'Berget'
p1024
aa(lp1025
S'Berna'
p1026
aa(lp1027
S'Bernadene'
p1028
aa(lp1029
S'Bernadette'
p1030
aa(lp1031
S'Bernadina'
p1032
aa(lp1033
S'Bernadine'
p1034
aa(lp1035
S'Bernardina'
p1036
aa(lp1037
S'Bernardine'
p1038
aa(lp1039
S'Bernelle'
p1040
aa(lp1041
S'Bernete'
p1042
aa(lp1043
S'Bernetta'
p1044
aa(lp1045
S'Bernette'
p1046
aa(lp1047
S'Berni'
p1048
aa(lp1049
S'Bernice'
p1050
aa(lp1051
S'Bernie'
p1052
aa(lp1053
S'Bernita'
p1054
aa(lp1055
S'Berny'
p1056
aa(lp1057
S'Berri'
p1058
aa(lp1059
S'Berrie'
p1060
aa(lp1061
S'Berry'
p1062
aa(lp1063
S'Bert'
p1064
aa(lp1065
S'Berta'
p1066
aa(lp1067
S'Berte'
p1068
aa(lp1069
S'Bertha'
p1070
aa(lp1071
S'Berthe'
p1072
aa(lp1073
S'Berti'
p1074
aa(lp1075
S'Bertie'
p1076
aa(lp1077
S'Bertina'
p1078
aa(lp1079
S'Bertine'
p1080
aa(lp1081
S'Berty'
p1082
aa(lp1083
S'Beryl'
p1084
aa(lp1085
S'Beryle'
p1086
aa(lp1087
S'Bess'
p1088
aa(lp1089
S'Bessie'
p1090
aa(lp1091
S'Bessy'
p1092
aa(lp1093
S'Beth'
p1094
aa(lp1095
S'Bethanne'
p1096
aa(lp1097
S'Bethany'
p1098
aa(lp1099
S'Bethena'
p1100
aa(lp1101
S'Bethina'
p1102
aa(lp1103
S'Betsey'
p1104
aa(lp1105
S'Betsy'
p1106
aa(lp1107
S'Betta'
p1108
aa(lp1109
S'Bette'
p1110
aa(lp1111
S'Bette-Ann'
p1112
aa(lp1113
S'Betteann'
p1114
aa(lp1115
S'Betteanne'
p1116
aa(lp1117
S'Betti'
p1118
aa(lp1119
S'Bettie'
p1120
aa(lp1121
S'Bettina'
p1122
aa(lp1123
S'Bettine'
p1124
aa(lp1125
S'Betty'
p1126
aa(lp1127
S'Bettye'
p1128
aa(lp1129
S'Beulah'
p1130
aa(lp1131
S'Bev'
p1132
aa(lp1133
S'Beverie'
p1134
aa(lp1135
S'Beverlee'
p1136
aa(lp1137
S'Beverlie'
p1138
aa(lp1139
S'Beverly'
p1140
aa(lp1141
S'Bevvy'
p1142
aa(lp1143
S'Bianca'
p1144
aa(lp1145
S'Bianka'
p1146
aa(lp1147
S'Biddy'
p1148
aa(lp1149
S'Bidget'
p1150
aa(lp1151
S'Bill'
p1152
aa(lp1153
S'Billi'
p1154
aa(lp1155
S'Billie'
p1156
aa(lp1157
S'Billy'
p1158
aa(lp1159
S'Binni'
p1160
aa(lp1161
S'Binnie'
p1162
aa(lp1163
S'Binny'
p1164
aa(lp1165
S'Bird'
p1166
aa(lp1167
S'Birdie'
p1168
aa(lp1169
S'Birgit'
p1170
aa(lp1171
S'Birgitta'
p1172
aa(lp1173
S'Blair'
p1174
aa(lp1175
S'Blaire'
p1176
aa(lp1177
S'Blake'
p1178
aa(lp1179
S'Blakelee'
p1180
aa(lp1181
S'Blakeley'
p1182
aa(lp1183
S'Blanca'
p1184
aa(lp1185
S'Blanch'
p1186
aa(lp1187
S'Blancha'
p1188
aa(lp1189
S'Blanche'
p1190
aa(lp1191
S'Blinni'
p1192
aa(lp1193
S'Blinnie'
p1194
aa(lp1195
S'Blinny'
p1196
aa(lp1197
S'Bliss'
p1198
aa(lp1199
S'Blisse'
p1200
aa(lp1201
S'Blithe'
p1202
aa(lp1203
S'Blondell'
p1204
aa(lp1205
S'Blondelle'
p1206
aa(lp1207
S'Blondie'
p1208
aa(lp1209
S'Blondy'
p1210
aa(lp1211
S'Blythe'
p1212
aa(lp1213
S'Bo'
p1214
aa(lp1215
S'Bobbette'
p1216
aa(lp1217
S'Bobbi'
p1218
aa(lp1219
S'Bobbie'
p1220
aa(lp1221
S'Bobby'
p1222
aa(lp1223
S'Bobette'
p1224
aa(lp1225
S'Bobina'
p1226
aa(lp1227
S'Bobine'
p1228
aa(lp1229
S'Bobinette'
p1230
aa(lp1231
S'Bonita'
p1232
aa(lp1233
S'Bonnee'
p1234
aa(lp1235
S'Bonni'
p1236
aa(lp1237
S'Bonnie'
p1238
aa(lp1239
S'Bonny'
p1240
aa(lp1241
S'Brana'
p1242
aa(lp1243
S'Brandais'
p1244
aa(lp1245
S'Brande'
p1246
aa(lp1247
S'Brandea'
p1248
aa(lp1249
S'Brandi'
p1250
aa(lp1251
S'Brandice'
p1252
aa(lp1253
S'Brandie'
p1254
aa(lp1255
S'Brandise'
p1256
aa(lp1257
S'Brandy'
p1258
aa(lp1259
S'Brea'
p1260
aa(lp1261
S'Breanne'
p1262
aa(lp1263
S'Brear'
p1264
aa(lp1265
S'Bree'
p1266
aa(lp1267
S'Breena'
p1268
aa(lp1269
S'Bren'
p1270
aa(lp1271
S'Brena'
p1272
aa(lp1273
S'Brenda'
p1274
aa(lp1275
S'Brenn'
p1276
aa(lp1277
S'Brenna'
p1278
aa(lp1279
S'Brett'
p1280
aa(lp1281
S'Bria'
p1282
aa(lp1283
S'Briana'
p1284
aa(lp1285
S'Brianna'
p1286
aa(lp1287
S'Brianne'
p1288
aa(lp1289
S'Bride'
p1290
aa(lp1291
S'Bridget'
p1292
aa(lp1293
S'Bridgett'
p1294
aa(lp1295
S'Bridgette'
p1296
aa(lp1297
S'Bridie'
p1298
aa(lp1299
S'Brier'
p1300
aa(lp1301
S'Brietta'
p1302
aa(lp1303
S'Brigid'
p1304
aa(lp1305
S'Brigida'
p1306
aa(lp1307
S'Brigit'
p1308
aa(lp1309
S'Brigitta'
p1310
aa(lp1311
S'Brigitte'
p1312
aa(lp1313
S'Brina'
p1314
aa(lp1315
S'Briney'
p1316
aa(lp1317
S'Briny'
p1318
aa(lp1319
S'Brit'
p1320
aa(lp1321
S'Brita'
p1322
aa(lp1323
S'Britaney'
p1324
aa(lp1325
S'Britani'
p1326
aa(lp1327
S'Briteny'
p1328
aa(lp1329
S'Britney'
p1330
aa(lp1331
S'Britni'
p1332
aa(lp1333
S'Britt'
p1334
aa(lp1335
S'Britta'
p1336
aa(lp1337
S'Brittan'
p1338
aa(lp1339
S'Brittany'
p1340
aa(lp1341
S'Britte'
p1342
aa(lp1343
S'Brittney'
p1344
aa(lp1345
S'Brook'
p1346
aa(lp1347
S'Brooke'
p1348
aa(lp1349
S'Brooks'
p1350
aa(lp1351
S'Brunella'
p1352
aa(lp1353
S'Brunhilda'
p1354
aa(lp1355
S'Brunhilde'
p1356
aa(lp1357
S'Bryana'
p1358
aa(lp1359
S'Bryn'
p1360
aa(lp1361
S'Bryna'
p1362
aa(lp1363
S'Brynn'
p1364
aa(lp1365
S'Brynna'
p1366
aa(lp1367
S'Brynne'
p1368
aa(lp1369
S'Buffy'
p1370
aa(lp1371
S'Bunni'
p1372
aa(lp1373
S'Bunnie'
p1374
aa(lp1375
S'Bunny'
p1376
aa(lp1377
S'Burta'
p1378
aa(lp1379
S'Cabrina'
p1380
aa(lp1381
S'Cacilia'
p1382
aa(lp1383
S'Cacilie'
p1384
aa(lp1385
S'Caitlin'
p1386
aa(lp1387
S'Caitrin'
p1388
aa(lp1389
S'Cal'
p1390
aa(lp1391
S'Calida'
p1392
aa(lp1393
S'Calla'
p1394
aa(lp1395
S'Calley'
p1396
aa(lp1397
S'Calli'
p1398
aa(lp1399
S'Callida'
p1400
aa(lp1401
S'Callie'
p1402
aa(lp1403
S'Cally'
p1404
aa(lp1405
S'Calypso'
p1406
aa(lp1407
S'Cam'
p1408
aa(lp1409
S'Camala'
p1410
aa(lp1411
S'Camel'
p1412
aa(lp1413
S'Camella'
p1414
aa(lp1415
S'Camellia'
p1416
aa(lp1417
S'Cameo'
p1418
aa(lp1419
S'Cami'
p1420
aa(lp1421
S'Camila'
p1422
aa(lp1423
S'Camile'
p1424
aa(lp1425
S'Camilla'
p1426
aa(lp1427
S'Camille'
p1428
aa(lp1429
S'Cammi'
p1430
aa(lp1431
S'Cammie'
p1432
aa(lp1433
S'Cammy'
p1434
aa(lp1435
S'Canada'
p1436
aa(lp1437
S'Candace'
p1438
aa(lp1439
S'Candi'
p1440
aa(lp1441
S'Candice'
p1442
aa(lp1443
S'Candida'
p1444
aa(lp1445
S'Candide'
p1446
aa(lp1447
S'Candie'
p1448
aa(lp1449
S'Candis'
p1450
aa(lp1451
S'Candra'
p1452
aa(lp1453
S'Candy'
p1454
aa(lp1455
S'Cappella'
p1456
aa(lp1457
S'Caprice'
p1458
aa(lp1459
S'Cara'
p1460
aa(lp1461
S'Caralie'
p1462
aa(lp1463
S'Caren'
p1464
aa(lp1465
S'Carena'
p1466
aa(lp1467
S'Caresa'
p1468
aa(lp1469
S'Caressa'
p1470
aa(lp1471
S'Caresse'
p1472
aa(lp1473
S'Carey'
p1474
aa(lp1475
S'Cari'
p1476
aa(lp1477
S'Caria'
p1478
aa(lp1479
S'Carie'
p1480
aa(lp1481
S'Caril'
p1482
aa(lp1483
S'Carilyn'
p1484
aa(lp1485
S'Carin'
p1486
aa(lp1487
S'Carina'
p1488
aa(lp1489
S'Carine'
p1490
aa(lp1491
S'Cariotta'
p1492
aa(lp1493
S'Carissa'
p1494
aa(lp1495
S'Carita'
p1496
aa(lp1497
S'Caritta'
p1498
aa(lp1499
S'Carla'
p1500
aa(lp1501
S'Carlee'
p1502
aa(lp1503
S'Carleen'
p1504
aa(lp1505
S'Carlen'
p1506
aa(lp1507
S'Carlena'
p1508
aa(lp1509
S'Carlene'
p1510
aa(lp1511
S'Carley'
p1512
aa(lp1513
S'Carli'
p1514
aa(lp1515
S'Carlie'
p1516
aa(lp1517
S'Carlin'
p1518
aa(lp1519
S'Carlina'
p1520
aa(lp1521
S'Carline'
p1522
aa(lp1523
S'Carlisle'
p1524
aa(lp1525
S'Carlita'
p1526
aa(lp1527
S'Carlota'
p1528
aa(lp1529
S'Carlotta'
p1530
aa(lp1531
S'Carly'
p1532
aa(lp1533
S'Carlye'
p1534
aa(lp1535
S'Carlyn'
p1536
aa(lp1537
S'Carlynn'
p1538
aa(lp1539
S'Carlynne'
p1540
aa(lp1541
S'Carma'
p1542
aa(lp1543
S'Carmel'
p1544
aa(lp1545
S'Carmela'
p1546
aa(lp1547
S'Carmelia'
p1548
aa(lp1549
S'Carmelina'
p1550
aa(lp1551
S'Carmelita'
p1552
aa(lp1553
S'Carmella'
p1554
aa(lp1555
S'Carmelle'
p1556
aa(lp1557
S'Carmen'
p1558
aa(lp1559
S'Carmina'
p1560
aa(lp1561
S'Carmine'
p1562
aa(lp1563
S'Carmita'
p1564
aa(lp1565
S'Carmon'
p1566
aa(lp1567
S'Caro'
p1568
aa(lp1569
S'Carol'
p1570
aa(lp1571
S'Carol-Jean'
p1572
aa(lp1573
S'Carola'
p1574
aa(lp1575
S'Carolan'
p1576
aa(lp1577
S'Carolann'
p1578
aa(lp1579
S'Carole'
p1580
aa(lp1581
S'Carolee'
p1582
aa(lp1583
S'Caroleen'
p1584
aa(lp1585
S'Carolie'
p1586
aa(lp1587
S'Carolin'
p1588
aa(lp1589
S'Carolina'
p1590
aa(lp1591
S'Caroline'
p1592
aa(lp1593
S'Caroljean'
p1594
aa(lp1595
S'Carolyn'
p1596
aa(lp1597
S'Carolyne'
p1598
aa(lp1599
S'Carolynn'
p1600
aa(lp1601
S'Caron'
p1602
aa(lp1603
S'Carree'
p1604
aa(lp1605
S'Carri'
p1606
aa(lp1607
S'Carrie'
p1608
aa(lp1609
S'Carrissa'
p1610
aa(lp1611
S'Carrol'
p1612
aa(lp1613
S'Carroll'
p1614
aa(lp1615
S'Carry'
p1616
aa(lp1617
S'Cary'
p1618
aa(lp1619
S'Caryl'
p1620
aa(lp1621
S'Caryn'
p1622
aa(lp1623
S'Casandra'
p1624
aa(lp1625
S'Casey'
p1626
aa(lp1627
S'Casi'
p1628
aa(lp1629
S'Casia'
p1630
aa(lp1631
S'Casie'
p1632
aa(lp1633
S'Cass'
p1634
aa(lp1635
S'Cassandra'
p1636
aa(lp1637
S'Cassandre'
p1638
aa(lp1639
S'Cassandry'
p1640
aa(lp1641
S'Cassaundra'
p1642
aa(lp1643
S'Cassey'
p1644
aa(lp1645
S'Cassi'
p1646
aa(lp1647
S'Cassie'
p1648
aa(lp1649
S'Cassondra'
p1650
aa(lp1651
S'Cassy'
p1652
aa(lp1653
S'Cat'
p1654
aa(lp1655
S'Catarina'
p1656
aa(lp1657
S'Cate'
p1658
aa(lp1659
S'Caterina'
p1660
aa(lp1661
S'Catha'
p1662
aa(lp1663
S'Catharina'
p1664
aa(lp1665
S'Catharine'
p1666
aa(lp1667
S'Cathe'
p1668
aa(lp1669
S'Cathee'
p1670
aa(lp1671
S'Catherin'
p1672
aa(lp1673
S'Catherina'
p1674
aa(lp1675
S'Catherine'
p1676
aa(lp1677
S'Cathi'
p1678
aa(lp1679
S'Cathie'
p1680
aa(lp1681
S'Cathleen'
p1682
aa(lp1683
S'Cathlene'
p1684
aa(lp1685
S'Cathrin'
p1686
aa(lp1687
S'Cathrine'
p1688
aa(lp1689
S'Cathryn'
p1690
aa(lp1691
S'Cathy'
p1692
aa(lp1693
S'Cathyleen'
p1694
aa(lp1695
S'Cati'
p1696
aa(lp1697
S'Catie'
p1698
aa(lp1699
S'Catina'
p1700
aa(lp1701
S'Catlaina'
p1702
aa(lp1703
S'Catlee'
p1704
aa(lp1705
S'Catlin'
p1706
aa(lp1707
S'Catrina'
p1708
aa(lp1709
S'Catriona'
p1710
aa(lp1711
S'Caty'
p1712
aa(lp1713
S'Cayla'
p1714
aa(lp1715
S'Cecelia'
p1716
aa(lp1717
S'Cecil'
p1718
aa(lp1719
S'Cecile'
p1720
aa(lp1721
S'Ceciley'
p1722
aa(lp1723
S'Cecilia'
p1724
aa(lp1725
S'Cecilla'
p1726
aa(lp1727
S'Cecily'
p1728
aa(lp1729
S'Ceil'
p1730
aa(lp1731
S'Cele'
p1732
aa(lp1733
S'Celene'
p1734
aa(lp1735
S'Celesta'
p1736
aa(lp1737
S'Celeste'
p1738
aa(lp1739
S'Celestia'
p1740
aa(lp1741
S'Celestina'
p1742
aa(lp1743
S'Celestine'
p1744
aa(lp1745
S'Celestyn'
p1746
aa(lp1747
S'Celestyna'
p1748
aa(lp1749
S'Celia'
p1750
aa(lp1751
S'Celie'
p1752
aa(lp1753
S'Celina'
p1754
aa(lp1755
S'Celinda'
p1756
aa(lp1757
S'Celine'
p1758
aa(lp1759
S'Celinka'
p1760
aa(lp1761
S'Celisse'
p1762
aa(lp1763
S'Celle'
p1764
aa(lp1765
S'Cesya'
p1766
aa(lp1767
S'Chad'
p1768
aa(lp1769
S'Chanda'
p1770
aa(lp1771
S'Chandal'
p1772
aa(lp1773
S'Chandra'
p1774
aa(lp1775
S'Channa'
p1776
aa(lp1777
S'Chantal'
p1778
aa(lp1779
S'Chantalle'
p1780
aa(lp1781
S'Charil'
p1782
aa(lp1783
S'Charin'
p1784
aa(lp1785
S'Charis'
p1786
aa(lp1787
S'Charissa'
p1788
aa(lp1789
S'Charisse'
p1790
aa(lp1791
S'Charita'
p1792
aa(lp1793
S'Charity'
p1794
aa(lp1795
S'Charla'
p1796
aa(lp1797
S'Charlean'
p1798
aa(lp1799
S'Charleen'
p1800
aa(lp1801
S'Charlena'
p1802
aa(lp1803
S'Charlene'
p1804
aa(lp1805
S'Charline'
p1806
aa(lp1807
S'Charlot'
p1808
aa(lp1809
S'Charlott'
p1810
aa(lp1811
S'Charlotta'
p1812
aa(lp1813
S'Charlotte'
p1814
aa(lp1815
S'Charmain'
p1816
aa(lp1817
S'Charmaine'
p1818
aa(lp1819
S'Charmane'
p1820
aa(lp1821
S'Charmian'
p1822
aa(lp1823
S'Charmine'
p1824
aa(lp1825
S'Charmion'
p1826
aa(lp1827
S'Charo'
p1828
aa(lp1829
S'Charyl'
p1830
aa(lp1831
S'Chastity'
p1832
aa(lp1833
S'Chelsae'
p1834
aa(lp1835
S'Chelsea'
p1836
aa(lp1837
S'Chelsey'
p1838
aa(lp1839
S'Chelsie'
p1840
aa(lp1841
S'Chelsy'
p1842
aa(lp1843
S'Cher'
p1844
aa(lp1845
S'Chere'
p1846
aa(lp1847
S'Cherey'
p1848
aa(lp1849
S'Cheri'
p1850
aa(lp1851
S'Cherianne'
p1852
aa(lp1853
S'Cherice'
p1854
aa(lp1855
S'Cherida'
p1856
aa(lp1857
S'Cherie'
p1858
aa(lp1859
S'Cherilyn'
p1860
aa(lp1861
S'Cherilynn'
p1862
aa(lp1863
S'Cherin'
p1864
aa(lp1865
S'Cherise'
p1866
aa(lp1867
S'Cherish'
p1868
aa(lp1869
S'Cherlyn'
p1870
aa(lp1871
S'Cherri'
p1872
aa(lp1873
S'Cherrita'
p1874
aa(lp1875
S'Cherry'
p1876
aa(lp1877
S'Chery'
p1878
aa(lp1879
S'Cherye'
p1880
aa(lp1881
S'Cheryl'
p1882
aa(lp1883
S'Cheslie'
p1884
aa(lp1885
S'Chiarra'
p1886
aa(lp1887
S'Chickie'
p1888
aa(lp1889
S'Chicky'
p1890
aa(lp1891
S'Chiquita'
p1892
aa(lp1893
S'Chloe'
p1894
aa(lp1895
S'Chloette'
p1896
aa(lp1897
S'Chloris'
p1898
aa(lp1899
S'Chris'
p1900
aa(lp1901
S'Chriss'
p1902
aa(lp1903
S'Chrissa'
p1904
aa(lp1905
S'Chrissie'
p1906
aa(lp1907
S'Chrissy'
p1908
aa(lp1909
S'Christa'
p1910
aa(lp1911
S'Christabel'
p1912
aa(lp1913
S'Christabella'
p1914
aa(lp1915
S'Christabelle'
p1916
aa(lp1917
S'Christal'
p1918
aa(lp1919
S'Christalle'
p1920
aa(lp1921
S'Christan'
p1922
aa(lp1923
S'Christean'
p1924
aa(lp1925
S'Christel'
p1926
aa(lp1927
S'Christen'
p1928
aa(lp1929
S'Christi'
p1930
aa(lp1931
S'Christian'
p1932
aa(lp1933
S'Christiana'
p1934
aa(lp1935
S'Christiane'
p1936
aa(lp1937
S'Christie'
p1938
aa(lp1939
S'Christin'
p1940
aa(lp1941
S'Christina'
p1942
aa(lp1943
S'Christine'
p1944
aa(lp1945
S'Christy'
p1946
aa(lp1947
S'Christyna'
p1948
aa(lp1949
S'Chrysa'
p1950
aa(lp1951
S'Chrysler'
p1952
aa(lp1953
S'Chrystal'
p1954
aa(lp1955
S'Chryste'
p1956
aa(lp1957
S'Chrystel'
p1958
aa(lp1959
S'Ciara'
p1960
aa(lp1961
S'Cicely'
p1962
aa(lp1963
S'Cicily'
p1964
aa(lp1965
S'Ciel'
p1966
aa(lp1967
S'Cilka'
p1968
aa(lp1969
S'Cinda'
p1970
aa(lp1971
S'Cindee'
p1972
aa(lp1973
S'Cindelyn'
p1974
aa(lp1975
S'Cinderella'
p1976
aa(lp1977
S'Cindi'
p1978
aa(lp1979
S'Cindie'
p1980
aa(lp1981
S'Cindra'
p1982
aa(lp1983
S'Cindy'
p1984
aa(lp1985
S'Cinnamon'
p1986
aa(lp1987
S'Cissie'
p1988
aa(lp1989
S'Cissy'
p1990
aa(lp1991
S'Clair'
p1992
aa(lp1993
S'Claire'
p1994
aa(lp1995
S'Clara'
p1996
aa(lp1997
S'Clarabelle'
p1998
aa(lp1999
S'Clare'
p2000
aa(lp2001
S'Claresta'
p2002
aa(lp2003
S'Clareta'
p2004
aa(lp2005
S'Claretta'
p2006
aa(lp2007
S'Clarette'
p2008
aa(lp2009
S'Clarey'
p2010
aa(lp2011
S'Clari'
p2012
aa(lp2013
S'Claribel'
p2014
aa(lp2015
S'Clarice'
p2016
aa(lp2017
S'Clarie'
p2018
aa(lp2019
S'Clarinda'
p2020
aa(lp2021
S'Clarine'
p2022
aa(lp2023
S'Clarisa'
p2024
aa(lp2025
S'Clarissa'
p2026
aa(lp2027
S'Clarisse'
p2028
aa(lp2029
S'Clarita'
p2030
aa(lp2031
S'Clary'
p2032
aa(lp2033
S'Claude'
p2034
aa(lp2035
S'Claudelle'
p2036
aa(lp2037
S'Claudetta'
p2038
aa(lp2039
S'Claudette'
p2040
aa(lp2041
S'Claudia'
p2042
aa(lp2043
S'Claudie'
p2044
aa(lp2045
S'Claudina'
p2046
aa(lp2047
S'Claudine'
p2048
aa(lp2049
S'Clea'
p2050
aa(lp2051
S'Clem'
p2052
aa(lp2053
S'Clemence'
p2054
aa(lp2055
S'Clementia'
p2056
aa(lp2057
S'Clementina'
p2058
aa(lp2059
S'Clementine'
p2060
aa(lp2061
S'Clemmie'
p2062
aa(lp2063
S'Clemmy'
p2064
aa(lp2065
S'Cleo'
p2066
aa(lp2067
S'Cleopatra'
p2068
aa(lp2069
S'Clerissa'
p2070
aa(lp2071
S'Cleva'
p2072
aa(lp2073
S'Clio'
p2074
aa(lp2075
S'Clo'
p2076
aa(lp2077
S'Cloe'
p2078
aa(lp2079
S'Cloris'
p2080
aa(lp2081
S'Clotilda'
p2082
aa(lp2083
S'Clovis'
p2084
aa(lp2085
S'Codee'
p2086
aa(lp2087
S'Codi'
p2088
aa(lp2089
S'Codie'
p2090
aa(lp2091
S'Cody'
p2092
aa(lp2093
S'Coleen'
p2094
aa(lp2095
S'Colene'
p2096
aa(lp2097
S'Coletta'
p2098
aa(lp2099
S'Colette'
p2100
aa(lp2101
S'Colleen'
p2102
aa(lp2103
S'Collete'
p2104
aa(lp2105
S'Collette'
p2106
aa(lp2107
S'Collie'
p2108
aa(lp2109
S'Colline'
p2110
aa(lp2111
S'Colly'
p2112
aa(lp2113
S'Con'
p2114
aa(lp2115
S'Concettina'
p2116
aa(lp2117
S'Conchita'
p2118
aa(lp2119
S'Concordia'
p2120
aa(lp2121
S'Conney'
p2122
aa(lp2123
S'Conni'
p2124
aa(lp2125
S'Connie'
p2126
aa(lp2127
S'Conny'
p2128
aa(lp2129
S'Consolata'
p2130
aa(lp2131
S'Constance'
p2132
aa(lp2133
S'Constancia'
p2134
aa(lp2135
S'Constancy'
p2136
aa(lp2137
S'Constanta'
p2138
aa(lp2139
S'Constantia'
p2140
aa(lp2141
S'Constantina'
p2142
aa(lp2143
S'Constantine'
p2144
aa(lp2145
S'Consuela'
p2146
aa(lp2147
S'Consuelo'
p2148
aa(lp2149
S'Cookie'
p2150
aa(lp2151
S'Cora'
p2152
aa(lp2153
S'Corabel'
p2154
aa(lp2155
S'Corabella'
p2156
aa(lp2157
S'Corabelle'
p2158
aa(lp2159
S'Coral'
p2160
aa(lp2161
S'Coralie'
p2162
aa(lp2163
S'Coraline'
p2164
aa(lp2165
S'Coralyn'
p2166
aa(lp2167
S'Cordelia'
p2168
aa(lp2169
S'Cordelie'
p2170
aa(lp2171
S'Cordey'
p2172
aa(lp2173
S'Cordie'
p2174
aa(lp2175
S'Cordula'
p2176
aa(lp2177
S'Cordy'
p2178
aa(lp2179
S'Coreen'
p2180
aa(lp2181
S'Corella'
p2182
aa(lp2183
S'Corena'
p2184
aa(lp2185
S'Corenda'
p2186
aa(lp2187
S'Corene'
p2188
aa(lp2189
S'Coretta'
p2190
aa(lp2191
S'Corette'
p2192
aa(lp2193
S'Corey'
p2194
aa(lp2195
S'Cori'
p2196
aa(lp2197
S'Corie'
p2198
aa(lp2199
S'Corilla'
p2200
aa(lp2201
S'Corina'
p2202
aa(lp2203
S'Corine'
p2204
aa(lp2205
S'Corinna'
p2206
aa(lp2207
S'Corinne'
p2208
aa(lp2209
S'Coriss'
p2210
aa(lp2211
S'Corissa'
p2212
aa(lp2213
S'Corliss'
p2214
aa(lp2215
S'Corly'
p2216
aa(lp2217
S'Cornela'
p2218
aa(lp2219
S'Cornelia'
p2220
aa(lp2221
S'Cornelle'
p2222
aa(lp2223
S'Cornie'
p2224
aa(lp2225
S'Corny'
p2226
aa(lp2227
S'Correna'
p2228
aa(lp2229
S'Correy'
p2230
aa(lp2231
S'Corri'
p2232
aa(lp2233
S'Corrianne'
p2234
aa(lp2235
S'Corrie'
p2236
aa(lp2237
S'Corrina'
p2238
aa(lp2239
S'Corrine'
p2240
aa(lp2241
S'Corrinne'
p2242
aa(lp2243
S'Corry'
p2244
aa(lp2245
S'Cortney'
p2246
aa(lp2247
S'Cory'
p2248
aa(lp2249
S'Cosetta'
p2250
aa(lp2251
S'Cosette'
p2252
aa(lp2253
S'Courtenay'
p2254
aa(lp2255
S'Courtney'
p2256
aa(lp2257
S'Cresa'
p2258
aa(lp2259
S'Cris'
p2260
aa(lp2261
S'Crissie'
p2262
aa(lp2263
S'Crissy'
p2264
aa(lp2265
S'Crista'
p2266
aa(lp2267
S'Cristabel'
p2268
aa(lp2269
S'Cristal'
p2270
aa(lp2271
S'Cristen'
p2272
aa(lp2273
S'Cristi'
p2274
aa(lp2275
S'Cristie'
p2276
aa(lp2277
S'Cristin'
p2278
aa(lp2279
S'Cristina'
p2280
aa(lp2281
S'Cristine'
p2282
aa(lp2283
S'Cristionna'
p2284
aa(lp2285
S'Cristy'
p2286
aa(lp2287
S'Crysta'
p2288
aa(lp2289
S'Crystal'
p2290
aa(lp2291
S'Crystie'
p2292
aa(lp2293
S'Cyb'
p2294
aa(lp2295
S'Cybal'
p2296
aa(lp2297
S'Cybel'
p2298
aa(lp2299
S'Cybelle'
p2300
aa(lp2301
S'Cybil'
p2302
aa(lp2303
S'Cybill'
p2304
aa(lp2305
S'Cyndi'
p2306
aa(lp2307
S'Cyndy'
p2308
aa(lp2309
S'Cynthea'
p2310
aa(lp2311
S'Cynthia'
p2312
aa(lp2313
S'Cynthie'
p2314
aa(lp2315
S'Cynthy'
p2316
aa(lp2317
S'Dacey'
p2318
aa(lp2319
S'Dacia'
p2320
aa(lp2321
S'Dacie'
p2322
aa(lp2323
S'Dacy'
p2324
aa(lp2325
S'Dael'
p2326
aa(lp2327
S'Daffi'
p2328
aa(lp2329
S'Daffie'
p2330
aa(lp2331
S'Daffy'
p2332
aa(lp2333
S'Dafna'
p2334
aa(lp2335
S'Dagmar'
p2336
aa(lp2337
S'Dahlia'
p2338
aa(lp2339
S'Daile'
p2340
aa(lp2341
S'Daisey'
p2342
aa(lp2343
S'Daisi'
p2344
aa(lp2345
S'Daisie'
p2346
aa(lp2347
S'Daisy'
p2348
aa(lp2349
S'Dale'
p2350
aa(lp2351
S'Dalenna'
p2352
aa(lp2353
S'Dalia'
p2354
aa(lp2355
S'Dalila'
p2356
aa(lp2357
S'Dallas'
p2358
aa(lp2359
S'Daloris'
p2360
aa(lp2361
S'Damara'
p2362
aa(lp2363
S'Damaris'
p2364
aa(lp2365
S'Damita'
p2366
aa(lp2367
S'Dana'
p2368
aa(lp2369
S'Danell'
p2370
aa(lp2371
S'Danella'
p2372
aa(lp2373
S'Danelle'
p2374
aa(lp2375
S'Danette'
p2376
aa(lp2377
S'Dani'
p2378
aa(lp2379
S'Dania'
p2380
aa(lp2381
S'Danica'
p2382
aa(lp2383
S'Danice'
p2384
aa(lp2385
S'Daniel'
p2386
aa(lp2387
S'Daniela'
p2388
aa(lp2389
S'Daniele'
p2390
aa(lp2391
S'Daniella'
p2392
aa(lp2393
S'Danielle'
p2394
aa(lp2395
S'Danika'
p2396
aa(lp2397
S'Danila'
p2398
aa(lp2399
S'Danit'
p2400
aa(lp2401
S'Danita'
p2402
aa(lp2403
S'Danna'
p2404
aa(lp2405
S'Danni'
p2406
aa(lp2407
S'Dannie'
p2408
aa(lp2409
S'Danny'
p2410
aa(lp2411
S'Dannye'
p2412
aa(lp2413
S'Danya'
p2414
aa(lp2415
S'Danyelle'
p2416
aa(lp2417
S'Danyette'
p2418
aa(lp2419
S'Daphene'
p2420
aa(lp2421
S'Daphna'
p2422
aa(lp2423
S'Daphne'
p2424
aa(lp2425
S'Dara'
p2426
aa(lp2427
S'Darb'
p2428
aa(lp2429
S'Darbie'
p2430
aa(lp2431
S'Darby'
p2432
aa(lp2433
S'Darcee'
p2434
aa(lp2435
S'Darcey'
p2436
aa(lp2437
S'Darci'
p2438
aa(lp2439
S'Darcie'
p2440
aa(lp2441
S'Darcy'
p2442
aa(lp2443
S'Darda'
p2444
aa(lp2445
S'Dareen'
p2446
aa(lp2447
S'Darell'
p2448
aa(lp2449
S'Darelle'
p2450
aa(lp2451
S'Dari'
p2452
aa(lp2453
S'Daria'
p2454
aa(lp2455
S'Darice'
p2456
aa(lp2457
S'Darla'
p2458
aa(lp2459
S'Darleen'
p2460
aa(lp2461
S'Darlene'
p2462
aa(lp2463
S'Darline'
p2464
aa(lp2465
S'Darryl'
p2466
aa(lp2467
S'Darsey'
p2468
aa(lp2469
S'Darsie'
p2470
aa(lp2471
S'Darya'
p2472
aa(lp2473
S'Daryl'
p2474
aa(lp2475
S'Daryn'
p2476
aa(lp2477
S'Dasha'
p2478
aa(lp2479
S'Dasi'
p2480
aa(lp2481
S'Dasie'
p2482
aa(lp2483
S'Dasya'
p2484
aa(lp2485
S'Datha'
p2486
aa(lp2487
S'Daune'
p2488
aa(lp2489
S'Daveen'
p2490
aa(lp2491
S'Daveta'
p2492
aa(lp2493
S'Davida'
p2494
aa(lp2495
S'Davina'
p2496
aa(lp2497
S'Davine'
p2498
aa(lp2499
S'Davita'
p2500
aa(lp2501
S'Dawn'
p2502
aa(lp2503
S'Dawna'
p2504
aa(lp2505
S'Dayle'
p2506
aa(lp2507
S'Dayna'
p2508
aa(lp2509
S'Dea'
p2510
aa(lp2511
S'Deana'
p2512
aa(lp2513
S'Deane'
p2514
aa(lp2515
S'Deanna'
p2516
aa(lp2517
S'Deanne'
p2518
aa(lp2519
S'Deb'
p2520
aa(lp2521
S'Debbi'
p2522
aa(lp2523
S'Debbie'
p2524
aa(lp2525
S'Debbra'
p2526
aa(lp2527
S'Debby'
p2528
aa(lp2529
S'Debee'
p2530
aa(lp2531
S'Debera'
p2532
aa(lp2533
S'Debi'
p2534
aa(lp2535
S'Debor'
p2536
aa(lp2537
S'Debora'
p2538
aa(lp2539
S'Deborah'
p2540
aa(lp2541
S'Debra'
p2542
aa(lp2543
S'Dede'
p2544
aa(lp2545
S'Dedie'
p2546
aa(lp2547
S'Dedra'
p2548
aa(lp2549
S'Dee'
p2550
aa(lp2551
S'Dee'
p2552
aS'Dee'
p2553
aa(lp2554
S'Deeann'
p2555
aa(lp2556
S'Deeanne'
p2557
aa(lp2558
S'Deedee'
p2559
aa(lp2560
S'Deena'
p2561
aa(lp2562
S'Deerdre'
p2563
aa(lp2564
S'Dehlia'
p2565
aa(lp2566
S'Deidre'
p2567
aa(lp2568
S'Deina'
p2569
aa(lp2570
S'Deirdre'
p2571
aa(lp2572
S'Del'
p2573
aa(lp2574
S'Dela'
p2575
aa(lp2576
S'Delaney'
p2577
aa(lp2578
S'Delcina'
p2579
aa(lp2580
S'Delcine'
p2581
aa(lp2582
S'Delia'
p2583
aa(lp2584
S'Delila'
p2585
aa(lp2586
S'Delilah'
p2587
aa(lp2588
S'Delinda'
p2589
aa(lp2590
S'Dell'
p2591
aa(lp2592
S'Della'
p2593
aa(lp2594
S'Delly'
p2595
aa(lp2596
S'Delora'
p2597
aa(lp2598
S'Delores'
p2599
aa(lp2600
S'Deloria'
p2601
aa(lp2602
S'Deloris'
p2603
aa(lp2604
S'Delphina'
p2605
aa(lp2606
S'Delphine'
p2607
aa(lp2608
S'Delphinia'
p2609
aa(lp2610
S'Demeter'
p2611
aa(lp2612
S'Demetra'
p2613
aa(lp2614
S'Demetria'
p2615
aa(lp2616
S'Demetris'
p2617
aa(lp2618
S'Dena'
p2619
aa(lp2620
S'Deni'
p2621
aa(lp2622
S'Denice'
p2623
aa(lp2624
S'Denise'
p2625
aa(lp2626
S'Denna'
p2627
aa(lp2628
S'Denni'
p2629
aa(lp2630
S'Dennie'
p2631
aa(lp2632
S'Denny'
p2633
aa(lp2634
S'Deny'
p2635
aa(lp2636
S'Denys'
p2637
aa(lp2638
S'Denyse'
p2639
aa(lp2640
S'Deonne'
p2641
aa(lp2642
S'Desaree'
p2643
aa(lp2644
S'Desdemona'
p2645
aa(lp2646
S'Desirae'
p2647
aa(lp2648
S'Desiree'
p2649
aa(lp2650
S'Desiri'
p2651
aa(lp2652
S'Deva'
p2653
aa(lp2654
S'Devan'
p2655
aa(lp2656
S'Devi'
p2657
aa(lp2658
S'Devin'
p2659
aa(lp2660
S'Devina'
p2661
aa(lp2662
S'Devinne'
p2663
aa(lp2664
S'Devon'
p2665
aa(lp2666
S'Devondra'
p2667
aa(lp2668
S'Devonna'
p2669
aa(lp2670
S'Devonne'
p2671
aa(lp2672
S'Devora'
p2673
aa(lp2674
S'Dew'
p2675
aa(lp2676
S'Di'
p2677
aa(lp2678
S'Diahann'
p2679
aa(lp2680
S'Diamond'
p2681
aa(lp2682
S'Dian'
p2683
aa(lp2684
S'Diana'
p2685
aa(lp2686
S'Diandra'
p2687
aa(lp2688
S'Diane'
p2689
aa(lp2690
S'Diane-Marie'
p2691
aa(lp2692
S'Dianemarie'
p2693
aa(lp2694
S'Diann'
p2695
aa(lp2696
S'Dianna'
p2697
aa(lp2698
S'Dianne'
p2699
aa(lp2700
S'Diannne'
p2701
aa(lp2702
S'Didi'
p2703
aa(lp2704
S'Dido'
p2705
aa(lp2706
S'Diena'
p2707
aa(lp2708
S'Dierdre'
p2709
aa(lp2710
S'Dina'
p2711
aa(lp2712
S'Dinah'
p2713
aa(lp2714
S'Dinnie'
p2715
aa(lp2716
S'Dinny'
p2717
aa(lp2718
S'Dion'
p2719
aa(lp2720
S'Dione'
p2721
aa(lp2722
S'Dionis'
p2723
aa(lp2724
S'Dionne'
p2725
aa(lp2726
S'Dita'
p2727
aa(lp2728
S'Dix'
p2729
aa(lp2730
S'Dixie'
p2731
aa(lp2732
S'Dode'
p2733
aa(lp2734
S'Dodi'
p2735
aa(lp2736
S'Dodie'
p2737
aa(lp2738
S'Dody'
p2739
aa(lp2740
S'Doe'
p2741
aa(lp2742
S'Doll'
p2743
aa(lp2744
S'Dolley'
p2745
aa(lp2746
S'Dolli'
p2747
aa(lp2748
S'Dollie'
p2749
aa(lp2750
S'Dolly'
p2751
aa(lp2752
S'Dolora'
p2753
aa(lp2754
S'Dolores'
p2755
aa(lp2756
S'Dolorita'
p2757
aa(lp2758
S'Doloritas'
p2759
aa(lp2760
S'Dominica'
p2761
aa(lp2762
S'Dominique'
p2763
aa(lp2764
S'Dona'
p2765
aa(lp2766
S'Donella'
p2767
aa(lp2768
S'Donelle'
p2769
aa(lp2770
S'Donetta'
p2771
aa(lp2772
S'Donia'
p2773
aa(lp2774
S'Donica'
p2775
aa(lp2776
S'Donielle'
p2777
aa(lp2778
S'Donna'
p2779
aa(lp2780
S'Donnajean'
p2781
aa(lp2782
S'Donnamarie'
p2783
aa(lp2784
S'Donni'
p2785
aa(lp2786
S'Donnie'
p2787
aa(lp2788
S'Donny'
p2789
aa(lp2790
S'Dora'
p2791
aa(lp2792
S'Doralia'
p2793
aa(lp2794
S'Doralin'
p2795
aa(lp2796
S'Doralyn'
p2797
aa(lp2798
S'Doralynn'
p2799
aa(lp2800
S'Doralynne'
p2801
aa(lp2802
S'Dorcas'
p2803
aa(lp2804
S'Dore'
p2805
aa(lp2806
S'Doreen'
p2807
aa(lp2808
S'Dorelia'
p2809
aa(lp2810
S'Dorella'
p2811
aa(lp2812
S'Dorelle'
p2813
aa(lp2814
S'Dorena'
p2815
aa(lp2816
S'Dorene'
p2817
aa(lp2818
S'Doretta'
p2819
aa(lp2820
S'Dorette'
p2821
aa(lp2822
S'Dorey'
p2823
aa(lp2824
S'Dori'
p2825
aa(lp2826
S'Doria'
p2827
aa(lp2828
S'Dorian'
p2829
aa(lp2830
S'Dorice'
p2831
aa(lp2832
S'Dorie'
p2833
aa(lp2834
S'Dorine'
p2835
aa(lp2836
S'Doris'
p2837
aa(lp2838
S'Dorisa'
p2839
aa(lp2840
S'Dorise'
p2841
aa(lp2842
S'Dorit'
p2843
aa(lp2844
S'Dorita'
p2845
aa(lp2846
S'Doro'
p2847
aa(lp2848
S'Dorolice'
p2849
aa(lp2850
S'Dorolisa'
p2851
aa(lp2852
S'Dorotea'
p2853
aa(lp2854
S'Doroteya'
p2855
aa(lp2856
S'Dorothea'
p2857
aa(lp2858
S'Dorothee'
p2859
aa(lp2860
S'Dorothy'
p2861
aa(lp2862
S'Dorree'
p2863
aa(lp2864
S'Dorri'
p2865
aa(lp2866
S'Dorrie'
p2867
aa(lp2868
S'Dorris'
p2869
aa(lp2870
S'Dorry'
p2871
aa(lp2872
S'Dorthea'
p2873
aa(lp2874
S'Dorthy'
p2875
aa(lp2876
S'Dory'
p2877
aa(lp2878
S'Dosi'
p2879
aa(lp2880
S'Dot'
p2881
aa(lp2882
S'Doti'
p2883
aa(lp2884
S'Dotti'
p2885
aa(lp2886
S'Dottie'
p2887
aa(lp2888
S'Dotty'
p2889
aa(lp2890
S'Dove'
p2891
aa(lp2892
S'Drea'
p2893
aa(lp2894
S'Drew'
p2895
aa(lp2896
S'Dulce'
p2897
aa(lp2898
S'Dulcea'
p2899
aa(lp2900
S'Dulci'
p2901
aa(lp2902
S'Dulcia'
p2903
aa(lp2904
S'Dulciana'
p2905
aa(lp2906
S'Dulcie'
p2907
aa(lp2908
S'Dulcine'
p2909
aa(lp2910
S'Dulcinea'
p2911
aa(lp2912
S'Dulcy'
p2913
aa(lp2914
S'Dulsea'
p2915
aa(lp2916
S'Dusty'
p2917
aa(lp2918
S'Dyan'
p2919
aa(lp2920
S'Dyana'
p2921
aa(lp2922
S'Dyane'
p2923
aa(lp2924
S'Dyann'
p2925
aa(lp2926
S'Dyanna'
p2927
aa(lp2928
S'Dyanne'
p2929
aa(lp2930
S'Dyna'
p2931
aa(lp2932
S'Dynah'
p2933
aa(lp2934
S"E'Lane"
p2935
aa(lp2936
S'Eada'
p2937
aa(lp2938
S'Eadie'
p2939
aa(lp2940
S'Eadith'
p2941
aa(lp2942
S'Ealasaid'
p2943
aa(lp2944
S'Eartha'
p2945
aa(lp2946
S'Easter'
p2947
aa(lp2948
S'Eba'
p2949
aa(lp2950
S'Ebba'
p2951
aa(lp2952
S'Ebonee'
p2953
aa(lp2954
S'Ebony'
p2955
aa(lp2956
S'Eda'
p2957
aa(lp2958
S'Eddi'
p2959
aa(lp2960
S'Eddie'
p2961
aa(lp2962
S'Eddy'
p2963
aa(lp2964
S'Ede'
p2965
aa(lp2966
S'Edee'
p2967
aa(lp2968
S'Edeline'
p2969
aa(lp2970
S'Eden'
p2971
aa(lp2972
S'Edi'
p2973
aa(lp2974
S'Edie'
p2975
aa(lp2976
S'Edin'
p2977
aa(lp2978
S'Edita'
p2979
aa(lp2980
S'Edith'
p2981
aa(lp2982
S'Editha'
p2983
aa(lp2984
S'Edithe'
p2985
aa(lp2986
S'Ediva'
p2987
aa(lp2988
S'Edna'
p2989
aa(lp2990
S'Edwina'
p2991
aa(lp2992
S'Edy'
p2993
aa(lp2994
S'Edyth'
p2995
aa(lp2996
S'Edythe'
p2997
aa(lp2998
S'Effie'
p2999
aa(lp3000
S'Eileen'
p3001
aa(lp3002
S'Eilis'
p3003
aa(lp3004
S'Eimile'
p3005
aa(lp3006
S'Eirena'
p3007
aa(lp3008
S'Ekaterina'
p3009
aa(lp3010
S'Elaina'
p3011
aa(lp3012
S'Elaine'
p3013
aa(lp3014
S'Elana'
p3015
aa(lp3016
S'Elane'
p3017
aa(lp3018
S'Elayne'
p3019
aa(lp3020
S'Elberta'
p3021
aa(lp3022
S'Elbertina'
p3023
aa(lp3024
S'Elbertine'
p3025
aa(lp3026
S'Eleanor'
p3027
aa(lp3028
S'Eleanora'
p3029
aa(lp3030
S'Eleanore'
p3031
aa(lp3032
S'Electra'
p3033
aa(lp3034
S'Elena'
p3035
aa(lp3036
S'Elene'
p3037
aa(lp3038
S'Eleni'
p3039
aa(lp3040
S'Elenore'
p3041
aa(lp3042
S'Eleonora'
p3043
aa(lp3044
S'Eleonore'
p3045
aa(lp3046
S'Elfie'
p3047
aa(lp3048
S'Elfreda'
p3049
aa(lp3050
S'Elfrida'
p3051
aa(lp3052
S'Elfrieda'
p3053
aa(lp3054
S'Elga'
p3055
aa(lp3056
S'Elianora'
p3057
aa(lp3058
S'Elianore'
p3059
aa(lp3060
S'Elicia'
p3061
aa(lp3062
S'Elie'
p3063
aa(lp3064
S'Elinor'
p3065
aa(lp3066
S'Elinore'
p3067
aa(lp3068
S'Elisa'
p3069
aa(lp3070
S'Elisabet'
p3071
aa(lp3072
S'Elisabeth'
p3073
aa(lp3074
S'Elisabetta'
p3075
aa(lp3076
S'Elise'
p3077
aa(lp3078
S'Elisha'
p3079
aa(lp3080
S'Elissa'
p3081
aa(lp3082
S'Elita'
p3083
aa(lp3084
S'Eliza'
p3085
aa(lp3086
S'Elizabet'
p3087
aa(lp3088
S'Elizabeth'
p3089
aa(lp3090
S'Elka'
p3091
aa(lp3092
S'Elke'
p3093
aa(lp3094
S'Ella'
p3095
aa(lp3096
S'Elladine'
p3097
aa(lp3098
S'Elle'
p3099
aa(lp3100
S'Ellen'
p3101
aa(lp3102
S'Ellene'
p3103
aa(lp3104
S'Ellette'
p3105
aa(lp3106
S'Elli'
p3107
aa(lp3108
S'Ellie'
p3109
aa(lp3110
S'Ellissa'
p3111
aa(lp3112
S'Elly'
p3113
aa(lp3114
S'Ellyn'
p3115
aa(lp3116
S'Ellynn'
p3117
aa(lp3118
S'Elmira'
p3119
aa(lp3120
S'Elna'
p3121
aa(lp3122
S'Elnora'
p3123
aa(lp3124
S'Elnore'
p3125
aa(lp3126
S'Eloisa'
p3127
aa(lp3128
S'Eloise'
p3129
aa(lp3130
S'Elonore'
p3131
aa(lp3132
S'Elora'
p3133
aa(lp3134
S'Elsa'
p3135
aa(lp3136
S'Elsbeth'
p3137
aa(lp3138
S'Else'
p3139
aa(lp3140
S'Elsey'
p3141
aa(lp3142
S'Elsi'
p3143
aa(lp3144
S'Elsie'
p3145
aa(lp3146
S'Elsinore'
p3147
aa(lp3148
S'Elspeth'
p3149
aa(lp3150
S'Elsy'
p3151
aa(lp3152
S'Elva'
p3153
aa(lp3154
S'Elvera'
p3155
aa(lp3156
S'Elvina'
p3157
aa(lp3158
S'Elvira'
p3159
aa(lp3160
S'Elwina'
p3161
aa(lp3162
S'Elwira'
p3163
aa(lp3164
S'Elyn'
p3165
aa(lp3166
S'Elyse'
p3167
aa(lp3168
S'Elysee'
p3169
aa(lp3170
S'Elysha'
p3171
aa(lp3172
S'Elysia'
p3173
aa(lp3174
S'Elyssa'
p3175
aa(lp3176
S'Em'
p3177
aa(lp3178
S'Ema'
p3179
aa(lp3180
S'Emalee'
p3181
aa(lp3182
S'Emalia'
p3183
aa(lp3184
S'Emanuela'
p3185
aa(lp3186
S'Emelda'
p3187
aa(lp3188
S'Emelia'
p3189
aa(lp3190
S'Emelina'
p3191
aa(lp3192
S'Emeline'
p3193
aa(lp3194
S'Emelita'
p3195
aa(lp3196
S'Emelyne'
p3197
aa(lp3198
S'Emera'
p3199
aa(lp3200
S'Emilee'
p3201
aa(lp3202
S'Emili'
p3203
aa(lp3204
S'Emilia'
p3205
aa(lp3206
S'Emilie'
p3207
aa(lp3208
S'Emiline'
p3209
aa(lp3210
S'Emily'
p3211
aa(lp3212
S'Emlyn'
p3213
aa(lp3214
S'Emlynn'
p3215
aa(lp3216
S'Emlynne'
p3217
aa(lp3218
S'Emma'
p3219
aa(lp3220
S'Emmalee'
p3221
aa(lp3222
S'Emmaline'
p3223
aa(lp3224
S'Emmalyn'
p3225
aa(lp3226
S'Emmalynn'
p3227
aa(lp3228
S'Emmalynne'
p3229
aa(lp3230
S'Emmeline'
p3231
aa(lp3232
S'Emmey'
p3233
aa(lp3234
S'Emmi'
p3235
aa(lp3236
S'Emmie'
p3237
aa(lp3238
S'Emmy'
p3239
aa(lp3240
S'Emmye'
p3241
aa(lp3242
S'Emogene'
p3243
aa(lp3244
S'Emyle'
p3245
aa(lp3246
S'Emylee'
p3247
aa(lp3248
S'Endora'
p3249
aa(lp3250
S'Engracia'
p3251
aa(lp3252
S'Enid'
p3253
aa(lp3254
S'Enrica'
p3255
aa(lp3256
S'Enrichetta'
p3257
aa(lp3258
S'Enrika'
p3259
aa(lp3260
S'Enriqueta'
p3261
aa(lp3262
S'Enya'
p3263
aa(lp3264
S'Eolanda'
p3265
aa(lp3266
S'Eolande'
p3267
aa(lp3268
S'Eran'
p3269
aa(lp3270
S'Erda'
p3271
aa(lp3272
S'Erena'
p3273
aa(lp3274
S'Erica'
p3275
aa(lp3276
S'Ericha'
p3277
aa(lp3278
S'Ericka'
p3279
aa(lp3280
S'Erika'
p3281
aa(lp3282
S'Erin'
p3283
aa(lp3284
S'Erina'
p3285
aa(lp3286
S'Erinn'
p3287
aa(lp3288
S'Erinna'
p3289
aa(lp3290
S'Erma'
p3291
aa(lp3292
S'Ermengarde'
p3293
aa(lp3294
S'Ermentrude'
p3295
aa(lp3296
S'Ermina'
p3297
aa(lp3298
S'Erminia'
p3299
aa(lp3300
S'Erminie'
p3301
aa(lp3302
S'Erna'
p3303
aa(lp3304
S'Ernaline'
p3305
aa(lp3306
S'Ernesta'
p3307
aa(lp3308
S'Ernestine'
p3309
aa(lp3310
S'Ertha'
p3311
aa(lp3312
S'Eryn'
p3313
aa(lp3314
S'Esma'
p3315
aa(lp3316
S'Esmaria'
p3317
aa(lp3318
S'Esme'
p3319
aa(lp3320
S'Esmeralda'
p3321
aa(lp3322
S'Esmerelda'
p3323
aa(lp3324
S'Essa'
p3325
aa(lp3326
S'Essie'
p3327
aa(lp3328
S'Essy'
p3329
aa(lp3330
S'Esta'
p3331
aa(lp3332
S'Estel'
p3333
aa(lp3334
S'Estele'
p3335
aa(lp3336
S'Estell'
p3337
aa(lp3338
S'Estella'
p3339
aa(lp3340
S'Estelle'
p3341
aa(lp3342
S'Ester'
p3343
aa(lp3344
S'Esther'
p3345
aa(lp3346
S'Estrella'
p3347
aa(lp3348
S'Estrellita'
p3349
aa(lp3350
S'Ethel'
p3351
aa(lp3352
S'Ethelda'
p3353
aa(lp3354
S'Ethelin'
p3355
aa(lp3356
S'Ethelind'
p3357
aa(lp3358
S'Etheline'
p3359
aa(lp3360
S'Ethelyn'
p3361
aa(lp3362
S'Ethyl'
p3363
aa(lp3364
S'Etta'
p3365
aa(lp3366
S'Etti'
p3367
aa(lp3368
S'Ettie'
p3369
aa(lp3370
S'Etty'
p3371
aa(lp3372
S'Eudora'
p3373
aa(lp3374
S'Eugenia'
p3375
aa(lp3376
S'Eugenie'
p3377
aa(lp3378
S'Eugine'
p3379
aa(lp3380
S'Eula'
p3381
aa(lp3382
S'Eulalie'
p3383
aa(lp3384
S'Eunice'
p3385
aa(lp3386
S'Euphemia'
p3387
aa(lp3388
S'Eustacia'
p3389
aa(lp3390
S'Eva'
p3391
aa(lp3392
S'Evaleen'
p3393
aa(lp3394
S'Evangelia'
p3395
aa(lp3396
S'Evangelin'
p3397
aa(lp3398
S'Evangelina'
p3399
aa(lp3400
S'Evangeline'
p3401
aa(lp3402
S'Evania'
p3403
aa(lp3404
S'Evanne'
p3405
aa(lp3406
S'Eve'
p3407
aa(lp3408
S'Eveleen'
p3409
aa(lp3410
S'Evelina'
p3411
aa(lp3412
S'Eveline'
p3413
aa(lp3414
S'Evelyn'
p3415
aa(lp3416
S'Evette'
p3417
aa(lp3418
S'Evey'
p3419
aa(lp3420
S'Evie'
p3421
aa(lp3422
S'Evita'
p3423
aa(lp3424
S'Evonne'
p3425
aa(lp3426
S'Evvie'
p3427
aa(lp3428
S'Evvy'
p3429
aa(lp3430
S'Evy'
p3431
aa(lp3432
S'Eyde'
p3433
aa(lp3434
S'Eydie'
p3435
aa(lp3436
S'Fabrianne'
p3437
aa(lp3438
S'Fabrice'
p3439
aa(lp3440
S'Fae'
p3441
aa(lp3442
S'Faina'
p3443
aa(lp3444
S'Faith'
p3445
aa(lp3446
S'Fallon'
p3447
aa(lp3448
S'Fan'
p3449
aa(lp3450
S'Fanchette'
p3451
aa(lp3452
S'Fanchon'
p3453
aa(lp3454
S'Fancie'
p3455
aa(lp3456
S'Fancy'
p3457
aa(lp3458
S'Fanechka'
p3459
aa(lp3460
S'Fania'
p3461
aa(lp3462
S'Fanni'
p3463
aa(lp3464
S'Fannie'
p3465
aa(lp3466
S'Fanny'
p3467
aa(lp3468
S'Fanya'
p3469
aa(lp3470
S'Fara'
p3471
aa(lp3472
S'Farah'
p3473
aa(lp3474
S'Farand'
p3475
aa(lp3476
S'Farica'
p3477
aa(lp3478
S'Farra'
p3479
aa(lp3480
S'Farrah'
p3481
aa(lp3482
S'Farrand'
p3483
aa(lp3484
S'Fatima'
p3485
aa(lp3486
S'Faun'
p3487
aa(lp3488
S'Faunie'
p3489
aa(lp3490
S'Faustina'
p3491
aa(lp3492
S'Faustine'
p3493
aa(lp3494
S'Fawn'
p3495
aa(lp3496
S'Fawna'
p3497
aa(lp3498
S'Fawne'
p3499
aa(lp3500
S'Fawnia'
p3501
aa(lp3502
S'Fay'
p3503
aa(lp3504
S'Faydra'
p3505
aa(lp3506
S'Faye'
p3507
aa(lp3508
S'Fayette'
p3509
aa(lp3510
S'Fayina'
p3511
aa(lp3512
S'Fayre'
p3513
aa(lp3514
S'Fayth'
p3515
aa(lp3516
S'Faythe'
p3517
aa(lp3518
S'Federica'
p3519
aa(lp3520
S'Fedora'
p3521
aa(lp3522
S'Felecia'
p3523
aa(lp3524
S'Felicdad'
p3525
aa(lp3526
S'Felice'
p3527
aa(lp3528
S'Felicia'
p3529
aa(lp3530
S'Felicity'
p3531
aa(lp3532
S'Felicle'
p3533
aa(lp3534
S'Felipa'
p3535
aa(lp3536
S'Felisha'
p3537
aa(lp3538
S'Felita'
p3539
aa(lp3540
S'Feliza'
p3541
aa(lp3542
S'Fenelia'
p3543
aa(lp3544
S'Feodora'
p3545
aa(lp3546
S'Ferdinanda'
p3547
aa(lp3548
S'Ferdinande'
p3549
aa(lp3550
S'Fern'
p3551
aa(lp3552
S'Fernanda'
p3553
aa(lp3554
S'Fernande'
p3555
aa(lp3556
S'Fernandina'
p3557
aa(lp3558
S'Ferne'
p3559
aa(lp3560
S'Fey'
p3561
aa(lp3562
S'Fiann'
p3563
aa(lp3564
S'Fianna'
p3565
aa(lp3566
S'Fidela'
p3567
aa(lp3568
S'Fidelia'
p3569
aa(lp3570
S'Fidelity'
p3571
aa(lp3572
S'Fifi'
p3573
aa(lp3574
S'Fifine'
p3575
aa(lp3576
S'Filia'
p3577
aa(lp3578
S'Filide'
p3579
aa(lp3580
S'Filippa'
p3581
aa(lp3582
S'Fina'
p3583
aa(lp3584
S'Fiona'
p3585
aa(lp3586
S'Fionna'
p3587
aa(lp3588
S'Fionnula'
p3589
aa(lp3590
S'Fiorenze'
p3591
aa(lp3592
S'Fleur'
p3593
aa(lp3594
S'Fleurette'
p3595
aa(lp3596
S'Flo'
p3597
aa(lp3598
S'Flor'
p3599
aa(lp3600
S'Flora'
p3601
aa(lp3602
S'Florance'
p3603
aa(lp3604
S'Flore'
p3605
aa(lp3606
S'Florella'
p3607
aa(lp3608
S'Florence'
p3609
aa(lp3610
S'Florencia'
p3611
aa(lp3612
S'Florentia'
p3613
aa(lp3614
S'Florenza'
p3615
aa(lp3616
S'Florette'
p3617
aa(lp3618
S'Flori'
p3619
aa(lp3620
S'Floria'
p3621
aa(lp3622
S'Florice'
p3623
aa(lp3624
S'Florida'
p3625
aa(lp3626
S'Florie'
p3627
aa(lp3628
S'Florina'
p3629
aa(lp3630
S'Florinda'
p3631
aa(lp3632
S'Floris'
p3633
aa(lp3634
S'Florri'
p3635
aa(lp3636
S'Florrie'
p3637
aa(lp3638
S'Florry'
p3639
aa(lp3640
S'Flory'
p3641
aa(lp3642
S'Flossi'
p3643
aa(lp3644
S'Flossie'
p3645
aa(lp3646
S'Flossy'
p3647
aa(lp3648
S'Flower'
p3649
aa(lp3650
S'Fortuna'
p3651
aa(lp3652
S'Fortune'
p3653
aa(lp3654
S'Fran'
p3655
aa(lp3656
S'France'
p3657
aa(lp3658
S'Francene'
p3659
aa(lp3660
S'Frances'
p3661
aa(lp3662
S'Francesca'
p3663
aa(lp3664
S'Francesmary'
p3665
aa(lp3666
S'Francine'
p3667
aa(lp3668
S'Francis'
p3669
aa(lp3670
S'Francisca'
p3671
aa(lp3672
S'Franciska'
p3673
aa(lp3674
S'Francoise'
p3675
aa(lp3676
S'Francyne'
p3677
aa(lp3678
S'Frank'
p3679
aa(lp3680
S'Frankie'
p3681
aa(lp3682
S'Franky'
p3683
aa(lp3684
S'Franni'
p3685
aa(lp3686
S'Frannie'
p3687
aa(lp3688
S'Franny'
p3689
aa(lp3690
S'Frayda'
p3691
aa(lp3692
S'Fred'
p3693
aa(lp3694
S'Freda'
p3695
aa(lp3696
S'Freddi'
p3697
aa(lp3698
S'Freddie'
p3699
aa(lp3700
S'Freddy'
p3701
aa(lp3702
S'Fredelia'
p3703
aa(lp3704
S'Frederica'
p3705
aa(lp3706
S'Fredericka'
p3707
aa(lp3708
S'Fredi'
p3709
aa(lp3710
S'Fredia'
p3711
aa(lp3712
S'Fredra'
p3713
aa(lp3714
S'Fredrika'
p3715
aa(lp3716
S'Freida'
p3717
aa(lp3718
S'Frieda'
p3719
aa(lp3720
S'Friederike'
p3721
aa(lp3722
S'Fulvia'
p3723
aa(lp3724
S'Gabbey'
p3725
aa(lp3726
S'Gabbi'
p3727
aa(lp3728
S'Gabbie'
p3729
aa(lp3730
S'Gabey'
p3731
aa(lp3732
S'Gabi'
p3733
aa(lp3734
S'Gabie'
p3735
aa(lp3736
S'Gabriel'
p3737
aa(lp3738
S'Gabriela'
p3739
aa(lp3740
S'Gabriell'
p3741
aa(lp3742
S'Gabriella'
p3743
aa(lp3744
S'Gabrielle'
p3745
aa(lp3746
S'Gabriellia'
p3747
aa(lp3748
S'Gabrila'
p3749
aa(lp3750
S'Gaby'
p3751
aa(lp3752
S'Gae'
p3753
aa(lp3754
S'Gael'
p3755
aa(lp3756
S'Gail'
p3757
aa(lp3758
S'Gale'
p3759
aa(lp3760
S'Gale'
p3761
aa(lp3762
S'Galina'
p3763
aa(lp3764
S'Garland'
p3765
aa(lp3766
S'Garnet'
p3767
aa(lp3768
S'Garnette'
p3769
aa(lp3770
S'Gates'
p3771
aa(lp3772
S'Gavra'
p3773
aa(lp3774
S'Gavrielle'
p3775
aa(lp3776
S'Gay'
p3777
aa(lp3778
S'Gayla'
p3779
aa(lp3780
S'Gayle'
p3781
aa(lp3782
S'Gayleen'
p3783
aa(lp3784
S'Gaylene'
p3785
aa(lp3786
S'Gaynor'
p3787
aa(lp3788
S'Geeta'
p3789
aa(lp3790
S'Gelya'
p3791
aa(lp3792
S'Gen'
p3793
aa(lp3794
S'Gena'
p3795
aa(lp3796
S'Gene'
p3797
aa(lp3798
S'Geneva'
p3799
aa(lp3800
S'Genevieve'
p3801
aa(lp3802
S'Genevra'
p3803
aa(lp3804
S'Genia'
p3805
aa(lp3806
S'Genna'
p3807
aa(lp3808
S'Genni'
p3809
aa(lp3810
S'Gennie'
p3811
aa(lp3812
S'Gennifer'
p3813
aa(lp3814
S'Genny'
p3815
aa(lp3816
S'Genovera'
p3817
aa(lp3818
S'Genvieve'
p3819
aa(lp3820
S'George'
p3821
aa(lp3822
S'Georgeanna'
p3823
aa(lp3824
S'Georgeanne'
p3825
aa(lp3826
S'Georgena'
p3827
aa(lp3828
S'Georgeta'
p3829
aa(lp3830
S'Georgetta'
p3831
aa(lp3832
S'Georgette'
p3833
aa(lp3834
S'Georgia'
p3835
aa(lp3836
S'Georgiamay'
p3837
aa(lp3838
S'Georgiana'
p3839
aa(lp3840
S'Georgianna'
p3841
aa(lp3842
S'Georgianne'
p3843
aa(lp3844
S'Georgie'
p3845
aa(lp3846
S'Georgina'
p3847
aa(lp3848
S'Georgine'
p3849
aa(lp3850
S'Gera'
p3851
aa(lp3852
S'Geralda'
p3853
aa(lp3854
S'Geraldina'
p3855
aa(lp3856
S'Geraldine'
p3857
aa(lp3858
S'Gerda'
p3859
aa(lp3860
S'Gerhardine'
p3861
aa(lp3862
S'Geri'
p3863
aa(lp3864
S'Gerianna'
p3865
aa(lp3866
S'Gerianne'
p3867
aa(lp3868
S'Gerladina'
p3869
aa(lp3870
S'Germain'
p3871
aa(lp3872
S'Germaine'
p3873
aa(lp3874
S'Germana'
p3875
aa(lp3876
S'Gerri'
p3877
aa(lp3878
S'Gerrie'
p3879
aa(lp3880
S'Gerrilee'
p3881
aa(lp3882
S'Gerry'
p3883
aa(lp3884
S'Gert'
p3885
aa(lp3886
S'Gerta'
p3887
aa(lp3888
S'Gerti'
p3889
aa(lp3890
S'Gertie'
p3891
aa(lp3892
S'Gertrud'
p3893
aa(lp3894
S'Gertruda'
p3895
aa(lp3896
S'Gertrude'
p3897
aa(lp3898
S'Gertrudis'
p3899
aa(lp3900
S'Gerty'
p3901
aa(lp3902
S'Giacinta'
p3903
aa(lp3904
S'Giana'
p3905
aa(lp3906
S'Gianina'
p3907
aa(lp3908
S'Gianna'
p3909
aa(lp3910
S'Gigi'
p3911
aa(lp3912
S'Gilberta'
p3913
aa(lp3914
S'Gilberte'
p3915
aa(lp3916
S'Gilbertina'
p3917
aa(lp3918
S'Gilbertine'
p3919
aa(lp3920
S'Gilda'
p3921
aa(lp3922
S'Gill'
p3923
aa(lp3924
S'Gillan'
p3925
aa(lp3926
S'Gilli'
p3927
aa(lp3928
S'Gillian'
p3929
aa(lp3930
S'Gillie'
p3931
aa(lp3932
S'Gilligan'
p3933
aa(lp3934
S'Gilly'
p3935
aa(lp3936
S'Gina'
p3937
aa(lp3938
S'Ginelle'
p3939
aa(lp3940
S'Ginevra'
p3941
aa(lp3942
S'Ginger'
p3943
aa(lp3944
S'Ginni'
p3945
aa(lp3946
S'Ginnie'
p3947
aa(lp3948
S'Ginnifer'
p3949
aa(lp3950
S'Ginny'
p3951
aa(lp3952
S'Giorgia'
p3953
aa(lp3954
S'Giovanna'
p3955
aa(lp3956
S'Gipsy'
p3957
aa(lp3958
S'Giralda'
p3959
aa(lp3960
S'Gisela'
p3961
aa(lp3962
S'Gisele'
p3963
aa(lp3964
S'Gisella'
p3965
aa(lp3966
S'Giselle'
p3967
aa(lp3968
S'Gita'
p3969
aa(lp3970
S'Gizela'
p3971
aa(lp3972
S'Glad'
p3973
aa(lp3974
S'Gladi'
p3975
aa(lp3976
S'Gladis'
p3977
aa(lp3978
S'Gladys'
p3979
aa(lp3980
S'Gleda'
p3981
aa(lp3982
S'Glen'
p3983
aa(lp3984
S'Glenda'
p3985
aa(lp3986
S'Glenine'
p3987
aa(lp3988
S'Glenn'
p3989
aa(lp3990
S'Glenna'
p3991
aa(lp3992
S'Glennie'
p3993
aa(lp3994
S'Glennis'
p3995
aa(lp3996
S'Glori'
p3997
aa(lp3998
S'Gloria'
p3999
aa(lp4000
S'Gloriana'
p4001
aa(lp4002
S'Gloriane'
p4003
aa(lp4004
S'Glorianna'
p4005
aa(lp4006
S'Glory'
p4007
aa(lp4008
S'Glyn'
p4009
aa(lp4010
S'Glynda'
p4011
aa(lp4012
S'Glynis'
p4013
aa(lp4014
S'Glynnis'
p4015
aa(lp4016
S'Godiva'
p4017
aa(lp4018
S'Golda'
p4019
aa(lp4020
S'Goldarina'
p4021
aa(lp4022
S'Goldi'
p4023
aa(lp4024
S'Goldia'
p4025
aa(lp4026
S'Goldie'
p4027
aa(lp4028
S'Goldina'
p4029
aa(lp4030
S'Goldy'
p4031
aa(lp4032
S'Grace'
p4033
aa(lp4034
S'Gracia'
p4035
aa(lp4036
S'Gracie'
p4037
aa(lp4038
S'Grata'
p4039
aa(lp4040
S'Gratia'
p4041
aa(lp4042
S'Gratiana'
p4043
aa(lp4044
S'Gray'
p4045
aa(lp4046
S'Grayce'
p4047
aa(lp4048
S'Grazia'
p4049
aa(lp4050
S'Gredel'
p4051
aa(lp4052
S'Greer'
p4053
aa(lp4054
S'Greta'
p4055
aa(lp4056
S'Gretal'
p4057
aa(lp4058
S'Gretchen'
p4059
aa(lp4060
S'Grete'
p4061
aa(lp4062
S'Gretel'
p4063
aa(lp4064
S'Grethel'
p4065
aa(lp4066
S'Gretna'
p4067
aa(lp4068
S'Gretta'
p4069
aa(lp4070
S'Grier'
p4071
aa(lp4072
S'Griselda'
p4073
aa(lp4074
S'Grissel'
p4075
aa(lp4076
S'Guendolen'
p4077
aa(lp4078
S'Guenevere'
p4079
aa(lp4080
S'Guenna'
p4081
aa(lp4082
S'Guglielma'
p4083
aa(lp4084
S'Gui'
p4085
aa(lp4086
S'Guillema'
p4087
aa(lp4088
S'Guillemette'
p4089
aa(lp4090
S'Guinevere'
p4091
aa(lp4092
S'Guinna'
p4093
aa(lp4094
S'Gunilla'
p4095
aa(lp4096
S'Gunvor'
p4097
aa(lp4098
S'Gus'
p4099
aa(lp4100
S'Gusella'
p4101
aa(lp4102
S'Gussi'
p4103
aa(lp4104
S'Gussie'
p4105
aa(lp4106
S'Gussy'
p4107
aa(lp4108
S'Gusta'
p4109
aa(lp4110
S'Gusti'
p4111
aa(lp4112
S'Gustie'
p4113
aa(lp4114
S'Gusty'
p4115
aa(lp4116
S'Gwen'
p4117
aa(lp4118
S'Gwendolen'
p4119
aa(lp4120
S'Gwendolin'
p4121
aa(lp4122
S'Gwendolyn'
p4123
aa(lp4124
S'Gweneth'
p4125
aa(lp4126
S'Gwenette'
p4127
aa(lp4128
S'Gwenn'
p4129
aa(lp4130
S'Gwenneth'
p4131
aa(lp4132
S'Gwenni'
p4133
aa(lp4134
S'Gwennie'
p4135
aa(lp4136
S'Gwenny'
p4137
aa(lp4138
S'Gwenora'
p4139
aa(lp4140
S'Gwenore'
p4141
aa(lp4142
S'Gwyn'
p4143
aa(lp4144
S'Gwyneth'
p4145
aa(lp4146
S'Gwynne'
p4147
aa(lp4148
S'Gypsy'
p4149
aa(lp4150
S'Hadria'
p4151
aa(lp4152
S'Hailee'
p4153
aa(lp4154
S'Haily'
p4155
aa(lp4156
S'Haleigh'
p4157
aa(lp4158
S'Halette'
p4159
aa(lp4160
S'Haley'
p4161
aa(lp4162
S'Hali'
p4163
aa(lp4164
S'Halie'
p4165
aa(lp4166
S'Halimeda'
p4167
aa(lp4168
S'Halley'
p4169
aa(lp4170
S'Halli'
p4171
aa(lp4172
S'Hallie'
p4173
aa(lp4174
S'Hally'
p4175
aa(lp4176
S'Hana'
p4177
aa(lp4178
S'Hanna'
p4179
aa(lp4180
S'Hannah'
p4181
aa(lp4182
S'Hanni'
p4183
aa(lp4184
S'Hannibal'
p4185
aa(lp4186
S'Hannie'
p4187
aa(lp4188
S'Hannis'
p4189
aa(lp4190
S'Hanny'
p4191
aa(lp4192
S'Happy'
p4193
aa(lp4194
S'Harlene'
p4195
aa(lp4196
S'Harley'
p4197
aa(lp4198
S'Harli'
p4199
aa(lp4200
S'Harlie'
p4201
aa(lp4202
S'Harmonia'
p4203
aa(lp4204
S'Harmonie'
p4205
aa(lp4206
S'Harmony'
p4207
aa(lp4208
S'Harri'
p4209
aa(lp4210
S'Harrie'
p4211
aa(lp4212
S'Harriet'
p4213
aa(lp4214
S'Harriett'
p4215
aa(lp4216
S'Harrietta'
p4217
aa(lp4218
S'Harriette'
p4219
aa(lp4220
S'Harriot'
p4221
aa(lp4222
S'Harriott'
p4223
aa(lp4224
S'Hatti'
p4225
aa(lp4226
S'Hattie'
p4227
aa(lp4228
S'Hatty'
p4229
aa(lp4230
S'Havivah'
p4231
aa(lp4232
S'Hayley'
p4233
aa(lp4234
S'Hazel'
p4235
aa(lp4236
S'Heath'
p4237
aa(lp4238
S'Heather'
p4239
aa(lp4240
S'Heda'
p4241
aa(lp4242
S'Hedda'
p4243
aa(lp4244
S'Heddi'
p4245
aa(lp4246
S'Heddie'
p4247
aa(lp4248
S'Hedi'
p4249
aa(lp4250
S'Hedvig'
p4251
aa(lp4252
S'Hedwig'
p4253
aa(lp4254
S'Hedy'
p4255
aa(lp4256
S'Heida'
p4257
aa(lp4258
S'Heide'
p4259
aa(lp4260
S'Heidi'
p4261
aa(lp4262
S'Heidie'
p4263
aa(lp4264
S'Helaina'
p4265
aa(lp4266
S'Helaine'
p4267
aa(lp4268
S'Helen'
p4269
aa(lp4270
S'Helen-Elizabeth'
p4271
aa(lp4272
S'Helena'
p4273
aa(lp4274
S'Helene'
p4275
aa(lp4276
S'Helga'
p4277
aa(lp4278
S'Helge'
p4279
aa(lp4280
S'Helise'
p4281
aa(lp4282
S'Hellene'
p4283
aa(lp4284
S'Helli'
p4285
aa(lp4286
S'Heloise'
p4287
aa(lp4288
S'Helsa'
p4289
aa(lp4290
S'Helyn'
p4291
aa(lp4292
S'Hendrika'
p4293
aa(lp4294
S'Henka'
p4295
aa(lp4296
S'Henrie'
p4297
aa(lp4298
S'Henrieta'
p4299
aa(lp4300
S'Henrietta'
p4301
aa(lp4302
S'Henriette'
p4303
aa(lp4304
S'Henryetta'
p4305
aa(lp4306
S'Hephzibah'
p4307
aa(lp4308
S'Hermia'
p4309
aa(lp4310
S'Hermina'
p4311
aa(lp4312
S'Hermine'
p4313
aa(lp4314
S'Herminia'
p4315
aa(lp4316
S'Hermione'
p4317
aa(lp4318
S'Herta'
p4319
aa(lp4320
S'Hertha'
p4321
aa(lp4322
S'Hester'
p4323
aa(lp4324
S'Hesther'
p4325
aa(lp4326
S'Hestia'
p4327
aa(lp4328
S'Hetti'
p4329
aa(lp4330
S'Hettie'
p4331
aa(lp4332
S'Hetty'
p4333
aa(lp4334
S'Hilarie'
p4335
aa(lp4336
S'Hilary'
p4337
aa(lp4338
S'Hilda'
p4339
aa(lp4340
S'Hildagard'
p4341
aa(lp4342
S'Hildagarde'
p4343
aa(lp4344
S'Hilde'
p4345
aa(lp4346
S'Hildegaard'
p4347
aa(lp4348
S'Hildegarde'
p4349
aa(lp4350
S'Hildy'
p4351
aa(lp4352
S'Hillary'
p4353
aa(lp4354
S'Hilliary'
p4355
aa(lp4356
S'Hinda'
p4357
aa(lp4358
S'Holley'
p4359
aa(lp4360
S'Holli'
p4361
aa(lp4362
S'Hollie'
p4363
aa(lp4364
S'Holly'
p4365
aa(lp4366
S'Holly-Anne'
p4367
aa(lp4368
S'Hollyanne'
p4369
aa(lp4370
S'Honey'
p4371
aa(lp4372
S'Honor'
p4373
aa(lp4374
S'Honoria'
p4375
aa(lp4376
S'Hope'
p4377
aa(lp4378
S'Horatia'
p4379
aa(lp4380
S'Hortense'
p4381
aa(lp4382
S'Hortensia'
p4383
aa(lp4384
S'Hulda'
p4385
aa(lp4386
S'Hyacinth'
p4387
aa(lp4388
S'Hyacintha'
p4389
aa(lp4390
S'Hyacinthe'
p4391
aa(lp4392
S'Hyacinthia'
p4393
aa(lp4394
S'Hyacinthie'
p4395
aa(lp4396
S'Hynda'
p4397
aa(lp4398
S'Ianthe'
p4399
aa(lp4400
S'Ibbie'
p4401
aa(lp4402
S'Ibby'
p4403
aa(lp4404
S'Ida'
p4405
aa(lp4406
S'Idalia'
p4407
aa(lp4408
S'Idalina'
p4409
aa(lp4410
S'Idaline'
p4411
aa(lp4412
S'Idell'
p4413
aa(lp4414
S'Idelle'
p4415
aa(lp4416
S'Idette'
p4417
aa(lp4418
S'Ike'
p4419
aa(lp4420
S'Ikey'
p4421
aa(lp4422
S'Ilana'
p4423
aa(lp4424
S'Ileana'
p4425
aa(lp4426
S'Ileane'
p4427
aa(lp4428
S'Ilene'
p4429
aa(lp4430
S'Ilise'
p4431
aa(lp4432
S'Ilka'
p4433
aa(lp4434
S'Illa'
p4435
aa(lp4436
S'Ilona'
p4437
aa(lp4438
S'Ilsa'
p4439
aa(lp4440
S'Ilse'
p4441
aa(lp4442
S'Ilysa'
p4443
aa(lp4444
S'Ilyse'
p4445
aa(lp4446
S'Ilyssa'
p4447
aa(lp4448
S'Imelda'
p4449
aa(lp4450
S'Imogen'
p4451
aa(lp4452
S'Imogene'
p4453
aa(lp4454
S'Imojean'
p4455
aa(lp4456
S'Ina'
p4457
aa(lp4458
S'Inci'
p4459
aa(lp4460
S'Indira'
p4461
aa(lp4462
S'Ines'
p4463
aa(lp4464
S'Inesita'
p4465
aa(lp4466
S'Inessa'
p4467
aa(lp4468
S'Inez'
p4469
aa(lp4470
S'Inga'
p4471
aa(lp4472
S'Ingaberg'
p4473
aa(lp4474
S'Ingaborg'
p4475
aa(lp4476
S'Inge'
p4477
aa(lp4478
S'Ingeberg'
p4479
aa(lp4480
S'Ingeborg'
p4481
aa(lp4482
S'Inger'
p4483
aa(lp4484
S'Ingrid'
p4485
aa(lp4486
S'Ingunna'
p4487
aa(lp4488
S'Inna'
p4489
aa(lp4490
S'Ioana'
p4491
aa(lp4492
S'Iolande'
p4493
aa(lp4494
S'Iolanthe'
p4495
aa(lp4496
S'Iona'
p4497
aa(lp4498
S'Iormina'
p4499
aa(lp4500
S'Ira'
p4501
aa(lp4502
S'Irena'
p4503
aa(lp4504
S'Irene'
p4505
aa(lp4506
S'Irina'
p4507
aa(lp4508
S'Iris'
p4509
aa(lp4510
S'Irita'
p4511
aa(lp4512
S'Irma'
p4513
aa(lp4514
S'Isa'
p4515
aa(lp4516
S'Isabeau'
p4517
aa(lp4518
S'Isabel'
p4519
aa(lp4520
S'Isabelita'
p4521
aa(lp4522
S'Isabella'
p4523
aa(lp4524
S'Isabelle'
p4525
aa(lp4526
S'Isador'
p4527
aa(lp4528
S'Isadora'
p4529
aa(lp4530
S'Isadore'
p4531
aa(lp4532
S'Isahella'
p4533
aa(lp4534
S'Iseabal'
p4535
aa(lp4536
S'Isidora'
p4537
aa(lp4538
S'Isis'
p4539
aa(lp4540
S'Isobel'
p4541
aa(lp4542
S'Issi'
p4543
aa(lp4544
S'Issie'
p4545
aa(lp4546
S'Issy'
p4547
aa(lp4548
S'Ivett'
p4549
aa(lp4550
S'Ivette'
p4551
aa(lp4552
S'Ivie'
p4553
aa(lp4554
S'Ivonne'
p4555
aa(lp4556
S'Ivory'
p4557
aa(lp4558
S'Ivy'
p4559
aa(lp4560
S'Izabel'
p4561
aa(lp4562
S'Izzi'
p4563
aa(lp4564
S'Jacenta'
p4565
aa(lp4566
S'Jacinda'
p4567
aa(lp4568
S'Jacinta'
p4569
aa(lp4570
S'Jacintha'
p4571
aa(lp4572
S'Jacinthe'
p4573
aa(lp4574
S'Jackelyn'
p4575
aa(lp4576
S'Jacki'
p4577
aa(lp4578
S'Jackie'
p4579
aa(lp4580
S'Jacklin'
p4581
aa(lp4582
S'Jacklyn'
p4583
aa(lp4584
S'Jackquelin'
p4585
aa(lp4586
S'Jackqueline'
p4587
aa(lp4588
S'Jacky'
p4589
aa(lp4590
S'Jaclin'
p4591
aa(lp4592
S'Jaclyn'
p4593
aa(lp4594
S'Jacquelin'
p4595
aa(lp4596
S'Jacqueline'
p4597
aa(lp4598
S'Jacquelyn'
p4599
aa(lp4600
S'Jacquelynn'
p4601
aa(lp4602
S'Jacquenetta'
p4603
aa(lp4604
S'Jacquenette'
p4605
aa(lp4606
S'Jacquetta'
p4607
aa(lp4608
S'Jacquette'
p4609
aa(lp4610
S'Jacqui'
p4611
aa(lp4612
S'Jacquie'
p4613
aa(lp4614
S'Jacynth'
p4615
aa(lp4616
S'Jada'
p4617
aa(lp4618
S'Jade'
p4619
aa(lp4620
S'Jaime'
p4621
aa(lp4622
S'Jaimie'
p4623
aa(lp4624
S'Jaine'
p4625
aa(lp4626
S'Jaleh'
p4627
aa(lp4628
S'Jami'
p4629
aa(lp4630
S'Jamie'
p4631
aa(lp4632
S'Jamima'
p4633
aa(lp4634
S'Jammie'
p4635
aa(lp4636
S'Jan'
p4637
aa(lp4638
S'Jana'
p4639
aa(lp4640
S'Janaya'
p4641
aa(lp4642
S'Janaye'
p4643
aa(lp4644
S'Jandy'
p4645
aa(lp4646
S'Jane'
p4647
aa(lp4648
S'Janean'
p4649
aa(lp4650
S'Janeczka'
p4651
aa(lp4652
S'Janeen'
p4653
aa(lp4654
S'Janel'
p4655
aa(lp4656
S'Janela'
p4657
aa(lp4658
S'Janella'
p4659
aa(lp4660
S'Janelle'
p4661
aa(lp4662
S'Janene'
p4663
aa(lp4664
S'Janenna'
p4665
aa(lp4666
S'Janessa'
p4667
aa(lp4668
S'Janet'
p4669
aa(lp4670
S'Janeta'
p4671
aa(lp4672
S'Janetta'
p4673
aa(lp4674
S'Janette'
p4675
aa(lp4676
S'Janeva'
p4677
aa(lp4678
S'Janey'
p4679
aa(lp4680
S'Jania'
p4681
aa(lp4682
S'Janice'
p4683
aa(lp4684
S'Janie'
p4685
aa(lp4686
S'Janifer'
p4687
aa(lp4688
S'Janina'
p4689
aa(lp4690
S'Janine'
p4691
aa(lp4692
S'Janis'
p4693
aa(lp4694
S'Janith'
p4695
aa(lp4696
S'Janka'
p4697
aa(lp4698
S'Janna'
p4699
aa(lp4700
S'Jannel'
p4701
aa(lp4702
S'Jannelle'
p4703
aa(lp4704
S'Janot'
p4705
aa(lp4706
S'Jany'
p4707
aa(lp4708
S'Jaquelin'
p4709
aa(lp4710
S'Jaquelyn'
p4711
aa(lp4712
S'Jaquenetta'
p4713
aa(lp4714
S'Jaquenette'
p4715
aa(lp4716
S'Jaquith'
p4717
aa(lp4718
S'Jasmin'
p4719
aa(lp4720
S'Jasmina'
p4721
aa(lp4722
S'Jasmine'
p4723
aa(lp4724
S'Jayme'
p4725
aa(lp4726
S'Jaymee'
p4727
aa(lp4728
S'Jayne'
p4729
aa(lp4730
S'Jaynell'
p4731
aa(lp4732
S'Jazmin'
p4733
aa(lp4734
S'Jean'
p4735
aa(lp4736
S'Jeana'
p4737
aa(lp4738
S'Jeane'
p4739
aa(lp4740
S'Jeanelle'
p4741
aa(lp4742
S'Jeanette'
p4743
aa(lp4744
S'Jeanie'
p4745
aa(lp4746
S'Jeanine'
p4747
aa(lp4748
S'Jeanna'
p4749
aa(lp4750
S'Jeanne'
p4751
aa(lp4752
S'Jeannette'
p4753
aa(lp4754
S'Jeannie'
p4755
aa(lp4756
S'Jeannine'
p4757
aa(lp4758
S'Jehanna'
p4759
aa(lp4760
S'Jelene'
p4761
aa(lp4762
S'Jemie'
p4763
aa(lp4764
S'Jemima'
p4765
aa(lp4766
S'Jemimah'
p4767
aa(lp4768
S'Jemmie'
p4769
aa(lp4770
S'Jemmy'
p4771
aa(lp4772
S'Jen'
p4773
aa(lp4774
S'Jena'
p4775
aa(lp4776
S'Jenda'
p4777
aa(lp4778
S'Jenelle'
p4779
aa(lp4780
S'Jenette'
p4781
aa(lp4782
S'Jeni'
p4783
aa(lp4784
S'Jenica'
p4785
aa(lp4786
S'Jeniece'
p4787
aa(lp4788
S'Jenifer'
p4789
aa(lp4790
S'Jeniffer'
p4791
aa(lp4792
S'Jenilee'
p4793
aa(lp4794
S'Jenine'
p4795
aa(lp4796
S'Jenn'
p4797
aa(lp4798
S'Jenna'
p4799
aa(lp4800
S'Jennee'
p4801
aa(lp4802
S'Jennette'
p4803
aa(lp4804
S'Jenni'
p4805
aa(lp4806
S'Jennica'
p4807
aa(lp4808
S'Jennie'
p4809
aa(lp4810
S'Jennifer'
p4811
aa(lp4812
S'Jennilee'
p4813
aa(lp4814
S'Jennine'
p4815
aa(lp4816
S'Jenny'
p4817
aa(lp4818
S'Jeraldine'
p4819
aa(lp4820
S'Jeralee'
p4821
aa(lp4822
S'Jere'
p4823
aa(lp4824
S'Jeri'
p4825
aa(lp4826
S'Jermaine'
p4827
aa(lp4828
S'Jerrie'
p4829
aa(lp4830
S'Jerrilee'
p4831
aa(lp4832
S'Jerrilyn'
p4833
aa(lp4834
S'Jerrine'
p4835
aa(lp4836
S'Jerry'
p4837
aa(lp4838
S'Jerrylee'
p4839
aa(lp4840
S'Jess'
p4841
aa(lp4842
S'Jessa'
p4843
aa(lp4844
S'Jessalin'
p4845
aa(lp4846
S'Jessalyn'
p4847
aa(lp4848
S'Jessamine'
p4849
aa(lp4850
S'Jessamyn'
p4851
aa(lp4852
S'Jesse'
p4853
aa(lp4854
S'Jesselyn'
p4855
aa(lp4856
S'Jessi'
p4857
aa(lp4858
S'Jessica'
p4859
aa(lp4860
S'Jessie'
p4861
aa(lp4862
S'Jessika'
p4863
aa(lp4864
S'Jessy'
p4865
aa(lp4866
S'Jewel'
p4867
aa(lp4868
S'Jewell'
p4869
aa(lp4870
S'Jewelle'
p4871
aa(lp4872
S'Jill'
p4873
aa(lp4874
S'Jillana'
p4875
aa(lp4876
S'Jillane'
p4877
aa(lp4878
S'Jillayne'
p4879
aa(lp4880
S'Jilleen'
p4881
aa(lp4882
S'Jillene'
p4883
aa(lp4884
S'Jilli'
p4885
aa(lp4886
S'Jillian'
p4887
aa(lp4888
S'Jillie'
p4889
aa(lp4890
S'Jilly'
p4891
aa(lp4892
S'Jinny'
p4893
aa(lp4894
S'Jo'
p4895
aa(lp4896
S'Jo'
p4897
aS'Ann'
p4898
aa(lp4899
S'Jo-Ann'
p4900
aa(lp4901
S'JoAnn'
p4902
aa(lp4903
S'Jo-Anne'
p4904
aa(lp4905
S'JoAnne'
p4906
aa(lp4907
S'Joan'
p4908
aa(lp4909
S'Joana'
p4910
aa(lp4911
S'Joane'
p4912
aa(lp4913
S'Joanie'
p4914
aa(lp4915
S'Joann'
p4916
aa(lp4917
S'Joanna'
p4918
aa(lp4919
S'Joanne'
p4920
aa(lp4921
S'Joannes'
p4922
aa(lp4923
S'Jobey'
p4924
aa(lp4925
S'Jobi'
p4926
aa(lp4927
S'Jobie'
p4928
aa(lp4929
S'Jobina'
p4930
aa(lp4931
S'Joby'
p4932
aa(lp4933
S'Jobye'
p4934
aa(lp4935
S'Jobyna'
p4936
aa(lp4937
S'Jocelin'
p4938
aa(lp4939
S'Joceline'
p4940
aa(lp4941
S'Jocelyn'
p4942
aa(lp4943
S'Jocelyne'
p4944
aa(lp4945
S'Jodee'
p4946
aa(lp4947
S'Jodi'
p4948
aa(lp4949
S'Jodie'
p4950
aa(lp4951
S'Jody'
p4952
aa(lp4953
S'Joela'
p4954
aa(lp4955
S'Joelie'
p4956
aa(lp4957
S'Joell'
p4958
aa(lp4959
S'Joella'
p4960
aa(lp4961
S'Joelle'
p4962
aa(lp4963
S'Joellen'
p4964
aa(lp4965
S'Joelly'
p4966
aa(lp4967
S'Joellyn'
p4968
aa(lp4969
S'Joelynn'
p4970
aa(lp4971
S'Joete'
p4972
aa(lp4973
S'Joey'
p4974
aa(lp4975
S'Johanna'
p4976
aa(lp4977
S'Johannah'
p4978
aa(lp4979
S'Johnette'
p4980
aa(lp4981
S'Johnna'
p4982
aa(lp4983
S'Joice'
p4984
aa(lp4985
S'Jojo'
p4986
aa(lp4987
S'Jolee'
p4988
aa(lp4989
S'Joleen'
p4990
aa(lp4991
S'Jolene'
p4992
aa(lp4993
S'Joletta'
p4994
aa(lp4995
S'Joli'
p4996
aa(lp4997
S'Jolie'
p4998
aa(lp4999
S'Joline'
p5000
aa(lp5001
S'Joly'
p5002
aa(lp5003
S'Jolyn'
p5004
aa(lp5005
S'Jolynn'
p5006
aa(lp5007
S'Jonell'
p5008
aa(lp5009
S'Joni'
p5010
aa(lp5011
S'Jonie'
p5012
aa(lp5013
S'Jonis'
p5014
aa(lp5015
S'Jordain'
p5016
aa(lp5017
S'Jordan'
p5018
aa(lp5019
S'Jordana'
p5020
aa(lp5021
S'Jordanna'
p5022
aa(lp5023
S'Jorey'
p5024
aa(lp5025
S'Jori'
p5026
aa(lp5027
S'Jorie'
p5028
aa(lp5029
S'Jorrie'
p5030
aa(lp5031
S'Jorry'
p5032
aa(lp5033
S'Joscelin'
p5034
aa(lp5035
S'Josee'
p5036
aa(lp5037
S'Josefa'
p5038
aa(lp5039
S'Josefina'
p5040
aa(lp5041
S'Joselyn'
p5042
aa(lp5043
S'Josepha'
p5044
aa(lp5045
S'Josephina'
p5046
aa(lp5047
S'Josephine'
p5048
aa(lp5049
S'Josey'
p5050
aa(lp5051
S'Josi'
p5052
aa(lp5053
S'Josie'
p5054
aa(lp5055
S'Joslyn'
p5056
aa(lp5057
S'Josselyn'
p5058
aa(lp5059
S'Josy'
p5060
aa(lp5061
S'Jourdan'
p5062
aa(lp5063
S'Joy'
p5064
aa(lp5065
S'Joya'
p5066
aa(lp5067
S'Joyan'
p5068
aa(lp5069
S'Joyann'
p5070
aa(lp5071
S'Joyce'
p5072
aa(lp5073
S'Joycelin'
p5074
aa(lp5075
S'Joye'
p5076
aa(lp5077
S'Joyous'
p5078
aa(lp5079
S'Juana'
p5080
aa(lp5081
S'Juanita'
p5082
aa(lp5083
S'Jude'
p5084
aa(lp5085
S'Judi'
p5086
aa(lp5087
S'Judie'
p5088
aa(lp5089
S'Judith'
p5090
aa(lp5091
S'Juditha'
p5092
aa(lp5093
S'Judy'
p5094
aa(lp5095
S'Judye'
p5096
aa(lp5097
S'Julee'
p5098
aa(lp5099
S'Juli'
p5100
aa(lp5101
S'Julia'
p5102
aa(lp5103
S'Juliana'
p5104
aa(lp5105
S'Juliane'
p5106
aa(lp5107
S'Juliann'
p5108
aa(lp5109
S'Julianna'
p5110
aa(lp5111
S'Julianne'
p5112
aa(lp5113
S'Julie'
p5114
aa(lp5115
S'Julienne'
p5116
aa(lp5117
S'Juliet'
p5118
aa(lp5119
S'Julieta'
p5120
aa(lp5121
S'Julietta'
p5122
aa(lp5123
S'Juliette'
p5124
aa(lp5125
S'Julina'
p5126
aa(lp5127
S'Juline'
p5128
aa(lp5129
S'Julissa'
p5130
aa(lp5131
S'Julita'
p5132
aa(lp5133
S'June'
p5134
aa(lp5135
S'Junette'
p5136
aa(lp5137
S'Junia'
p5138
aa(lp5139
S'Junie'
p5140
aa(lp5141
S'Junina'
p5142
aa(lp5143
S'Justin'
p5144
aa(lp5145
S'Justina'
p5146
aa(lp5147
S'Justine'
p5148
aa(lp5149
S'Jyoti'
p5150
aa(lp5151
S'Kaari'
p5152
aa(lp5153
S'Kacey'
p5154
aa(lp5155
S'Kacie'
p5156
aa(lp5157
S'Kacy'
p5158
aa(lp5159
S'Kai'
p5160
aa(lp5161
S'Kaia'
p5162
aa(lp5163
S'Kaila'
p5164
aa(lp5165
S'Kaile'
p5166
aa(lp5167
S'Kailey'
p5168
aa(lp5169
S'Kaitlin'
p5170
aa(lp5171
S'Kaitlyn'
p5172
aa(lp5173
S'Kaitlynn'
p5174
aa(lp5175
S'Kaja'
p5176
aa(lp5177
S'Kakalina'
p5178
aa(lp5179
S'Kala'
p5180
aa(lp5181
S'Kaleena'
p5182
aa(lp5183
S'Kali'
p5184
aa(lp5185
S'Kalie'
p5186
aa(lp5187
S'Kalila'
p5188
aa(lp5189
S'Kalina'
p5190
aa(lp5191
S'Kalinda'
p5192
aa(lp5193
S'Kalindi'
p5194
aa(lp5195
S'Kalli'
p5196
aa(lp5197
S'Kally'
p5198
aa(lp5199
S'Kameko'
p5200
aa(lp5201
S'Kamila'
p5202
aa(lp5203
S'Kamilah'
p5204
aa(lp5205
S'Kamillah'
p5206
aa(lp5207
S'Kandace'
p5208
aa(lp5209
S'Kandy'
p5210
aa(lp5211
S'Kania'
p5212
aa(lp5213
S'Kanya'
p5214
aa(lp5215
S'Kara'
p5216
aa(lp5217
S'Kara-Lynn'
p5218
aa(lp5219
S'Karalee'
p5220
aa(lp5221
S'Karalynn'
p5222
aa(lp5223
S'Kare'
p5224
aa(lp5225
S'Karee'
p5226
aa(lp5227
S'Karel'
p5228
aa(lp5229
S'Karen'
p5230
aa(lp5231
S'Karena'
p5232
aa(lp5233
S'Kari'
p5234
aa(lp5235
S'Karia'
p5236
aa(lp5237
S'Karie'
p5238
aa(lp5239
S'Karil'
p5240
aa(lp5241
S'Karilynn'
p5242
aa(lp5243
S'Karin'
p5244
aa(lp5245
S'Karina'
p5246
aa(lp5247
S'Karine'
p5248
aa(lp5249
S'Kariotta'
p5250
aa(lp5251
S'Karisa'
p5252
aa(lp5253
S'Karissa'
p5254
aa(lp5255
S'Karita'
p5256
aa(lp5257
S'Karla'
p5258
aa(lp5259
S'Karlee'
p5260
aa(lp5261
S'Karleen'
p5262
aa(lp5263
S'Karlen'
p5264
aa(lp5265
S'Karlene'
p5266
aa(lp5267
S'Karlie'
p5268
aa(lp5269
S'Karlotta'
p5270
aa(lp5271
S'Karlotte'
p5272
aa(lp5273
S'Karly'
p5274
aa(lp5275
S'Karlyn'
p5276
aa(lp5277
S'Karmen'
p5278
aa(lp5279
S'Karna'
p5280
aa(lp5281
S'Karol'
p5282
aa(lp5283
S'Karola'
p5284
aa(lp5285
S'Karole'
p5286
aa(lp5287
S'Karolina'
p5288
aa(lp5289
S'Karoline'
p5290
aa(lp5291
S'Karoly'
p5292
aa(lp5293
S'Karon'
p5294
aa(lp5295
S'Karrah'
p5296
aa(lp5297
S'Karrie'
p5298
aa(lp5299
S'Karry'
p5300
aa(lp5301
S'Kary'
p5302
aa(lp5303
S'Karyl'
p5304
aa(lp5305
S'Karylin'
p5306
aa(lp5307
S'Karyn'
p5308
aa(lp5309
S'Kasey'
p5310
aa(lp5311
S'Kass'
p5312
aa(lp5313
S'Kassandra'
p5314
aa(lp5315
S'Kassey'
p5316
aa(lp5317
S'Kassi'
p5318
aa(lp5319
S'Kassia'
p5320
aa(lp5321
S'Kassie'
p5322
aa(lp5323
S'Kaster'
p5324
aa(lp5325
S'Kat'
p5326
aa(lp5327
S'Kata'
p5328
aa(lp5329
S'Katalin'
p5330
aa(lp5331
S'Kate'
p5332
aa(lp5333
S'Katee'
p5334
aa(lp5335
S'Katerina'
p5336
aa(lp5337
S'Katerine'
p5338
aa(lp5339
S'Katey'
p5340
aa(lp5341
S'Kath'
p5342
aa(lp5343
S'Katha'
p5344
aa(lp5345
S'Katharina'
p5346
aa(lp5347
S'Katharine'
p5348
aa(lp5349
S'Katharyn'
p5350
aa(lp5351
S'Kathe'
p5352
aa(lp5353
S'Katheleen'
p5354
aa(lp5355
S'Katherina'
p5356
aa(lp5357
S'Katherine'
p5358
aa(lp5359
S'Katheryn'
p5360
aa(lp5361
S'Kathi'
p5362
aa(lp5363
S'Kathie'
p5364
aa(lp5365
S'Kathleen'
p5366
aa(lp5367
S'Kathlene'
p5368
aa(lp5369
S'Kathlin'
p5370
aa(lp5371
S'Kathrine'
p5372
aa(lp5373
S'Kathryn'
p5374
aa(lp5375
S'Kathryne'
p5376
aa(lp5377
S'Kathy'
p5378
aa(lp5379
S'Kathye'
p5380
aa(lp5381
S'Kati'
p5382
aa(lp5383
S'Katie'
p5384
aa(lp5385
S'Katina'
p5386
aa(lp5387
S'Katine'
p5388
aa(lp5389
S'Katinka'
p5390
aa(lp5391
S'Katleen'
p5392
aa(lp5393
S'Katlin'
p5394
aa(lp5395
S'Katrina'
p5396
aa(lp5397
S'Katrine'
p5398
aa(lp5399
S'Katrinka'
p5400
aa(lp5401
S'Katti'
p5402
aa(lp5403
S'Kattie'
p5404
aa(lp5405
S'Katuscha'
p5406
aa(lp5407
S'Katusha'
p5408
aa(lp5409
S'Katy'
p5410
aa(lp5411
S'Katya'
p5412
aa(lp5413
S'Kay'
p5414
aa(lp5415
S'Kaycee'
p5416
aa(lp5417
S'Kaye'
p5418
aa(lp5419
S'Kayla'
p5420
aa(lp5421
S'Kayle'
p5422
aa(lp5423
S'Kaylee'
p5424
aa(lp5425
S'Kayley'
p5426
aa(lp5427
S'Kaylil'
p5428
aa(lp5429
S'Kaylyn'
p5430
aa(lp5431
S'Kee'
p5432
aa(lp5433
S'Keeley'
p5434
aa(lp5435
S'Keelia'
p5436
aa(lp5437
S'Keely'
p5438
aa(lp5439
S'Kelcey'
p5440
aa(lp5441
S'Kelci'
p5442
aa(lp5443
S'Kelcie'
p5444
aa(lp5445
S'Kelcy'
p5446
aa(lp5447
S'Kelila'
p5448
aa(lp5449
S'Kellen'
p5450
aa(lp5451
S'Kelley'
p5452
aa(lp5453
S'Kelli'
p5454
aa(lp5455
S'Kellia'
p5456
aa(lp5457
S'Kellie'
p5458
aa(lp5459
S'Kellina'
p5460
aa(lp5461
S'Kellsie'
p5462
aa(lp5463
S'Kelly'
p5464
aa(lp5465
S'Kellyann'
p5466
aa(lp5467
S'Kelsey'
p5468
aa(lp5469
S'Kelsi'
p5470
aa(lp5471
S'Kelsy'
p5472
aa(lp5473
S'Kendra'
p5474
aa(lp5475
S'Kendre'
p5476
aa(lp5477
S'Kenna'
p5478
aa(lp5479
S'Keren'
p5480
aa(lp5481
S'Keri'
p5482
aa(lp5483
S'Keriann'
p5484
aa(lp5485
S'Kerianne'
p5486
aa(lp5487
S'Kerri'
p5488
aa(lp5489
S'Kerrie'
p5490
aa(lp5491
S'Kerrill'
p5492
aa(lp5493
S'Kerrin'
p5494
aa(lp5495
S'Kerry'
p5496
aa(lp5497
S'Kerstin'
p5498
aa(lp5499
S'Kesley'
p5500
aa(lp5501
S'Keslie'
p5502
aa(lp5503
S'Kessia'
p5504
aa(lp5505
S'Kessiah'
p5506
aa(lp5507
S'Ketti'
p5508
aa(lp5509
S'Kettie'
p5510
aa(lp5511
S'Ketty'
p5512
aa(lp5513
S'Kevina'
p5514
aa(lp5515
S'Kevyn'
p5516
aa(lp5517
S'Ki'
p5518
aa(lp5519
S'Kia'
p5520
aa(lp5521
S'Kiah'
p5522
aa(lp5523
S'Kial'
p5524
aa(lp5525
S'Kiele'
p5526
aa(lp5527
S'Kiersten'
p5528
aa(lp5529
S'Kikelia'
p5530
aa(lp5531
S'Kiley'
p5532
aa(lp5533
S'Kim'
p5534
aa(lp5535
S'Kimberlee'
p5536
aa(lp5537
S'Kimberley'
p5538
aa(lp5539
S'Kimberli'
p5540
aa(lp5541
S'Kimberly'
p5542
aa(lp5543
S'Kimberlyn'
p5544
aa(lp5545
S'Kimbra'
p5546
aa(lp5547
S'Kimmi'
p5548
aa(lp5549
S'Kimmie'
p5550
aa(lp5551
S'Kimmy'
p5552
aa(lp5553
S'Kinna'
p5554
aa(lp5555
S'Kip'
p5556
aa(lp5557
S'Kipp'
p5558
aa(lp5559
S'Kippie'
p5560
aa(lp5561
S'Kippy'
p5562
aa(lp5563
S'Kira'
p5564
aa(lp5565
S'Kirbee'
p5566
aa(lp5567
S'Kirbie'
p5568
aa(lp5569
S'Kirby'
p5570
aa(lp5571
S'Kiri'
p5572
aa(lp5573
S'Kirsten'
p5574
aa(lp5575
S'Kirsteni'
p5576
aa(lp5577
S'Kirsti'
p5578
aa(lp5579
S'Kirstie'
p5580
aa(lp5581
S'Kirstin'
p5582
aa(lp5583
S'Kirstyn'
p5584
aa(lp5585
S'Kissee'
p5586
aa(lp5587
S'Kissiah'
p5588
aa(lp5589
S'Kissie'
p5590
aa(lp5591
S'Kit'
p5592
aa(lp5593
S'Kitti'
p5594
aa(lp5595
S'Kittie'
p5596
aa(lp5597
S'Kitty'
p5598
aa(lp5599
S'Kizzee'
p5600
aa(lp5601
S'Kizzie'
p5602
aa(lp5603
S'Klara'
p5604
aa(lp5605
S'Klarika'
p5606
aa(lp5607
S'Klarrisa'
p5608
aa(lp5609
S'Konstance'
p5610
aa(lp5611
S'Konstanze'
p5612
aa(lp5613
S'Koo'
p5614
aa(lp5615
S'Kora'
p5616
aa(lp5617
S'Koral'
p5618
aa(lp5619
S'Koralle'
p5620
aa(lp5621
S'Kordula'
p5622
aa(lp5623
S'Kore'
p5624
aa(lp5625
S'Korella'
p5626
aa(lp5627
S'Koren'
p5628
aa(lp5629
S'Koressa'
p5630
aa(lp5631
S'Kori'
p5632
aa(lp5633
S'Korie'
p5634
aa(lp5635
S'Korney'
p5636
aa(lp5637
S'Korrie'
p5638
aa(lp5639
S'Korry'
p5640
aa(lp5641
S'Kourtney'
p5642
aa(lp5643
S'Kris'
p5644
aa(lp5645
S'Krissie'
p5646
aa(lp5647
S'Krissy'
p5648
aa(lp5649
S'Krista'
p5650
aa(lp5651
S'Kristal'
p5652
aa(lp5653
S'Kristan'
p5654
aa(lp5655
S'Kriste'
p5656
aa(lp5657
S'Kristel'
p5658
aa(lp5659
S'Kristen'
p5660
aa(lp5661
S'Kristi'
p5662
aa(lp5663
S'Kristien'
p5664
aa(lp5665
S'Kristin'
p5666
aa(lp5667
S'Kristina'
p5668
aa(lp5669
S'Kristine'
p5670
aa(lp5671
S'Kristy'
p5672
aa(lp5673
S'Kristyn'
p5674
aa(lp5675
S'Krysta'
p5676
aa(lp5677
S'Krystal'
p5678
aa(lp5679
S'Krystalle'
p5680
aa(lp5681
S'Krystle'
p5682
aa(lp5683
S'Krystyna'
p5684
aa(lp5685
S'Kyla'
p5686
aa(lp5687
S'Kyle'
p5688
aa(lp5689
S'Kylen'
p5690
aa(lp5691
S'Kylie'
p5692
aa(lp5693
S'Kylila'
p5694
aa(lp5695
S'Kylynn'
p5696
aa(lp5697
S'Kym'
p5698
aa(lp5699
S'Kynthia'
p5700
aa(lp5701
S'Kyrstin'
p5702
aa(lp5703
S'La'
p5704
aa(lp5705
S'Lacee'
p5706
aa(lp5707
S'Lacey'
p5708
aa(lp5709
S'Lacie'
p5710
aa(lp5711
S'Lacy'
p5712
aa(lp5713
S'Ladonna'
p5714
aa(lp5715
S'Laetitia'
p5716
aa(lp5717
S'Laila'
p5718
aa(lp5719
S'Laina'
p5720
aa(lp5721
S'Lainey'
p5722
aa(lp5723
S'Lamb'
p5724
aa(lp5725
S'Lana'
p5726
aa(lp5727
S'Lane'
p5728
aa(lp5729
S'Lanette'
p5730
aa(lp5731
S'Laney'
p5732
aa(lp5733
S'Lani'
p5734
aa(lp5735
S'Lanie'
p5736
aa(lp5737
S'Lanita'
p5738
aa(lp5739
S'Lanna'
p5740
aa(lp5741
S'Lanni'
p5742
aa(lp5743
S'Lanny'
p5744
aa(lp5745
S'Lara'
p5746
aa(lp5747
S'Laraine'
p5748
aa(lp5749
S'Lari'
p5750
aa(lp5751
S'Larina'
p5752
aa(lp5753
S'Larine'
p5754
aa(lp5755
S'Larisa'
p5756
aa(lp5757
S'Larissa'
p5758
aa(lp5759
S'Lark'
p5760
aa(lp5761
S'Laryssa'
p5762
aa(lp5763
S'Latashia'
p5764
aa(lp5765
S'Latia'
p5766
aa(lp5767
S'Latisha'
p5768
aa(lp5769
S'Latrena'
p5770
aa(lp5771
S'Latrina'
p5772
aa(lp5773
S'Laura'
p5774
aa(lp5775
S'Lauraine'
p5776
aa(lp5777
S'Laural'
p5778
aa(lp5779
S'Lauralee'
p5780
aa(lp5781
S'Laure'
p5782
aa(lp5783
S'Lauree'
p5784
aa(lp5785
S'Laureen'
p5786
aa(lp5787
S'Laurel'
p5788
aa(lp5789
S'Laurella'
p5790
aa(lp5791
S'Lauren'
p5792
aa(lp5793
S'Laurena'
p5794
aa(lp5795
S'Laurene'
p5796
aa(lp5797
S'Lauretta'
p5798
aa(lp5799
S'Laurette'
p5800
aa(lp5801
S'Lauri'
p5802
aa(lp5803
S'Laurianne'
p5804
aa(lp5805
S'Laurice'
p5806
aa(lp5807
S'Laurie'
p5808
aa(lp5809
S'Lauryn'
p5810
aa(lp5811
S'Lavena'
p5812
aa(lp5813
S'Laverna'
p5814
aa(lp5815
S'Laverne'
p5816
aa(lp5817
S'Lavina'
p5818
aa(lp5819
S'Lavinia'
p5820
aa(lp5821
S'Lavinie'
p5822
aa(lp5823
S'Layla'
p5824
aa(lp5825
S'Layne'
p5826
aa(lp5827
S'Layney'
p5828
aa(lp5829
S'Lea'
p5830
aa(lp5831
S'Leah'
p5832
aa(lp5833
S'Leandra'
p5834
aa(lp5835
S'Leann'
p5836
aa(lp5837
S'Leanna'
p5838
aa(lp5839
S'Leanne'
p5840
aa(lp5841
S'Leanor'
p5842
aa(lp5843
S'Leanora'
p5844
aa(lp5845
S'Lebbie'
p5846
aa(lp5847
S'Leda'
p5848
aa(lp5849
S'Lee'
p5850
aa(lp5851
S'LeeAnn'
p5852
aa(lp5853
S'Leeann'
p5854
aa(lp5855
S'Leeanne'
p5856
aa(lp5857
S'Leela'
p5858
aa(lp5859
S'Leelah'
p5860
aa(lp5861
S'Leena'
p5862
aa(lp5863
S'Leesa'
p5864
aa(lp5865
S'Leese'
p5866
aa(lp5867
S'Legra'
p5868
aa(lp5869
S'Leia'
p5870
aa(lp5871
S'Leiah'
p5872
aa(lp5873
S'Leigh'
p5874
aa(lp5875
S'Leigha'
p5876
aa(lp5877
S'Leila'
p5878
aa(lp5879
S'Leilah'
p5880
aa(lp5881
S'Leisha'
p5882
aa(lp5883
S'Lela'
p5884
aa(lp5885
S'Lelah'
p5886
aa(lp5887
S'Leland'
p5888
aa(lp5889
S'Lelia'
p5890
aa(lp5891
S'Lena'
p5892
aa(lp5893
S'Lenee'
p5894
aa(lp5895
S'Lenette'
p5896
aa(lp5897
S'Lenka'
p5898
aa(lp5899
S'Lenna'
p5900
aa(lp5901
S'Lenora'
p5902
aa(lp5903
S'Lenore'
p5904
aa(lp5905
S'Leodora'
p5906
aa(lp5907
S'Leoine'
p5908
aa(lp5909
S'Leola'
p5910
aa(lp5911
S'Leoline'
p5912
aa(lp5913
S'Leona'
p5914
aa(lp5915
S'Leonanie'
p5916
aa(lp5917
S'Leone'
p5918
aa(lp5919
S'Leonelle'
p5920
aa(lp5921
S'Leonie'
p5922
aa(lp5923
S'Leonora'
p5924
aa(lp5925
S'Leonore'
p5926
aa(lp5927
S'Leontine'
p5928
aa(lp5929
S'Leontyne'
p5930
aa(lp5931
S'Leora'
p5932
aa(lp5933
S'Leorah'
p5934
aa(lp5935
S'Leshia'
p5936
aa(lp5937
S'Lesley'
p5938
aa(lp5939
S'Lesli'
p5940
aa(lp5941
S'Leslie'
p5942
aa(lp5943
S'Lesly'
p5944
aa(lp5945
S'Lesya'
p5946
aa(lp5947
S'Leta'
p5948
aa(lp5949
S'Lethia'
p5950
aa(lp5951
S'Leticia'
p5952
aa(lp5953
S'Letisha'
p5954
aa(lp5955
S'Letitia'
p5956
aa(lp5957
S'Letta'
p5958
aa(lp5959
S'Letti'
p5960
aa(lp5961
S'Lettie'
p5962
aa(lp5963
S'Letty'
p5964
aa(lp5965
S'Leyla'
p5966
aa(lp5967
S'Lezlie'
p5968
aa(lp5969
S'Lia'
p5970
aa(lp5971
S'Lian'
p5972
aa(lp5973
S'Liana'
p5974
aa(lp5975
S'Liane'
p5976
aa(lp5977
S'Lianna'
p5978
aa(lp5979
S'Lianne'
p5980
aa(lp5981
S'Lib'
p5982
aa(lp5983
S'Libbey'
p5984
aa(lp5985
S'Libbi'
p5986
aa(lp5987
S'Libbie'
p5988
aa(lp5989
S'Libby'
p5990
aa(lp5991
S'Licha'
p5992
aa(lp5993
S'Lida'
p5994
aa(lp5995
S'Lidia'
p5996
aa(lp5997
S'Lil'
p5998
aa(lp5999
S'Lila'
p6000
aa(lp6001
S'Lilah'
p6002
aa(lp6003
S'Lilas'
p6004
aa(lp6005
S'Lilia'
p6006
aa(lp6007
S'Lilian'
p6008
aa(lp6009
S'Liliane'
p6010
aa(lp6011
S'Lilias'
p6012
aa(lp6013
S'Lilith'
p6014
aa(lp6015
S'Lilla'
p6016
aa(lp6017
S'Lilli'
p6018
aa(lp6019
S'Lillian'
p6020
aa(lp6021
S'Lillis'
p6022
aa(lp6023
S'Lilllie'
p6024
aa(lp6025
S'Lilly'
p6026
aa(lp6027
S'Lily'
p6028
aa(lp6029
S'Lilyan'
p6030
aa(lp6031
S'Lin'
p6032
aa(lp6033
S'Lina'
p6034
aa(lp6035
S'Lind'
p6036
aa(lp6037
S'Linda'
p6038
aa(lp6039
S'Lindi'
p6040
aa(lp6041
S'Lindie'
p6042
aa(lp6043
S'Lindsay'
p6044
aa(lp6045
S'Lindsey'
p6046
aa(lp6047
S'Lindsy'
p6048
aa(lp6049
S'Lindy'
p6050
aa(lp6051
S'Linea'
p6052
aa(lp6053
S'Linell'
p6054
aa(lp6055
S'Linet'
p6056
aa(lp6057
S'Linette'
p6058
aa(lp6059
S'Linn'
p6060
aa(lp6061
S'Linnea'
p6062
aa(lp6063
S'Linnell'
p6064
aa(lp6065
S'Linnet'
p6066
aa(lp6067
S'Linnie'
p6068
aa(lp6069
S'Linzy'
p6070
aa(lp6071
S'Liora'
p6072
aa(lp6073
S'Liorah'
p6074
aa(lp6075
S'Lira'
p6076
aa(lp6077
S'Lisa'
p6078
aa(lp6079
S'Lisabeth'
p6080
aa(lp6081
S'Lisandra'
p6082
aa(lp6083
S'Lisbeth'
p6084
aa(lp6085
S'Lise'
p6086
aa(lp6087
S'Lisetta'
p6088
aa(lp6089
S'Lisette'
p6090
aa(lp6091
S'Lisha'
p6092
aa(lp6093
S'Lishe'
p6094
aa(lp6095
S'Lissa'
p6096
aa(lp6097
S'Lissi'
p6098
aa(lp6099
S'Lissie'
p6100
aa(lp6101
S'Lissy'
p6102
aa(lp6103
S'Lita'
p6104
aa(lp6105
S'Liuka'
p6106
aa(lp6107
S'Livia'
p6108
aa(lp6109
S'Liz'
p6110
aa(lp6111
S'Liza'
p6112
aa(lp6113
S'Lizabeth'
p6114
aa(lp6115
S'Lizbeth'
p6116
aa(lp6117
S'Lizette'
p6118
aa(lp6119
S'Lizzie'
p6120
aa(lp6121
S'Lizzy'
p6122
aa(lp6123
S'Loella'
p6124
aa(lp6125
S'Lois'
p6126
aa(lp6127
S'Loise'
p6128
aa(lp6129
S'Lola'
p6130
aa(lp6131
S'Lolande'
p6132
aa(lp6133
S'Loleta'
p6134
aa(lp6135
S'Lolita'
p6136
aa(lp6137
S'Lolly'
p6138
aa(lp6139
S'Lona'
p6140
aa(lp6141
S'Lonee'
p6142
aa(lp6143
S'Loni'
p6144
aa(lp6145
S'Lonna'
p6146
aa(lp6147
S'Lonni'
p6148
aa(lp6149
S'Lonnie'
p6150
aa(lp6151
S'Lora'
p6152
aa(lp6153
S'Lorain'
p6154
aa(lp6155
S'Loraine'
p6156
aa(lp6157
S'Loralee'
p6158
aa(lp6159
S'Loralie'
p6160
aa(lp6161
S'Loralyn'
p6162
aa(lp6163
S'Loree'
p6164
aa(lp6165
S'Loreen'
p6166
aa(lp6167
S'Lorelei'
p6168
aa(lp6169
S'Lorelle'
p6170
aa(lp6171
S'Loren'
p6172
aa(lp6173
S'Lorena'
p6174
aa(lp6175
S'Lorene'
p6176
aa(lp6177
S'Lorenza'
p6178
aa(lp6179
S'Loretta'
p6180
aa(lp6181
S'Lorettalorna'
p6182
aa(lp6183
S'Lorette'
p6184
aa(lp6185
S'Lori'
p6186
aa(lp6187
S'Loria'
p6188
aa(lp6189
S'Lorianna'
p6190
aa(lp6191
S'Lorianne'
p6192
aa(lp6193
S'Lorie'
p6194
aa(lp6195
S'Lorilee'
p6196
aa(lp6197
S'Lorilyn'
p6198
aa(lp6199
S'Lorinda'
p6200
aa(lp6201
S'Lorine'
p6202
aa(lp6203
S'Lorita'
p6204
aa(lp6205
S'Lorna'
p6206
aa(lp6207
S'Lorne'
p6208
aa(lp6209
S'Lorraine'
p6210
aa(lp6211
S'Lorrayne'
p6212
aa(lp6213
S'Lorri'
p6214
aa(lp6215
S'Lorrie'
p6216
aa(lp6217
S'Lorrin'
p6218
aa(lp6219
S'Lorry'
p6220
aa(lp6221
S'Lory'
p6222
aa(lp6223
S'Lotta'
p6224
aa(lp6225
S'Lotte'
p6226
aa(lp6227
S'Lotti'
p6228
aa(lp6229
S'Lottie'
p6230
aa(lp6231
S'Lotty'
p6232
aa(lp6233
S'Lou'
p6234
aa(lp6235
S'Louella'
p6236
aa(lp6237
S'Louisa'
p6238
aa(lp6239
S'Louise'
p6240
aa(lp6241
S'Louisette'
p6242
aa(lp6243
S'Love'
p6244
aa(lp6245
S'Luana'
p6246
aa(lp6247
S'Luanna'
p6248
aa(lp6249
S'Luce'
p6250
aa(lp6251
S'Luci'
p6252
aa(lp6253
S'Lucia'
p6254
aa(lp6255
S'Luciana'
p6256
aa(lp6257
S'Lucie'
p6258
aa(lp6259
S'Lucienne'
p6260
aa(lp6261
S'Lucila'
p6262
aa(lp6263
S'Lucilia'
p6264
aa(lp6265
S'Lucille'
p6266
aa(lp6267
S'Lucina'
p6268
aa(lp6269
S'Lucinda'
p6270
aa(lp6271
S'Lucine'
p6272
aa(lp6273
S'Lucita'
p6274
aa(lp6275
S'Lucky'
p6276
aa(lp6277
S'Lucretia'
p6278
aa(lp6279
S'Lucy'
p6280
aa(lp6281
S'Luella'
p6282
aa(lp6283
S'Luelle'
p6284
aa(lp6285
S'Luisa'
p6286
aa(lp6287
S'Luise'
p6288
aa(lp6289
S'Lula'
p6290
aa(lp6291
S'Lulita'
p6292
aa(lp6293
S'Lulu'
p6294
aa(lp6295
S'Luna'
p6296
aa(lp6297
S'Lura'
p6298
aa(lp6299
S'Lurette'
p6300
aa(lp6301
S'Lurleen'
p6302
aa(lp6303
S'Lurlene'
p6304
aa(lp6305
S'Lurline'
p6306
aa(lp6307
S'Lusa'
p6308
aa(lp6309
S'Lust'
p6310
aa(lp6311
S'Lyda'
p6312
aa(lp6313
S'Lydia'
p6314
aa(lp6315
S'Lydie'
p6316
aa(lp6317
S'Lyn'
p6318
aa(lp6319
S'Lynda'
p6320
aa(lp6321
S'Lynde'
p6322
aa(lp6323
S'Lyndel'
p6324
aa(lp6325
S'Lyndell'
p6326
aa(lp6327
S'Lyndsay'
p6328
aa(lp6329
S'Lyndsey'
p6330
aa(lp6331
S'Lyndsie'
p6332
aa(lp6333
S'Lyndy'
p6334
aa(lp6335
S'Lynea'
p6336
aa(lp6337
S'Lynelle'
p6338
aa(lp6339
S'Lynett'
p6340
aa(lp6341
S'Lynette'
p6342
aa(lp6343
S'Lynn'
p6344
aa(lp6345
S'Lynna'
p6346
aa(lp6347
S'Lynne'
p6348
aa(lp6349
S'Lynnea'
p6350
aa(lp6351
S'Lynnell'
p6352
aa(lp6353
S'Lynnelle'
p6354
aa(lp6355
S'Lynnet'
p6356
aa(lp6357
S'Lynnett'
p6358
aa(lp6359
S'Lynnette'
p6360
aa(lp6361
S'Lynsey'
p6362
aa(lp6363
S'Lysandra'
p6364
aa(lp6365
S'Lyssa'
p6366
aa(lp6367
S'Mab'
p6368
aa(lp6369
S'Mabel'
p6370
aa(lp6371
S'Mabelle'
p6372
aa(lp6373
S'Mable'
p6374
aa(lp6375
S'Mada'
p6376
aa(lp6377
S'Madalena'
p6378
aa(lp6379
S'Madalyn'
p6380
aa(lp6381
S'Maddalena'
p6382
aa(lp6383
S'Maddi'
p6384
aa(lp6385
S'Maddie'
p6386
aa(lp6387
S'Maddy'
p6388
aa(lp6389
S'Madel'
p6390
aa(lp6391
S'Madelaine'
p6392
aa(lp6393
S'Madeleine'
p6394
aa(lp6395
S'Madelena'
p6396
aa(lp6397
S'Madelene'
p6398
aa(lp6399
S'Madelin'
p6400
aa(lp6401
S'Madelina'
p6402
aa(lp6403
S'Madeline'
p6404
aa(lp6405
S'Madella'
p6406
aa(lp6407
S'Madelle'
p6408
aa(lp6409
S'Madelon'
p6410
aa(lp6411
S'Madelyn'
p6412
aa(lp6413
S'Madge'
p6414
aa(lp6415
S'Madlen'
p6416
aa(lp6417
S'Madlin'
p6418
aa(lp6419
S'Madona'
p6420
aa(lp6421
S'Madonna'
p6422
aa(lp6423
S'Mady'
p6424
aa(lp6425
S'Mae'
p6426
aa(lp6427
S'Maegan'
p6428
aa(lp6429
S'Mag'
p6430
aa(lp6431
S'Magda'
p6432
aa(lp6433
S'Magdaia'
p6434
aa(lp6435
S'Magdalen'
p6436
aa(lp6437
S'Magdalena'
p6438
aa(lp6439
S'Magdalene'
p6440
aa(lp6441
S'Maggee'
p6442
aa(lp6443
S'Maggi'
p6444
aa(lp6445
S'Maggie'
p6446
aa(lp6447
S'Maggy'
p6448
aa(lp6449
S'Magna'
p6450
aa(lp6451
S'Mahala'
p6452
aa(lp6453
S'Mahalia'
p6454
aa(lp6455
S'Maia'
p6456
aa(lp6457
S'Maible'
p6458
aa(lp6459
S'Maiga'
p6460
aa(lp6461
S'Mair'
p6462
aa(lp6463
S'Maire'
p6464
aa(lp6465
S'Mairead'
p6466
aa(lp6467
S'Maisey'
p6468
aa(lp6469
S'Maisie'
p6470
aa(lp6471
S'Mala'
p6472
aa(lp6473
S'Malanie'
p6474
aa(lp6475
S'Malcah'
p6476
aa(lp6477
S'Malena'
p6478
aa(lp6479
S'Malia'
p6480
aa(lp6481
S'Malina'
p6482
aa(lp6483
S'Malinda'
p6484
aa(lp6485
S'Malinde'
p6486
aa(lp6487
S'Malissa'
p6488
aa(lp6489
S'Malissia'
p6490
aa(lp6491
S'Malka'
p6492
aa(lp6493
S'Malkah'
p6494
aa(lp6495
S'Mallissa'
p6496
aa(lp6497
S'Mallorie'
p6498
aa(lp6499
S'Mallory'
p6500
aa(lp6501
S'Malorie'
p6502
aa(lp6503
S'Malory'
p6504
aa(lp6505
S'Malva'
p6506
aa(lp6507
S'Malvina'
p6508
aa(lp6509
S'Malynda'
p6510
aa(lp6511
S'Mame'
p6512
aa(lp6513
S'Mamie'
p6514
aa(lp6515
S'Manda'
p6516
aa(lp6517
S'Mandi'
p6518
aa(lp6519
S'Mandie'
p6520
aa(lp6521
S'Mandy'
p6522
aa(lp6523
S'Manon'
p6524
aa(lp6525
S'Manya'
p6526
aa(lp6527
S'Mara'
p6528
aa(lp6529
S'Marabel'
p6530
aa(lp6531
S'Marcela'
p6532
aa(lp6533
S'Marcelia'
p6534
aa(lp6535
S'Marcella'
p6536
aa(lp6537
S'Marcelle'
p6538
aa(lp6539
S'Marcellina'
p6540
aa(lp6541
S'Marcelline'
p6542
aa(lp6543
S'Marchelle'
p6544
aa(lp6545
S'Marci'
p6546
aa(lp6547
S'Marcia'
p6548
aa(lp6549
S'Marcie'
p6550
aa(lp6551
S'Marcile'
p6552
aa(lp6553
S'Marcille'
p6554
aa(lp6555
S'Marcy'
p6556
aa(lp6557
S'Mareah'
p6558
aa(lp6559
S'Maren'
p6560
aa(lp6561
S'Marena'
p6562
aa(lp6563
S'Maressa'
p6564
aa(lp6565
S'Marga'
p6566
aa(lp6567
S'Margalit'
p6568
aa(lp6569
S'Margalo'
p6570
aa(lp6571
S'Margaret'
p6572
aa(lp6573
S'Margareta'
p6574
aa(lp6575
S'Margarete'
p6576
aa(lp6577
S'Margaretha'
p6578
aa(lp6579
S'Margarethe'
p6580
aa(lp6581
S'Margaretta'
p6582
aa(lp6583
S'Margarette'
p6584
aa(lp6585
S'Margarita'
p6586
aa(lp6587
S'Margaux'
p6588
aa(lp6589
S'Marge'
p6590
aa(lp6591
S'Margeaux'
p6592
aa(lp6593
S'Margery'
p6594
aa(lp6595
S'Marget'
p6596
aa(lp6597
S'Margette'
p6598
aa(lp6599
S'Margi'
p6600
aa(lp6601
S'Margie'
p6602
aa(lp6603
S'Margit'
p6604
aa(lp6605
S'Marglerite'
p6606
aa(lp6607
S'Margo'
p6608
aa(lp6609
S'Margot'
p6610
aa(lp6611
S'Margret'
p6612
aa(lp6613
S'Marguerite'
p6614
aa(lp6615
S'Margurite'
p6616
aa(lp6617
S'Margy'
p6618
aa(lp6619
S'Mari'
p6620
aa(lp6621
S'Maria'
p6622
aa(lp6623
S'Mariam'
p6624
aa(lp6625
S'Marian'
p6626
aa(lp6627
S'Mariana'
p6628
aa(lp6629
S'Mariann'
p6630
aa(lp6631
S'Marianna'
p6632
aa(lp6633
S'Marianne'
p6634
aa(lp6635
S'Maribel'
p6636
aa(lp6637
S'Maribelle'
p6638
aa(lp6639
S'Maribeth'
p6640
aa(lp6641
S'Marice'
p6642
aa(lp6643
S'Maridel'
p6644
aa(lp6645
S'Marie'
p6646
aa(lp6647
S'Marie-Ann'
p6648
aa(lp6649
S'Marie-Jeanne'
p6650
aa(lp6651
S'Marieann'
p6652
aa(lp6653
S'Mariejeanne'
p6654
aa(lp6655
S'Mariel'
p6656
aa(lp6657
S'Mariele'
p6658
aa(lp6659
S'Marielle'
p6660
aa(lp6661
S'Mariellen'
p6662
aa(lp6663
S'Marietta'
p6664
aa(lp6665
S'Mariette'
p6666
aa(lp6667
S'Marigold'
p6668
aa(lp6669
S'Marijo'
p6670
aa(lp6671
S'Marika'
p6672
aa(lp6673
S'Marilee'
p6674
aa(lp6675
S'Marilin'
p6676
aa(lp6677
S'Marillin'
p6678
aa(lp6679
S'Marilyn'
p6680
aa(lp6681
S'Marin'
p6682
aa(lp6683
S'Marina'
p6684
aa(lp6685
S'Marinna'
p6686
aa(lp6687
S'Marion'
p6688
aa(lp6689
S'Mariquilla'
p6690
aa(lp6691
S'Maris'
p6692
aa(lp6693
S'Marisa'
p6694
aa(lp6695
S'Mariska'
p6696
aa(lp6697
S'Marissa'
p6698
aa(lp6699
S'Marit'
p6700
aa(lp6701
S'Marita'
p6702
aa(lp6703
S'Maritsa'
p6704
aa(lp6705
S'Mariya'
p6706
aa(lp6707
S'Marj'
p6708
aa(lp6709
S'Marja'
p6710
aa(lp6711
S'Marje'
p6712
aa(lp6713
S'Marji'
p6714
aa(lp6715
S'Marjie'
p6716
aa(lp6717
S'Marjorie'
p6718
aa(lp6719
S'Marjory'
p6720
aa(lp6721
S'Marjy'
p6722
aa(lp6723
S'Marketa'
p6724
aa(lp6725
S'Marla'
p6726
aa(lp6727
S'Marlane'
p6728
aa(lp6729
S'Marleah'
p6730
aa(lp6731
S'Marlee'
p6732
aa(lp6733
S'Marleen'
p6734
aa(lp6735
S'Marlena'
p6736
aa(lp6737
S'Marlene'
p6738
aa(lp6739
S'Marley'
p6740
aa(lp6741
S'Marlie'
p6742
aa(lp6743
S'Marline'
p6744
aa(lp6745
S'Marlo'
p6746
aa(lp6747
S'Marlyn'
p6748
aa(lp6749
S'Marna'
p6750
aa(lp6751
S'Marne'
p6752
aa(lp6753
S'Marney'
p6754
aa(lp6755
S'Marni'
p6756
aa(lp6757
S'Marnia'
p6758
aa(lp6759
S'Marnie'
p6760
aa(lp6761
S'Marquita'
p6762
aa(lp6763
S'Marrilee'
p6764
aa(lp6765
S'Marris'
p6766
aa(lp6767
S'Marrissa'
p6768
aa(lp6769
S'Marry'
p6770
aa(lp6771
S'Marsha'
p6772
aa(lp6773
S'Marsiella'
p6774
aa(lp6775
S'Marta'
p6776
aa(lp6777
S'Martelle'
p6778
aa(lp6779
S'Martguerita'
p6780
aa(lp6781
S'Martha'
p6782
aa(lp6783
S'Marthe'
p6784
aa(lp6785
S'Marthena'
p6786
aa(lp6787
S'Marti'
p6788
aa(lp6789
S'Martica'
p6790
aa(lp6791
S'Martie'
p6792
aa(lp6793
S'Martina'
p6794
aa(lp6795
S'Martita'
p6796
aa(lp6797
S'Marty'
p6798
aa(lp6799
S'Martynne'
p6800
aa(lp6801
S'Mary'
p6802
aa(lp6803
S'Marya'
p6804
aa(lp6805
S'Maryangelyn'
p6806
aa(lp6807
S'Maryann'
p6808
aa(lp6809
S'Maryanna'
p6810
aa(lp6811
S'Maryanne'
p6812
aa(lp6813
S'Marybelle'
p6814
aa(lp6815
S'Marybeth'
p6816
aa(lp6817
S'Maryellen'
p6818
aa(lp6819
S'Maryjane'
p6820
aa(lp6821
S'Maryjo'
p6822
aa(lp6823
S'Maryl'
p6824
aa(lp6825
S'Marylee'
p6826
aa(lp6827
S'Marylin'
p6828
aa(lp6829
S'Marylinda'
p6830
aa(lp6831
S'Marylou'
p6832
aa(lp6833
S'Marylynne'
p6834
aa(lp6835
S'Maryrose'
p6836
aa(lp6837
S'Marys'
p6838
aa(lp6839
S'Marysa'
p6840
aa(lp6841
S'Masha'
p6842
aa(lp6843
S'Matelda'
p6844
aa(lp6845
S'Mathilda'
p6846
aa(lp6847
S'Mathilde'
p6848
aa(lp6849
S'Matilda'
p6850
aa(lp6851
S'Matilde'
p6852
aa(lp6853
S'Matti'
p6854
aa(lp6855
S'Mattie'
p6856
aa(lp6857
S'Matty'
p6858
aa(lp6859
S'Maud'
p6860
aa(lp6861
S'Maude'
p6862
aa(lp6863
S'Maudie'
p6864
aa(lp6865
S'Maura'
p6866
aa(lp6867
S'Maure'
p6868
aa(lp6869
S'Maureen'
p6870
aa(lp6871
S'Maureene'
p6872
aa(lp6873
S'Maurene'
p6874
aa(lp6875
S'Maurine'
p6876
aa(lp6877
S'Maurise'
p6878
aa(lp6879
S'Maurita'
p6880
aa(lp6881
S'Mavis'
p6882
aa(lp6883
S'Mavra'
p6884
aa(lp6885
S'Max'
p6886
aa(lp6887
S'Maxi'
p6888
aa(lp6889
S'Maxie'
p6890
aa(lp6891
S'Maxine'
p6892
aa(lp6893
S'Maxy'
p6894
aa(lp6895
S'May'
p6896
aa(lp6897
S'Maya'
p6898
aa(lp6899
S'Maybelle'
p6900
aa(lp6901
S'Mayda'
p6902
aa(lp6903
S'Maye'
p6904
aa(lp6905
S'Mead'
p6906
aa(lp6907
S'Meade'
p6908
aa(lp6909
S'Meagan'
p6910
aa(lp6911
S'Meaghan'
p6912
aa(lp6913
S'Meara'
p6914
aa(lp6915
S'Mechelle'
p6916
aa(lp6917
S'Meg'
p6918
aa(lp6919
S'Megan'
p6920
aa(lp6921
S'Megen'
p6922
aa(lp6923
S'Meggan'
p6924
aa(lp6925
S'Meggi'
p6926
aa(lp6927
S'Meggie'
p6928
aa(lp6929
S'Meggy'
p6930
aa(lp6931
S'Meghan'
p6932
aa(lp6933
S'Meghann'
p6934
aa(lp6935
S'Mehetabel'
p6936
aa(lp6937
S'Mei'
p6938
aa(lp6939
S'Meira'
p6940
aa(lp6941
S'Mel'
p6942
aa(lp6943
S'Mela'
p6944
aa(lp6945
S'Melamie'
p6946
aa(lp6947
S'Melania'
p6948
aa(lp6949
S'Melanie'
p6950
aa(lp6951
S'Melantha'
p6952
aa(lp6953
S'Melany'
p6954
aa(lp6955
S'Melba'
p6956
aa(lp6957
S'Melesa'
p6958
aa(lp6959
S'Melessa'
p6960
aa(lp6961
S'Melicent'
p6962
aa(lp6963
S'Melina'
p6964
aa(lp6965
S'Melinda'
p6966
aa(lp6967
S'Melinde'
p6968
aa(lp6969
S'Melisa'
p6970
aa(lp6971
S'Melisande'
p6972
aa(lp6973
S'Melisandra'
p6974
aa(lp6975
S'Melisenda'
p6976
aa(lp6977
S'Melisent'
p6978
aa(lp6979
S'Melissa'
p6980
aa(lp6981
S'Melisse'
p6982
aa(lp6983
S'Melita'
p6984
aa(lp6985
S'Melitta'
p6986
aa(lp6987
S'Mella'
p6988
aa(lp6989
S'Melli'
p6990
aa(lp6991
S'Mellicent'
p6992
aa(lp6993
S'Mellie'
p6994
aa(lp6995
S'Mellisa'
p6996
aa(lp6997
S'Mellisent'
p6998
aa(lp6999
S'Mellissa'
p7000
aa(lp7001
S'Melloney'
p7002
aa(lp7003
S'Melly'
p7004
aa(lp7005
S'Melodee'
p7006
aa(lp7007
S'Melodie'
p7008
aa(lp7009
S'Melody'
p7010
aa(lp7011
S'Melonie'
p7012
aa(lp7013
S'Melony'
p7014
aa(lp7015
S'Melosa'
p7016
aa(lp7017
S'Melva'
p7018
aa(lp7019
S'Mercedes'
p7020
aa(lp7021
S'Merci'
p7022
aa(lp7023
S'Mercie'
p7024
aa(lp7025
S'Mercy'
p7026
aa(lp7027
S'Meredith'
p7028
aa(lp7029
S'Meredithe'
p7030
aa(lp7031
S'Meridel'
p7032
aa(lp7033
S'Meridith'
p7034
aa(lp7035
S'Meriel'
p7036
aa(lp7037
S'Merilee'
p7038
aa(lp7039
S'Merilyn'
p7040
aa(lp7041
S'Meris'
p7042
aa(lp7043
S'Merissa'
p7044
aa(lp7045
S'Merl'
p7046
aa(lp7047
S'Merla'
p7048
aa(lp7049
S'Merle'
p7050
aa(lp7051
S'Merlina'
p7052
aa(lp7053
S'Merline'
p7054
aa(lp7055
S'Merna'
p7056
aa(lp7057
S'Merola'
p7058
aa(lp7059
S'Merralee'
p7060
aa(lp7061
S'Merridie'
p7062
aa(lp7063
S'Merrie'
p7064
aa(lp7065
S'Merrielle'
p7066
aa(lp7067
S'Merrile'
p7068
aa(lp7069
S'Merrilee'
p7070
aa(lp7071
S'Merrili'
p7072
aa(lp7073
S'Merrill'
p7074
aa(lp7075
S'Merrily'
p7076
aa(lp7077
S'Merry'
p7078
aa(lp7079
S'Mersey'
p7080
aa(lp7081
S'Meryl'
p7082
aa(lp7083
S'Meta'
p7084
aa(lp7085
S'Mia'
p7086
aa(lp7087
S'Micaela'
p7088
aa(lp7089
S'Michaela'
p7090
aa(lp7091
S'Michaelina'
p7092
aa(lp7093
S'Michaeline'
p7094
aa(lp7095
S'Michaella'
p7096
aa(lp7097
S'Michal'
p7098
aa(lp7099
S'Michel'
p7100
aa(lp7101
S'Michele'
p7102
aa(lp7103
S'Michelina'
p7104
aa(lp7105
S'Micheline'
p7106
aa(lp7107
S'Michell'
p7108
aa(lp7109
S'Michelle'
p7110
aa(lp7111
S'Micki'
p7112
aa(lp7113
S'Mickie'
p7114
aa(lp7115
S'Micky'
p7116
aa(lp7117
S'Midge'
p7118
aa(lp7119
S'Mignon'
p7120
aa(lp7121
S'Mignonne'
p7122
aa(lp7123
S'Miguela'
p7124
aa(lp7125
S'Miguelita'
p7126
aa(lp7127
S'Mikako'
p7128
aa(lp7129
S'Mildred'
p7130
aa(lp7131
S'Mildrid'
p7132
aa(lp7133
S'Milena'
p7134
aa(lp7135
S'Milicent'
p7136
aa(lp7137
S'Milissent'
p7138
aa(lp7139
S'Milka'
p7140
aa(lp7141
S'Milli'
p7142
aa(lp7143
S'Millicent'
p7144
aa(lp7145
S'Millie'
p7146
aa(lp7147
S'Millisent'
p7148
aa(lp7149
S'Milly'
p7150
aa(lp7151
S'Milzie'
p7152
aa(lp7153
S'Mimi'
p7154
aa(lp7155
S'Min'
p7156
aa(lp7157
S'Mina'
p7158
aa(lp7159
S'Minda'
p7160
aa(lp7161
S'Mindy'
p7162
aa(lp7163
S'Minerva'
p7164
aa(lp7165
S'Minetta'
p7166
aa(lp7167
S'Minette'
p7168
aa(lp7169
S'Minna'
p7170
aa(lp7171
S'Minni'
p7172
aa(lp7173
S'Minnie'
p7174
aa(lp7175
S'Minny'
p7176
aa(lp7177
S'Minta'
p7178
aa(lp7179
S'Miquela'
p7180
aa(lp7181
S'Mira'
p7182
aa(lp7183
S'Mirabel'
p7184
aa(lp7185
S'Mirabella'
p7186
aa(lp7187
S'Mirabelle'
p7188
aa(lp7189
S'Miran'
p7190
aa(lp7191
S'Miranda'
p7192
aa(lp7193
S'Mireielle'
p7194
aa(lp7195
S'Mireille'
p7196
aa(lp7197
S'Mirella'
p7198
aa(lp7199
S'Mirelle'
p7200
aa(lp7201
S'Miriam'
p7202
aa(lp7203
S'Mirilla'
p7204
aa(lp7205
S'Mirna'
p7206
aa(lp7207
S'Misha'
p7208
aa(lp7209
S'Missie'
p7210
aa(lp7211
S'Missy'
p7212
aa(lp7213
S'Misti'
p7214
aa(lp7215
S'Misty'
p7216
aa(lp7217
S'Mitra'
p7218
aa(lp7219
S'Mitzi'
p7220
aa(lp7221
S'Mmarianne'
p7222
aa(lp7223
S'Modesta'
p7224
aa(lp7225
S'Modestia'
p7226
aa(lp7227
S'Modestine'
p7228
aa(lp7229
S'Modesty'
p7230
aa(lp7231
S'Moina'
p7232
aa(lp7233
S'Moira'
p7234
aa(lp7235
S'Moll'
p7236
aa(lp7237
S'Mollee'
p7238
aa(lp7239
S'Molli'
p7240
aa(lp7241
S'Mollie'
p7242
aa(lp7243
S'Molly'
p7244
aa(lp7245
S'Mommy'
p7246
aa(lp7247
S'Mona'
p7248
aa(lp7249
S'Monah'
p7250
aa(lp7251
S'Monica'
p7252
aa(lp7253
S'Monika'
p7254
aa(lp7255
S'Monique'
p7256
aa(lp7257
S'Mora'
p7258
aa(lp7259
S'Moreen'
p7260
aa(lp7261
S'Morena'
p7262
aa(lp7263
S'Morgan'
p7264
aa(lp7265
S'Morgana'
p7266
aa(lp7267
S'Morganica'
p7268
aa(lp7269
S'Morganne'
p7270
aa(lp7271
S'Morgen'
p7272
aa(lp7273
S'Moria'
p7274
aa(lp7275
S'Morissa'
p7276
aa(lp7277
S'Morlee'
p7278
aa(lp7279
S'Morna'
p7280
aa(lp7281
S'Moselle'
p7282
aa(lp7283
S'Moya'
p7284
aa(lp7285
S'Moyna'
p7286
aa(lp7287
S'Moyra'
p7288
aa(lp7289
S'Mozelle'
p7290
aa(lp7291
S'Muffin'
p7292
aa(lp7293
S'Mufi'
p7294
aa(lp7295
S'Mufinella'
p7296
aa(lp7297
S'Muire'
p7298
aa(lp7299
S'Mureil'
p7300
aa(lp7301
S'Murial'
p7302
aa(lp7303
S'Muriel'
p7304
aa(lp7305
S'Murielle'
p7306
aa(lp7307
S'Myna'
p7308
aa(lp7309
S'Myra'
p7310
aa(lp7311
S'Myrah'
p7312
aa(lp7313
S'Myranda'
p7314
aa(lp7315
S'Myriam'
p7316
aa(lp7317
S'Myrilla'
p7318
aa(lp7319
S'Myrle'
p7320
aa(lp7321
S'Myrlene'
p7322
aa(lp7323
S'Myrna'
p7324
aa(lp7325
S'Myrta'
p7326
aa(lp7327
S'Myrtia'
p7328
aa(lp7329
S'Myrtice'
p7330
aa(lp7331
S'Myrtie'
p7332
aa(lp7333
S'Myrtle'
p7334
aa(lp7335
S'Nada'
p7336
aa(lp7337
S'Nadean'
p7338
aa(lp7339
S'Nadeen'
p7340
aa(lp7341
S'Nadia'
p7342
aa(lp7343
S'Nadine'
p7344
aa(lp7345
S'Nadiya'
p7346
aa(lp7347
S'Nady'
p7348
aa(lp7349
S'Nadya'
p7350
aa(lp7351
S'Nalani'
p7352
aa(lp7353
S'Nan'
p7354
aa(lp7355
S'Nana'
p7356
aa(lp7357
S'Nananne'
p7358
aa(lp7359
S'Nance'
p7360
aa(lp7361
S'Nancee'
p7362
aa(lp7363
S'Nancey'
p7364
aa(lp7365
S'Nanci'
p7366
aa(lp7367
S'Nancie'
p7368
aa(lp7369
S'Nancy'
p7370
aa(lp7371
S'Nanete'
p7372
aa(lp7373
S'Nanette'
p7374
aa(lp7375
S'Nani'
p7376
aa(lp7377
S'Nanice'
p7378
aa(lp7379
S'Nanine'
p7380
aa(lp7381
S'Nannette'
p7382
aa(lp7383
S'Nanni'
p7384
aa(lp7385
S'Nannie'
p7386
aa(lp7387
S'Nanny'
p7388
aa(lp7389
S'Nanon'
p7390
aa(lp7391
S'Naoma'
p7392
aa(lp7393
S'Naomi'
p7394
aa(lp7395
S'Nara'
p7396
aa(lp7397
S'Nari'
p7398
aa(lp7399
S'Nariko'
p7400
aa(lp7401
S'Nat'
p7402
aa(lp7403
S'Nata'
p7404
aa(lp7405
S'Natala'
p7406
aa(lp7407
S'Natalee'
p7408
aa(lp7409
S'Natalia'
p7410
aa(lp7411
S'Natalie'
p7412
aa(lp7413
S'Natalina'
p7414
aa(lp7415
S'Nataline'
p7416
aa(lp7417
S'Natalya'
p7418
aa(lp7419
S'Natasha'
p7420
aa(lp7421
S'Natassia'
p7422
aa(lp7423
S'Nathalia'
p7424
aa(lp7425
S'Nathalie'
p7426
aa(lp7427
S'Natka'
p7428
aa(lp7429
S'Natty'
p7430
aa(lp7431
S'Neala'
p7432
aa(lp7433
S'Neda'
p7434
aa(lp7435
S'Nedda'
p7436
aa(lp7437
S'Nedi'
p7438
aa(lp7439
S'Neely'
p7440
aa(lp7441
S'Neila'
p7442
aa(lp7443
S'Neile'
p7444
aa(lp7445
S'Neilla'
p7446
aa(lp7447
S'Neille'
p7448
aa(lp7449
S'Nela'
p7450
aa(lp7451
S'Nelia'
p7452
aa(lp7453
S'Nelie'
p7454
aa(lp7455
S'Nell'
p7456
aa(lp7457
S'Nelle'
p7458
aa(lp7459
S'Nelli'
p7460
aa(lp7461
S'Nellie'
p7462
aa(lp7463
S'Nelly'
p7464
aa(lp7465
S'Nena'
p7466
aa(lp7467
S'Nerissa'
p7468
aa(lp7469
S'Nerita'
p7470
aa(lp7471
S'Nert'
p7472
aa(lp7473
S'Nerta'
p7474
aa(lp7475
S'Nerte'
p7476
aa(lp7477
S'Nerti'
p7478
aa(lp7479
S'Nertie'
p7480
aa(lp7481
S'Nerty'
p7482
aa(lp7483
S'Nessa'
p7484
aa(lp7485
S'Nessi'
p7486
aa(lp7487
S'Nessie'
p7488
aa(lp7489
S'Nessy'
p7490
aa(lp7491
S'Nesta'
p7492
aa(lp7493
S'Netta'
p7494
aa(lp7495
S'Netti'
p7496
aa(lp7497
S'Nettie'
p7498
aa(lp7499
S'Nettle'
p7500
aa(lp7501
S'Netty'
p7502
aa(lp7503
S'Nevsa'
p7504
aa(lp7505
S'Neysa'
p7506
aa(lp7507
S'Nichol'
p7508
aa(lp7509
S'Nichole'
p7510
aa(lp7511
S'Nicholle'
p7512
aa(lp7513
S'Nicki'
p7514
aa(lp7515
S'Nickie'
p7516
aa(lp7517
S'Nicky'
p7518
aa(lp7519
S'Nicol'
p7520
aa(lp7521
S'Nicola'
p7522
aa(lp7523
S'Nicole'
p7524
aa(lp7525
S'Nicolea'
p7526
aa(lp7527
S'Nicolette'
p7528
aa(lp7529
S'Nicoli'
p7530
aa(lp7531
S'Nicolina'
p7532
aa(lp7533
S'Nicoline'
p7534
aa(lp7535
S'Nicolle'
p7536
aa(lp7537
S'Nidia'
p7538
aa(lp7539
S'Nike'
p7540
aa(lp7541
S'Niki'
p7542
aa(lp7543
S'Nikki'
p7544
aa(lp7545
S'Nikkie'
p7546
aa(lp7547
S'Nikoletta'
p7548
aa(lp7549
S'Nikolia'
p7550
aa(lp7551
S'Nil'
p7552
aa(lp7553
S'Nina'
p7554
aa(lp7555
S'Ninetta'
p7556
aa(lp7557
S'Ninette'
p7558
aa(lp7559
S'Ninnetta'
p7560
aa(lp7561
S'Ninnette'
p7562
aa(lp7563
S'Ninon'
p7564
aa(lp7565
S'Nisa'
p7566
aa(lp7567
S'Nissa'
p7568
aa(lp7569
S'Nisse'
p7570
aa(lp7571
S'Nissie'
p7572
aa(lp7573
S'Nissy'
p7574
aa(lp7575
S'Nita'
p7576
aa(lp7577
S'Nitin'
p7578
aa(lp7579
S'Nixie'
p7580
aa(lp7581
S'Noami'
p7582
aa(lp7583
S'Noel'
p7584
aa(lp7585
S'Noelani'
p7586
aa(lp7587
S'Noell'
p7588
aa(lp7589
S'Noella'
p7590
aa(lp7591
S'Noelle'
p7592
aa(lp7593
S'Noellyn'
p7594
aa(lp7595
S'Noelyn'
p7596
aa(lp7597
S'Noemi'
p7598
aa(lp7599
S'Nola'
p7600
aa(lp7601
S'Nolana'
p7602
aa(lp7603
S'Nolie'
p7604
aa(lp7605
S'Nollie'
p7606
aa(lp7607
S'Nomi'
p7608
aa(lp7609
S'Nona'
p7610
aa(lp7611
S'Nonah'
p7612
aa(lp7613
S'Noni'
p7614
aa(lp7615
S'Nonie'
p7616
aa(lp7617
S'Nonna'
p7618
aa(lp7619
S'Nonnah'
p7620
aa(lp7621
S'Nora'
p7622
aa(lp7623
S'Norah'
p7624
aa(lp7625
S'Norean'
p7626
aa(lp7627
S'Noreen'
p7628
aa(lp7629
S'Norene'
p7630
aa(lp7631
S'Norina'
p7632
aa(lp7633
S'Norine'
p7634
aa(lp7635
S'Norma'
p7636
aa(lp7637
S'Norri'
p7638
aa(lp7639
S'Norrie'
p7640
aa(lp7641
S'Norry'
p7642
aa(lp7643
S'Nova'
p7644
aa(lp7645
S'Novelia'
p7646
aa(lp7647
S'Nydia'
p7648
aa(lp7649
S'Nyssa'
p7650
aa(lp7651
S'Octavia'
p7652
aa(lp7653
S'Odele'
p7654
aa(lp7655
S'Odelia'
p7656
aa(lp7657
S'Odelinda'
p7658
aa(lp7659
S'Odella'
p7660
aa(lp7661
S'Odelle'
p7662
aa(lp7663
S'Odessa'
p7664
aa(lp7665
S'Odetta'
p7666
aa(lp7667
S'Odette'
p7668
aa(lp7669
S'Odilia'
p7670
aa(lp7671
S'Odille'
p7672
aa(lp7673
S'Ofelia'
p7674
aa(lp7675
S'Ofella'
p7676
aa(lp7677
S'Ofilia'
p7678
aa(lp7679
S'Ola'
p7680
aa(lp7681
S'Olenka'
p7682
aa(lp7683
S'Olga'
p7684
aa(lp7685
S'Olia'
p7686
aa(lp7687
S'Olimpia'
p7688
aa(lp7689
S'Olive'
p7690
aa(lp7691
S'Olivette'
p7692
aa(lp7693
S'Olivia'
p7694
aa(lp7695
S'Olivie'
p7696
aa(lp7697
S'Oliy'
p7698
aa(lp7699
S'Ollie'
p7700
aa(lp7701
S'Olly'
p7702
aa(lp7703
S'Olva'
p7704
aa(lp7705
S'Olwen'
p7706
aa(lp7707
S'Olympe'
p7708
aa(lp7709
S'Olympia'
p7710
aa(lp7711
S'Olympie'
p7712
aa(lp7713
S'Ondrea'
p7714
aa(lp7715
S'Oneida'
p7716
aa(lp7717
S'Onida'
p7718
aa(lp7719
S'Onlea'
p7720
aa(lp7721
S'Oona'
p7722
aa(lp7723
S'Opal'
p7724
aa(lp7725
S'Opalina'
p7726
aa(lp7727
S'Opaline'
p7728
aa(lp7729
S'Ophelia'
p7730
aa(lp7731
S'Ophelie'
p7732
aa(lp7733
S'Oprah'
p7734
aa(lp7735
S'Ora'
p7736
aa(lp7737
S'Oralee'
p7738
aa(lp7739
S'Oralia'
p7740
aa(lp7741
S'Oralie'
p7742
aa(lp7743
S'Oralla'
p7744
aa(lp7745
S'Oralle'
p7746
aa(lp7747
S'Orel'
p7748
aa(lp7749
S'Orelee'
p7750
aa(lp7751
S'Orelia'
p7752
aa(lp7753
S'Orelie'
p7754
aa(lp7755
S'Orella'
p7756
aa(lp7757
S'Orelle'
p7758
aa(lp7759
S'Oreste'
p7760
aa(lp7761
S'Oriana'
p7762
aa(lp7763
S'Orly'
p7764
aa(lp7765
S'Orsa'
p7766
aa(lp7767
S'Orsola'
p7768
aa(lp7769
S'Ortensia'
p7770
aa(lp7771
S'Otha'
p7772
aa(lp7773
S'Othelia'
p7774
aa(lp7775
S'Othella'
p7776
aa(lp7777
S'Othilia'
p7778
aa(lp7779
S'Othilie'
p7780
aa(lp7781
S'Ottilie'
p7782
aa(lp7783
S'Pacifica'
p7784
aa(lp7785
S'Page'
p7786
aa(lp7787
S'Paige'
p7788
aa(lp7789
S'Paloma'
p7790
aa(lp7791
S'Pam'
p7792
aa(lp7793
S'Pamela'
p7794
aa(lp7795
S'Pamelina'
p7796
aa(lp7797
S'Pamella'
p7798
aa(lp7799
S'Pammi'
p7800
aa(lp7801
S'Pammie'
p7802
aa(lp7803
S'Pammy'
p7804
aa(lp7805
S'Pandora'
p7806
aa(lp7807
S'Pansie'
p7808
aa(lp7809
S'Pansy'
p7810
aa(lp7811
S'Paola'
p7812
aa(lp7813
S'Paolina'
p7814
aa(lp7815
S'Parwane'
p7816
aa(lp7817
S'Pat'
p7818
aa(lp7819
S'Patience'
p7820
aa(lp7821
S'Patrica'
p7822
aa(lp7823
S'Patrice'
p7824
aa(lp7825
S'Patricia'
p7826
aa(lp7827
S'Patrizia'
p7828
aa(lp7829
S'Patsy'
p7830
aa(lp7831
S'Patti'
p7832
aa(lp7833
S'Pattie'
p7834
aa(lp7835
S'Patty'
p7836
aa(lp7837
S'Paula'
p7838
aa(lp7839
S'Paula-Grace'
p7840
aa(lp7841
S'Paule'
p7842
aa(lp7843
S'Pauletta'
p7844
aa(lp7845
S'Paulette'
p7846
aa(lp7847
S'Pauli'
p7848
aa(lp7849
S'Paulie'
p7850
aa(lp7851
S'Paulina'
p7852
aa(lp7853
S'Pauline'
p7854
aa(lp7855
S'Paulita'
p7856
aa(lp7857
S'Pauly'
p7858
aa(lp7859
S'Pavia'
p7860
aa(lp7861
S'Pavla'
p7862
aa(lp7863
S'Pearl'
p7864
aa(lp7865
S'Pearla'
p7866
aa(lp7867
S'Pearle'
p7868
aa(lp7869
S'Pearline'
p7870
aa(lp7871
S'Peg'
p7872
aa(lp7873
S'Pegeen'
p7874
aa(lp7875
S'Peggi'
p7876
aa(lp7877
S'Peggie'
p7878
aa(lp7879
S'Peggy'
p7880
aa(lp7881
S'Pen'
p7882
aa(lp7883
S'Penelopa'
p7884
aa(lp7885
S'Penelope'
p7886
aa(lp7887
S'Penni'
p7888
aa(lp7889
S'Pennie'
p7890
aa(lp7891
S'Penny'
p7892
aa(lp7893
S'Pepi'
p7894
aa(lp7895
S'Pepita'
p7896
aa(lp7897
S'Peri'
p7898
aa(lp7899
S'Peria'
p7900
aa(lp7901
S'Perl'
p7902
aa(lp7903
S'Perla'
p7904
aa(lp7905
S'Perle'
p7906
aa(lp7907
S'Perri'
p7908
aa(lp7909
S'Perrine'
p7910
aa(lp7911
S'Perry'
p7912
aa(lp7913
S'Persis'
p7914
aa(lp7915
S'Pet'
p7916
aa(lp7917
S'Peta'
p7918
aa(lp7919
S'Petra'
p7920
aa(lp7921
S'Petrina'
p7922
aa(lp7923
S'Petronella'
p7924
aa(lp7925
S'Petronia'
p7926
aa(lp7927
S'Petronilla'
p7928
aa(lp7929
S'Petronille'
p7930
aa(lp7931
S'Petunia'
p7932
aa(lp7933
S'Phaedra'
p7934
aa(lp7935
S'Phaidra'
p7936
aa(lp7937
S'Phebe'
p7938
aa(lp7939
S'Phedra'
p7940
aa(lp7941
S'Phelia'
p7942
aa(lp7943
S'Phil'
p7944
aa(lp7945
S'Philipa'
p7946
aa(lp7947
S'Philippa'
p7948
aa(lp7949
S'Philippe'
p7950
aa(lp7951
S'Philippine'
p7952
aa(lp7953
S'Philis'
p7954
aa(lp7955
S'Phillida'
p7956
aa(lp7957
S'Phillie'
p7958
aa(lp7959
S'Phillis'
p7960
aa(lp7961
S'Philly'
p7962
aa(lp7963
S'Philomena'
p7964
aa(lp7965
S'Phoebe'
p7966
aa(lp7967
S'Phylis'
p7968
aa(lp7969
S'Phyllida'
p7970
aa(lp7971
S'Phyllis'
p7972
aa(lp7973
S'Phyllys'
p7974
aa(lp7975
S'Phylys'
p7976
aa(lp7977
S'Pia'
p7978
aa(lp7979
S'Pier'
p7980
aa(lp7981
S'Pierette'
p7982
aa(lp7983
S'Pierrette'
p7984
aa(lp7985
S'Pietra'
p7986
aa(lp7987
S'Piper'
p7988
aa(lp7989
S'Pippa'
p7990
aa(lp7991
S'Pippy'
p7992
aa(lp7993
S'Polly'
p7994
aa(lp7995
S'Pollyanna'
p7996
aa(lp7997
S'Pooh'
p7998
aa(lp7999
S'Poppy'
p8000
aa(lp8001
S'Portia'
p8002
aa(lp8003
S'Pris'
p8004
aa(lp8005
S'Prisca'
p8006
aa(lp8007
S'Priscella'
p8008
aa(lp8009
S'Priscilla'
p8010
aa(lp8011
S'Prissie'
p8012
aa(lp8013
S'Pru'
p8014
aa(lp8015
S'Prudence'
p8016
aa(lp8017
S'Prudi'
p8018
aa(lp8019
S'Prudy'
p8020
aa(lp8021
S'Prue'
p8022
aa(lp8023
S'Prunella'
p8024
aa(lp8025
S'Queada'
p8026
aa(lp8027
S'Queenie'
p8028
aa(lp8029
S'Quentin'
p8030
aa(lp8031
S'Querida'
p8032
aa(lp8033
S'Quinn'
p8034
aa(lp8035
S'Quinta'
p8036
aa(lp8037
S'Quintana'
p8038
aa(lp8039
S'Quintilla'
p8040
aa(lp8041
S'Quintina'
p8042
aa(lp8043
S'Rachael'
p8044
aa(lp8045
S'Rachel'
p8046
aa(lp8047
S'Rachele'
p8048
aa(lp8049
S'Rachelle'
p8050
aa(lp8051
S'Rae'
p8052
aa(lp8053
S'Raf'
p8054
aa(lp8055
S'Rafa'
p8056
aa(lp8057
S'Rafaela'
p8058
aa(lp8059
S'Rafaelia'
p8060
aa(lp8061
S'Rafaelita'
p8062
aa(lp8063
S'Ragnhild'
p8064
aa(lp8065
S'Rahal'
p8066
aa(lp8067
S'Rahel'
p8068
aa(lp8069
S'Raina'
p8070
aa(lp8071
S'Raine'
p8072
aa(lp8073
S'Rakel'
p8074
aa(lp8075
S'Ralina'
p8076
aa(lp8077
S'Ramona'
p8078
aa(lp8079
S'Ramonda'
p8080
aa(lp8081
S'Rana'
p8082
aa(lp8083
S'Randa'
p8084
aa(lp8085
S'Randee'
p8086
aa(lp8087
S'Randene'
p8088
aa(lp8089
S'Randi'
p8090
aa(lp8091
S'Randie'
p8092
aa(lp8093
S'Randy'
p8094
aa(lp8095
S'Ranee'
p8096
aa(lp8097
S'Rani'
p8098
aa(lp8099
S'Rania'
p8100
aa(lp8101
S'Ranice'
p8102
aa(lp8103
S'Ranique'
p8104
aa(lp8105
S'Ranna'
p8106
aa(lp8107
S'Raphaela'
p8108
aa(lp8109
S'Raquel'
p8110
aa(lp8111
S'Raquela'
p8112
aa(lp8113
S'Rasia'
p8114
aa(lp8115
S'Rasla'
p8116
aa(lp8117
S'Raven'
p8118
aa(lp8119
S'Ray'
p8120
aa(lp8121
S'Raychel'
p8122
aa(lp8123
S'Raye'
p8124
aa(lp8125
S'Rayna'
p8126
aa(lp8127
S'Raynell'
p8128
aa(lp8129
S'Rayshell'
p8130
aa(lp8131
S'Rea'
p8132
aa(lp8133
S'Reba'
p8134
aa(lp8135
S'Rebbecca'
p8136
aa(lp8137
S'Rebe'
p8138
aa(lp8139
S'Rebeca'
p8140
aa(lp8141
S'Rebecca'
p8142
aa(lp8143
S'Rebecka'
p8144
aa(lp8145
S'Rebeka'
p8146
aa(lp8147
S'Rebekah'
p8148
aa(lp8149
S'Rebekkah'
p8150
aa(lp8151
S'Ree'
p8152
aa(lp8153
S'Reeba'
p8154
aa(lp8155
S'Reena'
p8156
aa(lp8157
S'Reeta'
p8158
aa(lp8159
S'Reeva'
p8160
aa(lp8161
S'Regan'
p8162
aa(lp8163
S'Reggi'
p8164
aa(lp8165
S'Reggie'
p8166
aa(lp8167
S'Regina'
p8168
aa(lp8169
S'Regine'
p8170
aa(lp8171
S'Reiko'
p8172
aa(lp8173
S'Reina'
p8174
aa(lp8175
S'Reine'
p8176
aa(lp8177
S'Remy'
p8178
aa(lp8179
S'Rena'
p8180
aa(lp8181
S'Renae'
p8182
aa(lp8183
S'Renata'
p8184
aa(lp8185
S'Renate'
p8186
aa(lp8187
S'Rene'
p8188
aa(lp8189
S'Renee'
p8190
aa(lp8191
S'Renel'
p8192
aa(lp8193
S'Renell'
p8194
aa(lp8195
S'Renelle'
p8196
aa(lp8197
S'Renie'
p8198
aa(lp8199
S'Rennie'
p8200
aa(lp8201
S'Reta'
p8202
aa(lp8203
S'Retha'
p8204
aa(lp8205
S'Revkah'
p8206
aa(lp8207
S'Rey'
p8208
aa(lp8209
S'Reyna'
p8210
aa(lp8211
S'Rhea'
p8212
aa(lp8213
S'Rheba'
p8214
aa(lp8215
S'Rheta'
p8216
aa(lp8217
S'Rhetta'
p8218
aa(lp8219
S'Rhiamon'
p8220
aa(lp8221
S'Rhianna'
p8222
aa(lp8223
S'Rhianon'
p8224
aa(lp8225
S'Rhoda'
p8226
aa(lp8227
S'Rhodia'
p8228
aa(lp8229
S'Rhodie'
p8230
aa(lp8231
S'Rhody'
p8232
aa(lp8233
S'Rhona'
p8234
aa(lp8235
S'Rhonda'
p8236
aa(lp8237
S'Riane'
p8238
aa(lp8239
S'Riannon'
p8240
aa(lp8241
S'Rianon'
p8242
aa(lp8243
S'Rica'
p8244
aa(lp8245
S'Ricca'
p8246
aa(lp8247
S'Rici'
p8248
aa(lp8249
S'Ricki'
p8250
aa(lp8251
S'Rickie'
p8252
aa(lp8253
S'Ricky'
p8254
aa(lp8255
S'Riki'
p8256
aa(lp8257
S'Rikki'
p8258
aa(lp8259
S'Rina'
p8260
aa(lp8261
S'Risa'
p8262
aa(lp8263
S'Rissa'
p8264
aa(lp8265
S'Rita'
p8266
aa(lp8267
S'Riva'
p8268
aa(lp8269
S'Rivalee'
p8270
aa(lp8271
S'Rivi'
p8272
aa(lp8273
S'Rivkah'
p8274
aa(lp8275
S'Rivy'
p8276
aa(lp8277
S'Roana'
p8278
aa(lp8279
S'Roanna'
p8280
aa(lp8281
S'Roanne'
p8282
aa(lp8283
S'Robbi'
p8284
aa(lp8285
S'Robbie'
p8286
aa(lp8287
S'Robbin'
p8288
aa(lp8289
S'Robby'
p8290
aa(lp8291
S'Robbyn'
p8292
aa(lp8293
S'Robena'
p8294
aa(lp8295
S'Robenia'
p8296
aa(lp8297
S'Roberta'
p8298
aa(lp8299
S'Robin'
p8300
aa(lp8301
S'Robina'
p8302
aa(lp8303
S'Robinet'
p8304
aa(lp8305
S'Robinett'
p8306
aa(lp8307
S'Robinetta'
p8308
aa(lp8309
S'Robinette'
p8310
aa(lp8311
S'Robinia'
p8312
aa(lp8313
S'Roby'
p8314
aa(lp8315
S'Robyn'
p8316
aa(lp8317
S'Roch'
p8318
aa(lp8319
S'Rochell'
p8320
aa(lp8321
S'Rochella'
p8322
aa(lp8323
S'Rochelle'
p8324
aa(lp8325
S'Rochette'
p8326
aa(lp8327
S'Roda'
p8328
aa(lp8329
S'Rodi'
p8330
aa(lp8331
S'Rodie'
p8332
aa(lp8333
S'Rodina'
p8334
aa(lp8335
S'Romola'
p8336
aa(lp8337
S'Romona'
p8338
aa(lp8339
S'Romonda'
p8340
aa(lp8341
S'Romy'
p8342
aa(lp8343
S'Rona'
p8344
aa(lp8345
S'Ronalda'
p8346
aa(lp8347
S'Ronda'
p8348
aa(lp8349
S'Ronica'
p8350
aa(lp8351
S'Ronna'
p8352
aa(lp8353
S'Ronni'
p8354
aa(lp8355
S'Ronnica'
p8356
aa(lp8357
S'Ronnie'
p8358
aa(lp8359
S'Ronny'
p8360
aa(lp8361
S'Roobbie'
p8362
aa(lp8363
S'Rora'
p8364
aa(lp8365
S'Rori'
p8366
aa(lp8367
S'Rorie'
p8368
aa(lp8369
S'Rory'
p8370
aa(lp8371
S'Ros'
p8372
aa(lp8373
S'Rosa'
p8374
aa(lp8375
S'Rosabel'
p8376
aa(lp8377
S'Rosabella'
p8378
aa(lp8379
S'Rosabelle'
p8380
aa(lp8381
S'Rosaleen'
p8382
aa(lp8383
S'Rosalia'
p8384
aa(lp8385
S'Rosalie'
p8386
aa(lp8387
S'Rosalind'
p8388
aa(lp8389
S'Rosalinda'
p8390
aa(lp8391
S'Rosalinde'
p8392
aa(lp8393
S'Rosaline'
p8394
aa(lp8395
S'Rosalyn'
p8396
aa(lp8397
S'Rosalynd'
p8398
aa(lp8399
S'Rosamond'
p8400
aa(lp8401
S'Rosamund'
p8402
aa(lp8403
S'Rosana'
p8404
aa(lp8405
S'Rosanna'
p8406
aa(lp8407
S'Rosanne'
p8408
aa(lp8409
S'Rosario'
p8410
aa(lp8411
S'Rose'
p8412
aa(lp8413
S'Roseann'
p8414
aa(lp8415
S'Roseanna'
p8416
aa(lp8417
S'Roseanne'
p8418
aa(lp8419
S'Roselia'
p8420
aa(lp8421
S'Roselin'
p8422
aa(lp8423
S'Roseline'
p8424
aa(lp8425
S'Rosella'
p8426
aa(lp8427
S'Roselle'
p8428
aa(lp8429
S'Roselyn'
p8430
aa(lp8431
S'Rosemaria'
p8432
aa(lp8433
S'Rosemarie'
p8434
aa(lp8435
S'Rosemary'
p8436
aa(lp8437
S'Rosemonde'
p8438
aa(lp8439
S'Rosene'
p8440
aa(lp8441
S'Rosetta'
p8442
aa(lp8443
S'Rosette'
p8444
aa(lp8445
S'Roshelle'
p8446
aa(lp8447
S'Rosie'
p8448
aa(lp8449
S'Rosina'
p8450
aa(lp8451
S'Rosita'
p8452
aa(lp8453
S'Roslyn'
p8454
aa(lp8455
S'Rosmunda'
p8456
aa(lp8457
S'Rosy'
p8458
aa(lp8459
S'Rosyzie'
p8460
aa(lp8461
S'Rozie'
p8462
aa(lp8463
S'Row'
p8464
aa(lp8465
S'Rowe'
p8466
aa(lp8467
S'Rowena'
p8468
aa(lp8469
S'Roxana'
p8470
aa(lp8471
S'Roxane'
p8472
aa(lp8473
S'Roxanna'
p8474
aa(lp8475
S'Roxanne'
p8476
aa(lp8477
S'Roxi'
p8478
aa(lp8479
S'Roxie'
p8480
aa(lp8481
S'Roxine'
p8482
aa(lp8483
S'Roxy'
p8484
aa(lp8485
S'Roz'
p8486
aa(lp8487
S'Rozalie'
p8488
aa(lp8489
S'Rozalin'
p8490
aa(lp8491
S'Rozamond'
p8492
aa(lp8493
S'Rozanna'
p8494
aa(lp8495
S'Rozanne'
p8496
aa(lp8497
S'Roze'
p8498
aa(lp8499
S'Rozele'
p8500
aa(lp8501
S'Rozella'
p8502
aa(lp8503
S'Rozelle'
p8504
aa(lp8505
S'Rozina'
p8506
aa(lp8507
S'Rubetta'
p8508
aa(lp8509
S'Rubi'
p8510
aa(lp8511
S'Rubia'
p8512
aa(lp8513
S'Rubie'
p8514
aa(lp8515
S'Rubina'
p8516
aa(lp8517
S'Ruby'
p8518
aa(lp8519
S'Ruella'
p8520
aa(lp8521
S'Ruperta'
p8522
aa(lp8523
S'Ruth'
p8524
aa(lp8525
S'Ruthann'
p8526
aa(lp8527
S'Ruthanne'
p8528
aa(lp8529
S'Ruthe'
p8530
aa(lp8531
S'Ruthi'
p8532
aa(lp8533
S'Ruthie'
p8534
aa(lp8535
S'Ruthy'
p8536
aa(lp8537
S'Ryann'
p8538
aa(lp8539
S'Rycca'
p8540
aa(lp8541
S'Saba'
p8542
aa(lp8543
S'Sabina'
p8544
aa(lp8545
S'Sabine'
p8546
aa(lp8547
S'Sabra'
p8548
aa(lp8549
S'Sabrina'
p8550
aa(lp8551
S'Sacha'
p8552
aa(lp8553
S'Sada'
p8554
aa(lp8555
S'Sadella'
p8556
aa(lp8557
S'Sadie'
p8558
aa(lp8559
S'Sal'
p8560
aa(lp8561
S'Sallee'
p8562
aa(lp8563
S'Salli'
p8564
aa(lp8565
S'Sallie'
p8566
aa(lp8567
S'Sally'
p8568
aa(lp8569
S'Sallyann'
p8570
aa(lp8571
S'Sallyanne'
p8572
aa(lp8573
S'Salome'
p8574
aa(lp8575
S'Sam'
p8576
aa(lp8577
S'Samantha'
p8578
aa(lp8579
S'Samara'
p8580
aa(lp8581
S'Samaria'
p8582
aa(lp8583
S'Sammy'
p8584
aa(lp8585
S'Samuela'
p8586
aa(lp8587
S'Samuella'
p8588
aa(lp8589
S'Sande'
p8590
aa(lp8591
S'Sandi'
p8592
aa(lp8593
S'Sandie'
p8594
aa(lp8595
S'Sandra'
p8596
aa(lp8597
S'Sandy'
p8598
aa(lp8599
S'Sandye'
p8600
aa(lp8601
S'Sapphira'
p8602
aa(lp8603
S'Sapphire'
p8604
aa(lp8605
S'Sara'
p8606
aa(lp8607
S'Sara-Ann'
p8608
aa(lp8609
S'Saraann'
p8610
aa(lp8611
S'Sarah'
p8612
aa(lp8613
S'Sarajane'
p8614
aa(lp8615
S'Saree'
p8616
aa(lp8617
S'Sarena'
p8618
aa(lp8619
S'Sarene'
p8620
aa(lp8621
S'Sarette'
p8622
aa(lp8623
S'Sari'
p8624
aa(lp8625
S'Sarina'
p8626
aa(lp8627
S'Sarine'
p8628
aa(lp8629
S'Sarita'
p8630
aa(lp8631
S'Sascha'
p8632
aa(lp8633
S'Sasha'
p8634
aa(lp8635
S'Sashenka'
p8636
aa(lp8637
S'Saudra'
p8638
aa(lp8639
S'Saundra'
p8640
aa(lp8641
S'Savina'
p8642
aa(lp8643
S'Sayre'
p8644
aa(lp8645
S'Scarlet'
p8646
aa(lp8647
S'Scarlett'
p8648
aa(lp8649
S'Scotty'
p8650
aa(lp8651
S'Sean'
p8652
aa(lp8653
S'Seana'
p8654
aa(lp8655
S'Secunda'
p8656
aa(lp8657
S'Seka'
p8658
aa(lp8659
S'Sela'
p8660
aa(lp8661
S'Selena'
p8662
aa(lp8663
S'Selene'
p8664
aa(lp8665
S'Selestina'
p8666
aa(lp8667
S'Selia'
p8668
aa(lp8669
S'Selie'
p8670
aa(lp8671
S'Selina'
p8672
aa(lp8673
S'Selinda'
p8674
aa(lp8675
S'Seline'
p8676
aa(lp8677
S'Sella'
p8678
aa(lp8679
S'Selle'
p8680
aa(lp8681
S'Selma'
p8682
aa(lp8683
S'Sena'
p8684
aa(lp8685
S'Sephira'
p8686
aa(lp8687
S'Serena'
p8688
aa(lp8689
S'Serene'
p8690
aa(lp8691
S'Shaina'
p8692
aa(lp8693
S'Shaine'
p8694
aa(lp8695
S'Shalna'
p8696
aa(lp8697
S'Shalne'
p8698
aa(lp8699
S'Shamit'
p8700
aa(lp8701
S'Shana'
p8702
aa(lp8703
S'Shanda'
p8704
aa(lp8705
S'Shandee'
p8706
aa(lp8707
S'Shandie'
p8708
aa(lp8709
S'Shandra'
p8710
aa(lp8711
S'Shandy'
p8712
aa(lp8713
S'Shane'
p8714
aa(lp8715
S'Shani'
p8716
aa(lp8717
S'Shanie'
p8718
aa(lp8719
S'Shanna'
p8720
aa(lp8721
S'Shannah'
p8722
aa(lp8723
S'Shannen'
p8724
aa(lp8725
S'Shannon'
p8726
aa(lp8727
S'Shanon'
p8728
aa(lp8729
S'Shanta'
p8730
aa(lp8731
S'Shantee'
p8732
aa(lp8733
S'Shara'
p8734
aa(lp8735
S'Sharai'
p8736
aa(lp8737
S'Shari'
p8738
aa(lp8739
S'Sharia'
p8740
aa(lp8741
S'Sharie'
p8742
aa(lp8743
S'Sharity'
p8744
aa(lp8745
S'Sharl'
p8746
aa(lp8747
S'Sharla'
p8748
aa(lp8749
S'Sharleen'
p8750
aa(lp8751
S'Sharlene'
p8752
aa(lp8753
S'Sharline'
p8754
aa(lp8755
S'Sharna'
p8756
aa(lp8757
S'Sharon'
p8758
aa(lp8759
S'Sharona'
p8760
aa(lp8761
S'Sharra'
p8762
aa(lp8763
S'Sharron'
p8764
aa(lp8765
S'Sharyl'
p8766
aa(lp8767
S'Shaun'
p8768
aa(lp8769
S'Shauna'
p8770
aa(lp8771
S'Shawn'
p8772
aa(lp8773
S'Shawna'
p8774
aa(lp8775
S'Shawnee'
p8776
aa(lp8777
S'Shay'
p8778
aa(lp8779
S'Shayla'
p8780
aa(lp8781
S'Shaylah'
p8782
aa(lp8783
S'Shaylyn'
p8784
aa(lp8785
S'Shaylynn'
p8786
aa(lp8787
S'Shayna'
p8788
aa(lp8789
S'Shayne'
p8790
aa(lp8791
S'Shea'
p8792
aa(lp8793
S'Sheba'
p8794
aa(lp8795
S'Sheela'
p8796
aa(lp8797
S'Sheelagh'
p8798
aa(lp8799
S'Sheelah'
p8800
aa(lp8801
S'Sheena'
p8802
aa(lp8803
S'Sheeree'
p8804
aa(lp8805
S'Sheila'
p8806
aa(lp8807
S'Sheila-Kathryn'
p8808
aa(lp8809
S'Sheilah'
p8810
aa(lp8811
S'Sheilakathryn'
p8812
aa(lp8813
S'Shel'
p8814
aa(lp8815
S'Shela'
p8816
aa(lp8817
S'Shelagh'
p8818
aa(lp8819
S'Shelba'
p8820
aa(lp8821
S'Shelbi'
p8822
aa(lp8823
S'Shelby'
p8824
aa(lp8825
S'Shelia'
p8826
aa(lp8827
S'Shell'
p8828
aa(lp8829
S'Shelley'
p8830
aa(lp8831
S'Shelli'
p8832
aa(lp8833
S'Shellie'
p8834
aa(lp8835
S'Shelly'
p8836
aa(lp8837
S'Shena'
p8838
aa(lp8839
S'Sher'
p8840
aa(lp8841
S'Sheree'
p8842
aa(lp8843
S'Sheri'
p8844
aa(lp8845
S'Sherie'
p8846
aa(lp8847
S'Sheril'
p8848
aa(lp8849
S'Sherill'
p8850
aa(lp8851
S'Sherilyn'
p8852
aa(lp8853
S'Sherline'
p8854
aa(lp8855
S'Sherri'
p8856
aa(lp8857
S'Sherrie'
p8858
aa(lp8859
S'Sherry'
p8860
aa(lp8861
S'Sherye'
p8862
aa(lp8863
S'Sheryl'
p8864
aa(lp8865
S'Shilpa'
p8866
aa(lp8867
S'Shina'
p8868
aa(lp8869
S'Shir'
p8870
aa(lp8871
S'Shira'
p8872
aa(lp8873
S'Shirah'
p8874
aa(lp8875
S'Shirl'
p8876
aa(lp8877
S'Shirlee'
p8878
aa(lp8879
S'Shirleen'
p8880
aa(lp8881
S'Shirlene'
p8882
aa(lp8883
S'Shirley'
p8884
aa(lp8885
S'Shirline'
p8886
aa(lp8887
S'Shoshana'
p8888
aa(lp8889
S'Shoshanna'
p8890
aa(lp8891
S'Shoshie'
p8892
aa(lp8893
S'Siana'
p8894
aa(lp8895
S'Sianna'
p8896
aa(lp8897
S'Sib'
p8898
aa(lp8899
S'Sibbie'
p8900
aa(lp8901
S'Sibby'
p8902
aa(lp8903
S'Sibeal'
p8904
aa(lp8905
S'Sibel'
p8906
aa(lp8907
S'Sibella'
p8908
aa(lp8909
S'Sibelle'
p8910
aa(lp8911
S'Sibilla'
p8912
aa(lp8913
S'Sibley'
p8914
aa(lp8915
S'Sibyl'
p8916
aa(lp8917
S'Sibylla'
p8918
aa(lp8919
S'Sibylle'
p8920
aa(lp8921
S'Sidoney'
p8922
aa(lp8923
S'Sidonia'
p8924
aa(lp8925
S'Sidonnie'
p8926
aa(lp8927
S'Sigrid'
p8928
aa(lp8929
S'Sile'
p8930
aa(lp8931
S'Sileas'
p8932
aa(lp8933
S'Silva'
p8934
aa(lp8935
S'Silvana'
p8936
aa(lp8937
S'Silvia'
p8938
aa(lp8939
S'Silvie'
p8940
aa(lp8941
S'Simona'
p8942
aa(lp8943
S'Simone'
p8944
aa(lp8945
S'Simonette'
p8946
aa(lp8947
S'Simonne'
p8948
aa(lp8949
S'Sindee'
p8950
aa(lp8951
S'Sinead'
p8952
aa(lp8953
S'Siobhan'
p8954
aa(lp8955
S'Sioux'
p8956
aa(lp8957
S'Siouxie'
p8958
aa(lp8959
S'Sisely'
p8960
aa(lp8961
S'Sisile'
p8962
aa(lp8963
S'Sissie'
p8964
aa(lp8965
S'Sissy'
p8966
aa(lp8967
S'Sofia'
p8968
aa(lp8969
S'Sofie'
p8970
aa(lp8971
S'Solange'
p8972
aa(lp8973
S'Sondra'
p8974
aa(lp8975
S'Sonia'
p8976
aa(lp8977
S'Sonja'
p8978
aa(lp8979
S'Sonni'
p8980
aa(lp8981
S'Sonnie'
p8982
aa(lp8983
S'Sonnnie'
p8984
aa(lp8985
S'Sonny'
p8986
aa(lp8987
S'Sonya'
p8988
aa(lp8989
S'Sophey'
p8990
aa(lp8991
S'Sophi'
p8992
aa(lp8993
S'Sophia'
p8994
aa(lp8995
S'Sophie'
p8996
aa(lp8997
S'Sophronia'
p8998
aa(lp8999
S'Sorcha'
p9000
aa(lp9001
S'Sosanna'
p9002
aa(lp9003
S'Stace'
p9004
aa(lp9005
S'Stacee'
p9006
aa(lp9007
S'Stacey'
p9008
aa(lp9009
S'Staci'
p9010
aa(lp9011
S'Stacia'
p9012
aa(lp9013
S'Stacie'
p9014
aa(lp9015
S'Stacy'
p9016
aa(lp9017
S'Stafani'
p9018
aa(lp9019
S'Star'
p9020
aa(lp9021
S'Starla'
p9022
aa(lp9023
S'Starlene'
p9024
aa(lp9025
S'Starlin'
p9026
aa(lp9027
S'Starr'
p9028
aa(lp9029
S'Stefa'
p9030
aa(lp9031
S'Stefania'
p9032
aa(lp9033
S'Stefanie'
p9034
aa(lp9035
S'Steffane'
p9036
aa(lp9037
S'Steffi'
p9038
aa(lp9039
S'Steffie'
p9040
aa(lp9041
S'Stella'
p9042
aa(lp9043
S'Stepha'
p9044
aa(lp9045
S'Stephana'
p9046
aa(lp9047
S'Stephani'
p9048
aa(lp9049
S'Stephanie'
p9050
aa(lp9051
S'Stephannie'
p9052
aa(lp9053
S'Stephenie'
p9054
aa(lp9055
S'Stephi'
p9056
aa(lp9057
S'Stephie'
p9058
aa(lp9059
S'Stephine'
p9060
aa(lp9061
S'Stesha'
p9062
aa(lp9063
S'Stevana'
p9064
aa(lp9065
S'Stevena'
p9066
aa(lp9067
S'Stoddard'
p9068
aa(lp9069
S'Storey'
p9070
aa(lp9071
S'Storm'
p9072
aa(lp9073
S'Stormi'
p9074
aa(lp9075
S'Stormie'
p9076
aa(lp9077
S'Stormy'
p9078
aa(lp9079
S'Sue'
p9080
aa(lp9081
S'Sue-elle'
p9082
aa(lp9083
S'Suellen'
p9084
aa(lp9085
S'Sukey'
p9086
aa(lp9087
S'Suki'
p9088
aa(lp9089
S'Sula'
p9090
aa(lp9091
S'Sunny'
p9092
aa(lp9093
S'Sunshine'
p9094
aa(lp9095
S'Susan'
p9096
aa(lp9097
S'Susana'
p9098
aa(lp9099
S'Susanetta'
p9100
aa(lp9101
S'Susann'
p9102
aa(lp9103
S'Susanna'
p9104
aa(lp9105
S'Susannah'
p9106
aa(lp9107
S'Susanne'
p9108
aa(lp9109
S'Susette'
p9110
aa(lp9111
S'Susi'
p9112
aa(lp9113
S'Susie'
p9114
aa(lp9115
S'Sussi'
p9116
aa(lp9117
S'Susy'
p9118
aa(lp9119
S'Suzan'
p9120
aa(lp9121
S'Suzann'
p9122
aa(lp9123
S'Suzanna'
p9124
aa(lp9125
S'Suzanne'
p9126
aa(lp9127
S'Suzetta'
p9128
aa(lp9129
S'Suzette'
p9130
aa(lp9131
S'Suzi'
p9132
aa(lp9133
S'Suzie'
p9134
aa(lp9135
S'Suzy'
p9136
aa(lp9137
S'Suzzy'
p9138
aa(lp9139
S'Sybil'
p9140
aa(lp9141
S'Sybila'
p9142
aa(lp9143
S'Sybilla'
p9144
aa(lp9145
S'Sybille'
p9146
aa(lp9147
S'Sybyl'
p9148
aa(lp9149
S'Sydel'
p9150
aa(lp9151
S'Sydelle'
p9152
aa(lp9153
S'Sydney'
p9154
aa(lp9155
S'Sylvia'
p9156
aa(lp9157
S'Sylvie'
p9158
aa(lp9159
S'Tabatha'
p9160
aa(lp9161
S'Tabbatha'
p9162
aa(lp9163
S'Tabbi'
p9164
aa(lp9165
S'Tabbie'
p9166
aa(lp9167
S'Tabbitha'
p9168
aa(lp9169
S'Tabby'
p9170
aa(lp9171
S'Tabina'
p9172
aa(lp9173
S'Tabitha'
p9174
aa(lp9175
S'Taffy'
p9176
aa(lp9177
S'Talia'
p9178
aa(lp9179
S'Tallia'
p9180
aa(lp9181
S'Tallie'
p9182
aa(lp9183
S'Tally'
p9184
aa(lp9185
S'Talya'
p9186
aa(lp9187
S'Talyah'
p9188
aa(lp9189
S'Tamar'
p9190
aa(lp9191
S'Tamara'
p9192
aa(lp9193
S'Tamarah'
p9194
aa(lp9195
S'Tamarra'
p9196
aa(lp9197
S'Tamera'
p9198
aa(lp9199
S'Tami'
p9200
aa(lp9201
S'Tamiko'
p9202
aa(lp9203
S'Tamma'
p9204
aa(lp9205
S'Tammara'
p9206
aa(lp9207
S'Tammi'
p9208
aa(lp9209
S'Tammie'
p9210
aa(lp9211
S'Tammy'
p9212
aa(lp9213
S'Tamra'
p9214
aa(lp9215
S'Tana'
p9216
aa(lp9217
S'Tandi'
p9218
aa(lp9219
S'Tandie'
p9220
aa(lp9221
S'Tandy'
p9222
aa(lp9223
S'Tani'
p9224
aa(lp9225
S'Tania'
p9226
aa(lp9227
S'Tansy'
p9228
aa(lp9229
S'Tanya'
p9230
aa(lp9231
S'Tara'
p9232
aa(lp9233
S'Tarah'
p9234
aa(lp9235
S'Tarra'
p9236
aa(lp9237
S'Tarrah'
p9238
aa(lp9239
S'Taryn'
p9240
aa(lp9241
S'Tasha'
p9242
aa(lp9243
S'Tasia'
p9244
aa(lp9245
S'Tate'
p9246
aa(lp9247
S'Tatiana'
p9248
aa(lp9249
S'Tatiania'
p9250
aa(lp9251
S'Tatum'
p9252
aa(lp9253
S'Tawnya'
p9254
aa(lp9255
S'Tawsha'
p9256
aa(lp9257
S'Teane'
p9258
aa(lp9259
S'Ted'
p9260
aa(lp9261
S'Tedda'
p9262
aa(lp9263
S'Teddi'
p9264
aa(lp9265
S'Teddie'
p9266
aa(lp9267
S'Teddy'
p9268
aa(lp9269
S'Tedi'
p9270
aa(lp9271
S'Tedra'
p9272
aa(lp9273
S'Teena'
p9274
aa(lp9275
S'Tella'
p9276
aa(lp9277
S'Teodora'
p9278
aa(lp9279
S'Tera'
p9280
aa(lp9281
S'Teresa'
p9282
aa(lp9283
S'TeresaAnne'
p9284
aa(lp9285
S'Terese'
p9286
aa(lp9287
S'Teresina'
p9288
aa(lp9289
S'Teresita'
p9290
aa(lp9291
S'Teressa'
p9292
aa(lp9293
S'Teri'
p9294
aa(lp9295
S'Teriann'
p9296
aa(lp9297
S'Terina'
p9298
aa(lp9299
S'Terra'
p9300
aa(lp9301
S'Terri'
p9302
aa(lp9303
S'Terri-Jo'
p9304
aa(lp9305
S'Terrianne'
p9306
aa(lp9307
S'Terrie'
p9308
aa(lp9309
S'Terry'
p9310
aa(lp9311
S'Terrye'
p9312
aa(lp9313
S'Tersina'
p9314
aa(lp9315
S'Teryl'
p9316
aa(lp9317
S'Terza'
p9318
aa(lp9319
S'Tess'
p9320
aa(lp9321
S'Tessa'
p9322
aa(lp9323
S'Tessi'
p9324
aa(lp9325
S'Tessie'
p9326
aa(lp9327
S'Tessy'
p9328
aa(lp9329
S'Thalia'
p9330
aa(lp9331
S'Thea'
p9332
aa(lp9333
S'Theada'
p9334
aa(lp9335
S'Theadora'
p9336
aa(lp9337
S'Theda'
p9338
aa(lp9339
S'Thekla'
p9340
aa(lp9341
S'Thelma'
p9342
aa(lp9343
S'Theo'
p9344
aa(lp9345
S'Theodora'
p9346
aa(lp9347
S'Theodosia'
p9348
aa(lp9349
S'Theresa'
p9350
aa(lp9351
S'Theresa-Marie'
p9352
aa(lp9353
S'Therese'
p9354
aa(lp9355
S'Theresina'
p9356
aa(lp9357
S'Theresita'
p9358
aa(lp9359
S'Theressa'
p9360
aa(lp9361
S'Therine'
p9362
aa(lp9363
S'Thia'
p9364
aa(lp9365
S'Thomasa'
p9366
aa(lp9367
S'Thomasin'
p9368
aa(lp9369
S'Thomasina'
p9370
aa(lp9371
S'Thomasine'
p9372
aa(lp9373
S'Tia'
p9374
aa(lp9375
S'Tiana'
p9376
aa(lp9377
S'Tiena'
p9378
aa(lp9379
S'Tierney'
p9380
aa(lp9381
S'Tiertza'
p9382
aa(lp9383
S'Tiff'
p9384
aa(lp9385
S'Tiffani'
p9386
aa(lp9387
S'Tiffanie'
p9388
aa(lp9389
S'Tiffany'
p9390
aa(lp9391
S'Tiffi'
p9392
aa(lp9393
S'Tiffie'
p9394
aa(lp9395
S'Tiffy'
p9396
aa(lp9397
S'Tilda'
p9398
aa(lp9399
S'Tildi'
p9400
aa(lp9401
S'Tildie'
p9402
aa(lp9403
S'Tildy'
p9404
aa(lp9405
S'Tillie'
p9406
aa(lp9407
S'Tilly'
p9408
aa(lp9409
S'Tim'
p9410
aa(lp9411
S'Timi'
p9412
aa(lp9413
S'Timmi'
p9414
aa(lp9415
S'Timmie'
p9416
aa(lp9417
S'Timmy'
p9418
aa(lp9419
S'Timothea'
p9420
aa(lp9421
S'Tina'
p9422
aa(lp9423
S'Tine'
p9424
aa(lp9425
S'Tiphani'
p9426
aa(lp9427
S'Tiphanie'
p9428
aa(lp9429
S'Tiphany'
p9430
aa(lp9431
S'Tish'
p9432
aa(lp9433
S'Tisha'
p9434
aa(lp9435
S'Tobe'
p9436
aa(lp9437
S'Tobey'
p9438
aa(lp9439
S'Tobi'
p9440
aa(lp9441
S'Tobie'
p9442
aa(lp9443
S'Toby'
p9444
aa(lp9445
S'Tobye'
p9446
aa(lp9447
S'Toinette'
p9448
aa(lp9449
S'Toma'
p9450
aa(lp9451
S'Tomasina'
p9452
aa(lp9453
S'Tomasine'
p9454
aa(lp9455
S'Tomi'
p9456
aa(lp9457
S'Tomiko'
p9458
aa(lp9459
S'Tommi'
p9460
aa(lp9461
S'Tommie'
p9462
aa(lp9463
S'Tommy'
p9464
aa(lp9465
S'Toni'
p9466
aa(lp9467
S'Tonia'
p9468
aa(lp9469
S'Tonie'
p9470
aa(lp9471
S'Tony'
p9472
aa(lp9473
S'Tonya'
p9474
aa(lp9475
S'Tootsie'
p9476
aa(lp9477
S'Torey'
p9478
aa(lp9479
S'Tori'
p9480
aa(lp9481
S'Torie'
p9482
aa(lp9483
S'Torrie'
p9484
aa(lp9485
S'Tory'
p9486
aa(lp9487
S'Tova'
p9488
aa(lp9489
S'Tove'
p9490
aa(lp9491
S'Trace'
p9492
aa(lp9493
S'Tracee'
p9494
aa(lp9495
S'Tracey'
p9496
aa(lp9497
S'Traci'
p9498
aa(lp9499
S'Tracie'
p9500
aa(lp9501
S'Tracy'
p9502
aa(lp9503
S'Trenna'
p9504
aa(lp9505
S'Tresa'
p9506
aa(lp9507
S'Trescha'
p9508
aa(lp9509
S'Tressa'
p9510
aa(lp9511
S'Tricia'
p9512
aa(lp9513
S'Trina'
p9514
aa(lp9515
S'Trish'
p9516
aa(lp9517
S'Trisha'
p9518
aa(lp9519
S'Trista'
p9520
aa(lp9521
S'Trix'
p9522
aa(lp9523
S'Trixi'
p9524
aa(lp9525
S'Trixie'
p9526
aa(lp9527
S'Trixy'
p9528
aa(lp9529
S'Truda'
p9530
aa(lp9531
S'Trude'
p9532
aa(lp9533
S'Trudey'
p9534
aa(lp9535
S'Trudi'
p9536
aa(lp9537
S'Trudie'
p9538
aa(lp9539
S'Trudy'
p9540
aa(lp9541
S'Trula'
p9542
aa(lp9543
S'Tuesday'
p9544
aa(lp9545
S'Twila'
p9546
aa(lp9547
S'Twyla'
p9548
aa(lp9549
S'Tybi'
p9550
aa(lp9551
S'Tybie'
p9552
aa(lp9553
S'Tyne'
p9554
aa(lp9555
S'Ula'
p9556
aa(lp9557
S'Ulla'
p9558
aa(lp9559
S'Ulrica'
p9560
aa(lp9561
S'Ulrika'
p9562
aa(lp9563
S'Ulrike'
p9564
aa(lp9565
S'Umeko'
p9566
aa(lp9567
S'Una'
p9568
aa(lp9569
S'Ursa'
p9570
aa(lp9571
S'Ursala'
p9572
aa(lp9573
S'Ursola'
p9574
aa(lp9575
S'Ursula'
p9576
aa(lp9577
S'Ursulina'
p9578
aa(lp9579
S'Ursuline'
p9580
aa(lp9581
S'Uta'
p9582
aa(lp9583
S'Val'
p9584
aa(lp9585
S'Valaree'
p9586
aa(lp9587
S'Valaria'
p9588
aa(lp9589
S'Vale'
p9590
aa(lp9591
S'Valeda'
p9592
aa(lp9593
S'Valencia'
p9594
aa(lp9595
S'Valene'
p9596
aa(lp9597
S'Valenka'
p9598
aa(lp9599
S'Valentia'
p9600
aa(lp9601
S'Valentina'
p9602
aa(lp9603
S'Valentine'
p9604
aa(lp9605
S'Valera'
p9606
aa(lp9607
S'Valeria'
p9608
aa(lp9609
S'Valerie'
p9610
aa(lp9611
S'Valery'
p9612
aa(lp9613
S'Valerye'
p9614
aa(lp9615
S'Valida'
p9616
aa(lp9617
S'Valina'
p9618
aa(lp9619
S'Valli'
p9620
aa(lp9621
S'Vallie'
p9622
aa(lp9623
S'Vally'
p9624
aa(lp9625
S'Valma'
p9626
aa(lp9627
S'Valry'
p9628
aa(lp9629
S'Van'
p9630
aa(lp9631
S'Vanda'
p9632
aa(lp9633
S'Vanessa'
p9634
aa(lp9635
S'Vania'
p9636
aa(lp9637
S'Vanna'
p9638
aa(lp9639
S'Vanni'
p9640
aa(lp9641
S'Vannie'
p9642
aa(lp9643
S'Vanny'
p9644
aa(lp9645
S'Vanya'
p9646
aa(lp9647
S'Veda'
p9648
aa(lp9649
S'Velma'
p9650
aa(lp9651
S'Velvet'
p9652
aa(lp9653
S'Vena'
p9654
aa(lp9655
S'Venita'
p9656
aa(lp9657
S'Ventura'
p9658
aa(lp9659
S'Venus'
p9660
aa(lp9661
S'Vera'
p9662
aa(lp9663
S'Veradis'
p9664
aa(lp9665
S'Vere'
p9666
aa(lp9667
S'Verena'
p9668
aa(lp9669
S'Verene'
p9670
aa(lp9671
S'Veriee'
p9672
aa(lp9673
S'Verile'
p9674
aa(lp9675
S'Verina'
p9676
aa(lp9677
S'Verine'
p9678
aa(lp9679
S'Verla'
p9680
aa(lp9681
S'Verna'
p9682
aa(lp9683
S'Vernice'
p9684
aa(lp9685
S'Veronica'
p9686
aa(lp9687
S'Veronika'
p9688
aa(lp9689
S'Veronike'
p9690
aa(lp9691
S'Veronique'
p9692
aa(lp9693
S'Vi'
p9694
aa(lp9695
S'Vicki'
p9696
aa(lp9697
S'Vickie'
p9698
aa(lp9699
S'Vicky'
p9700
aa(lp9701
S'Victoria'
p9702
aa(lp9703
S'Vida'
p9704
aa(lp9705
S'Viki'
p9706
aa(lp9707
S'Vikki'
p9708
aa(lp9709
S'Vikkie'
p9710
aa(lp9711
S'Vikky'
p9712
aa(lp9713
S'Vilhelmina'
p9714
aa(lp9715
S'Vilma'
p9716
aa(lp9717
S'Vin'
p9718
aa(lp9719
S'Vina'
p9720
aa(lp9721
S'Vinita'
p9722
aa(lp9723
S'Vinni'
p9724
aa(lp9725
S'Vinnie'
p9726
aa(lp9727
S'Vinny'
p9728
aa(lp9729
S'Viola'
p9730
aa(lp9731
S'Violante'
p9732
aa(lp9733
S'Viole'
p9734
aa(lp9735
S'Violet'
p9736
aa(lp9737
S'Violetta'
p9738
aa(lp9739
S'Violette'
p9740
aa(lp9741
S'Virgie'
p9742
aa(lp9743
S'Virgina'
p9744
aa(lp9745
S'Virginia'
p9746
aa(lp9747
S'Virginie'
p9748
aa(lp9749
S'Vita'
p9750
aa(lp9751
S'Vitia'
p9752
aa(lp9753
S'Vitoria'
p9754
aa(lp9755
S'Vittoria'
p9756
aa(lp9757
S'Viv'
p9758
aa(lp9759
S'Viva'
p9760
aa(lp9761
S'Vivi'
p9762
aa(lp9763
S'Vivia'
p9764
aa(lp9765
S'Vivian'
p9766
aa(lp9767
S'Viviana'
p9768
aa(lp9769
S'Vivianna'
p9770
aa(lp9771
S'Vivianne'
p9772
aa(lp9773
S'Vivie'
p9774
aa(lp9775
S'Vivien'
p9776
aa(lp9777
S'Viviene'
p9778
aa(lp9779
S'Vivienne'
p9780
aa(lp9781
S'Viviyan'
p9782
aa(lp9783
S'Vivyan'
p9784
aa(lp9785
S'Vivyanne'
p9786
aa(lp9787
S'Vonni'
p9788
aa(lp9789
S'Vonnie'
p9790
aa(lp9791
S'Vonny'
p9792
aa(lp9793
S'Wallie'
p9794
aa(lp9795
S'Wallis'
p9796
aa(lp9797
S'Wally'
p9798
aa(lp9799
S'Waly'
p9800
aa(lp9801
S'Wanda'
p9802
aa(lp9803
S'Wandie'
p9804
aa(lp9805
S'Wandis'
p9806
aa(lp9807
S'Waneta'
p9808
aa(lp9809
S'Wenda'
p9810
aa(lp9811
S'Wendeline'
p9812
aa(lp9813
S'Wendi'
p9814
aa(lp9815
S'Wendie'
p9816
aa(lp9817
S'Wendy'
p9818
aa(lp9819
S'Wenona'
p9820
aa(lp9821
S'Wenonah'
p9822
aa(lp9823
S'Whitney'
p9824
aa(lp9825
S'Wileen'
p9826
aa(lp9827
S'Wilhelmina'
p9828
aa(lp9829
S'Wilhelmine'
p9830
aa(lp9831
S'Wilie'
p9832
aa(lp9833
S'Willa'
p9834
aa(lp9835
S'Willabella'
p9836
aa(lp9837
S'Willamina'
p9838
aa(lp9839
S'Willetta'
p9840
aa(lp9841
S'Willette'
p9842
aa(lp9843
S'Willi'
p9844
aa(lp9845
S'Willie'
p9846
aa(lp9847
S'Willow'
p9848
aa(lp9849
S'Willy'
p9850
aa(lp9851
S'Willyt'
p9852
aa(lp9853
S'Wilma'
p9854
aa(lp9855
S'Wilmette'
p9856
aa(lp9857
S'Wilona'
p9858
aa(lp9859
S'Wilone'
p9860
aa(lp9861
S'Wilow'
p9862
aa(lp9863
S'Windy'
p9864
aa(lp9865
S'Wini'
p9866
aa(lp9867
S'Winifred'
p9868
aa(lp9869
S'Winna'
p9870
aa(lp9871
S'Winnah'
p9872
aa(lp9873
S'Winne'
p9874
aa(lp9875
S'Winni'
p9876
aa(lp9877
S'Winnie'
p9878
aa(lp9879
S'Winnifred'
p9880
aa(lp9881
S'Winny'
p9882
aa(lp9883
S'Winona'
p9884
aa(lp9885
S'Winonah'
p9886
aa(lp9887
S'Wren'
p9888
aa(lp9889
S'Wrennie'
p9890
aa(lp9891
S'Wylma'
p9892
aa(lp9893
S'Wynn'
p9894
aa(lp9895
S'Wynne'
p9896
aa(lp9897
S'Wynnie'
p9898
aa(lp9899
S'Wynny'
p9900
aa(lp9901
S'Xaviera'
p9902
aa(lp9903
S'Xena'
p9904
aa(lp9905
S'Xenia'
p9906
aa(lp9907
S'Xylia'
p9908
aa(lp9909
S'Xylina'
p9910
aa(lp9911
S'Yalonda'
p9912
aa(lp9913
S'Yehudit'
p9914
aa(lp9915
S'Yelena'
p9916
aa(lp9917
S'Yetta'
p9918
aa(lp9919
S'Yettie'
p9920
aa(lp9921
S'Yetty'
p9922
aa(lp9923
S'Yevette'
p9924
aa(lp9925
S'Yoko'
p9926
aa(lp9927
S'Yolanda'
p9928
aa(lp9929
S'Yolande'
p9930
aa(lp9931
S'Yolane'
p9932
aa(lp9933
S'Yolanthe'
p9934
aa(lp9935
S'Yonina'
p9936
aa(lp9937
S'Yoshi'
p9938
aa(lp9939
S'Yoshiko'
p9940
aa(lp9941
S'Yovonnda'
p9942
aa(lp9943
S'Yvette'
p9944
aa(lp9945
S'Yvonne'
p9946
aa(lp9947
S'Zabrina'
p9948
aa(lp9949
S'Zahara'
p9950
aa(lp9951
S'Zandra'
p9952
aa(lp9953
S'Zaneta'
p9954
aa(lp9955
S'Zara'
p9956
aa(lp9957
S'Zarah'
p9958
aa(lp9959
S'Zaria'
p9960
aa(lp9961
S'Zarla'
p9962
aa(lp9963
S'Zea'
p9964
aa(lp9965
S'Zelda'
p9966
aa(lp9967
S'Zelma'
p9968
aa(lp9969
S'Zena'
p9970
aa(lp9971
S'Zenia'
p9972
aa(lp9973
S'Zia'
p9974
aa(lp9975
S'Zilvia'
p9976
aa(lp9977
S'Zita'
p9978
aa(lp9979
S'Zitella'
p9980
aa(lp9981
S'Zoe'
p9982
aa(lp9983
S'Zola'
p9984
aa(lp9985
S'Zonda'
p9986
aa(lp9987
S'Zondra'
p9988
aa(lp9989
S'Zonnya'
p9990
aa(lp9991
S'Zora'
p9992
aa(lp9993
S'Zorah'
p9994
aa(lp9995
S'Zorana'
p9996
aa(lp9997
S'Zorina'
p9998
aa(lp9999
S'Zorine'
p10000
aa(lp10001
S'Zsa'
p10002
aS'Zsa'
p10003
aa(lp10004
S'Zsazsa'
p10005
aa(lp10006
S'Zulema'
p10007
aa(lp10008
S'Zuzana'
p10009
aa.