(lp0
(lp1
S'karttika'
p2
aa(lp3
S'Yuletide'
p4
aa(lp5
S'Yom'
p6
aS'Kippur'
p7
aa(lp8
S'Xmas'
p9
aS'Eve'
p10
aa(lp11
S'Xmas'
p12
aa(lp13
S'Whitsun'
p14
aa(lp15
S'Whit'
p16
aS'Sunday'
p17
aa(lp18
S'Vaisakha'
p19
aa(lp20
S'VJ'
p21
aa(lp22
S'VE'
p23
aS'Day'
p24
aa(lp25
S'V.J'
p26
aS'.'
p27
aa(lp28
S'V.E.'
p29
aS'Day'
p30
aa(lp31
S'Trinity'
p32
aS'Sunday'
p33
aa(lp34
S'Thanksgiving'
p35
aa(lp36
S'Tabernacles'
p37
aa(lp38
S'Succoth'
p39
aa(lp40
S'St'
p41
aS'Valentine'
p42
aS"'s"
p43
aS'Day'
p44
aa(lp45
S'St'
p46
aS'Swithun'
p47
aS"'s"
p48
aS'Day'
p49
aa(lp50
S'St'
p51
aS'Stephen'
p52
aS"'s"
p53
aS'Day'
p54
aa(lp55
S'St'
p56
aS'Patrick'
p57
aS"'s"
p58
aS'Day'
p59
aa(lp60
S'St'
p61
aS'Nicholas'
p62
aS"'s"
p63
aS'Day'
p64
aa(lp65
S'St'
p66
aS'Nicholas'
p67
aS"'"
p68
aS'Day'
p69
aa(lp70
S'St'
p71
aS'George'
p72
aS"'s"
p73
aS'Day'
p74
aa(lp75
S'St'
p76
aS'David'
p77
aS"'s"
p78
aS'Day'
p79
aa(lp80
S'St'
p81
aS'Basil'
p82
aS"'s"
p83
aS'Day'
p84
aa(lp85
S'St'
p86
aS'Andrew'
p87
aS"'s"
p88
aS'Day'
p89
aa(lp90
S'St.'
p91
aS'Swithun'
p92
aS"'s"
p93
aS'Day'
p94
aa(lp95
S'St.'
p96
aS'Stephen'
p97
aS"'s"
p98
aS'Day'
p99
aa(lp100
S'St.'
p101
aS'Patrick'
p102
aS"'s"
p103
aS'Day'
p104
aa(lp105
S'St.'
p106
aS'Nicholas'
p107
aS"'s"
p108
aS'Day'
p109
aa(lp110
S'St.'
p111
aS'Nicholas'
p112
ag68
aS'Day'
p113
aa(lp114
S'St.'
p115
aS'George'
p116
aS"'s"
p117
aS'Day'
p118
aa(lp119
S'St.'
p120
aS'David'
p121
aS"'s"
p122
aS'Day'
p123
aa(lp124
S'St.'
p125
aS'Basil'
p126
aS"'s"
p127
aS'Day'
p128
aa(lp129
S'St.'
p130
aS'Andrew'
p131
aS"'s"
p132
aS'Day'
p133
aa(lp134
S'Spring'
p135
aS'festival'
p136
aa(lp137
S'Spring'
p138
aS'Festival'
p139
aa(lp140
S'Silver'
p141
aS'Jubilee'
p142
aa(lp143
S'Shrove'
p144
aS'Tuesday'
p145
aa(lp146
S'Shici-go-san'
p147
aa(lp148
S'Shawwal'
p149
aa(lp150
S'Septuagesima'
p151
aS'Sunday'
p152
aa(lp153
S'Saraswati'
p154
aS'Puja'
p155
aa(lp156
S'Saint'
p157
aS'Valentine'
p158
aS"'s"
p159
aS'Day'
p160
aa(lp161
S'Saint'
p162
aS'Swithun'
p163
aS"'s"
p164
aS'Day'
p165
aa(lp166
S'Saint'
p167
aS'Stephen'
p168
aS"'s"
p169
aS'Day'
p170
aa(lp171
S'Saint'
p172
aS'Patrick'
p173
aS"'s"
p174
aS'Day'
p175
aa(lp176
S'Saint'
p177
aS'Nicholas'
p178
aS"'s"
p179
aS'Day'
p180
aa(lp181
S'Saint'
p182
aS'Nicholas'
p183
ag68
aS'Day'
p184
aa(lp185
S'Saint'
p186
aS'George'
p187
aS"'s"
p188
aS'Day'
p189
aa(lp190
S'Saint'
p191
aS'David'
p192
aS"'s"
p193
aS'Day'
p194
aa(lp195
S'Saint'
p196
aS'Basil'
p197
aS"'s"
p198
aS'Day'
p199
aa(lp200
S'Saint'
p201
aS'Andrew'
p202
aS"'s"
p203
aS'Day'
p204
aa(lp205
S'Saga'
p206
aS'dawa'
p207
aa(lp208
S'Saga'
p209
aS'Dawa'
p210
aa(lp211
S'Rosh'
p212
aS'Hashanah'
p213
aa(lp214
S'Rogation'
p215
aS'Sunday'
p216
aa(lp217
S'Remembrance'
p218
aS'Sunday'
p219
aa(lp220
S'Remembrance'
p221
aS'Day'
p222
aa(lp223
S'Ramadan'
p224
aa(lp225
S'Ramadam'
p226
aa(lp227
S'Rajab'
p228
aa(lp229
S'Rabi'
p230
aS'I'
p231
aa(lp232
S'Quinquagesima'
p233
aS'Sunday'
p234
aa(lp235
S'Quadragesima'
p236
aS'Sunday'
p237
aa(lp238
S'Phalguna'
p239
aa(lp240
S'Phagan'
p241
aa(lp242
S'Pesach'
p243
aa(lp244
S'Pentecost'
p245
aa(lp246
S'Passover'
p247
aa(lp248
S'Palm'
p249
aS'Sunday'
p250
aa(lp251
S'Pajjusana'
p252
aa(lp253
S'Oli'
p254
aa(lp255
S'Noruz'
p256
aa(lp257
S'New'
p258
aS'Year'
p259
aS"'s"
p260
aS'Eve'
p261
aa(lp262
S'New'
p263
aS'Year'
p264
aa(lp265
S'Muharram'
p266
aa(lp267
S'Mothering'
p268
aS'Sunday'
p269
aa(lp270
S'Mother'
p271
aS"'s"
p272
aS'Day'
p273
aa(lp274
S'Mehragan'
p275
aa(lp276
S'May'
p277
aa(lp278
S'Magha'
p279
aa(lp280
S'Magar'
p281
aa(lp282
S'Low'
p283
aS'Sunday'
p284
aa(lp285
S'Lent'
p286
aa(lp287
S'Katik'
p288
aa(lp289
S'Jubilee'
p290
aa(lp291
S'Jewish'
p292
aS'New'
p293
aS'Year'
p294
aa(lp295
S'Islamic'
p296
aS'New'
p297
aS'Year'
p298
aa(lp299
S'Independence'
p300
aS'Day'
p301
aa(lp302
S'Holy'
p303
aS'Week'
p304
aa(lp305
S'Hogmanay'
p306
aa(lp307
S'Hanukkah'
p308
aa(lp309
S'Hana'
p310
aS'Matsuri'
p311
aa(lp312
S'Halloween'
p313
aa(lp314
S"Hallowe'en"
p315
aa(lp316
S'Guy'
p317
aS'Fawkes'
p318
ag68
aS'night'
p319
aa(lp320
S'Guy'
p321
aS'Fawkes'
p322
ag68
aS'Night'
p323
aa(lp324
S'Grandparent'
p325
aS"'s"
p326
aa(lp327
S'Good'
p328
aS'Friday'
p329
aa(lp330
S'Good'
p331
aS'Fri'
p332
aa(lp333
S'Golden'
p334
aS'Jubilee'
p335
aa(lp336
S'Festival'
p337
aS'of'
p338
aS'Wesak'
p339
aa(lp340
S'Festival'
p341
aS'Of'
p342
aS'Wesak'
p343
aa(lp344
S'Feast'
p345
aS'of'
p346
aS'Weeks'
p347
aa(lp348
S'Feast'
p349
aS'of'
p350
aS'Stephen'
p351
aa(lp352
S'Feast'
p353
aS'of'
p354
aS'Pesach'
p355
aa(lp356
S'Feast'
p357
aS'of'
p358
aS'Passover'
p359
aa(lp360
S'Feast'
p361
aS'Of'
p362
aS'Weeks'
p363
aa(lp364
S'Feast'
p365
aS'Of'
p366
aS'Stephen'
p367
aa(lp368
S'Feast'
p369
aS'Of'
p370
aS'Pesach'
p371
aa(lp372
S'Feast'
p373
aS'Of'
p374
aS'Passover'
p375
aa(lp376
S'Fathering'
p377
aS'Sunday'
p378
aa(lp379
S'Fathers'
p380
ag68
aS'Day'
p381
aa(lp382
S'Father'
p383
aS"'s"
p384
aS'Day'
p385
aa(lp386
S'Epiphany'
p387
aa(lp388
S'Eastertide'
p389
aa(lp390
S'Easter'
p391
aS'Sunday'
p392
aa(lp393
S'Easter'
p394
aS'Monday'
p395
aa(lp396
S'Easter'
p397
aa(lp398
S'Diwali'
p399
aa(lp400
S'Dhu-i-Hijja'
p401
aa(lp402
S'Day'
p403
aS'of'
p404
aS'Atonement'
p405
aa(lp406
S'Day'
p407
aS'Of'
p408
aS'Atonement'
p409
aa(lp410
S'D-day'
p411
aa(lp412
S'D-Day'
p413
aa(lp414
S'Corpus'
p415
aS'Christi'
p416
aa(lp417
S'Coronation'
p418
aa(lp419
S'Commonwealth'
p420
aS'Day'
p421
aa(lp422
S'Christmastide'
p423
aa(lp424
S'Christmas'
p425
aS'Eve'
p426
aa(lp427
S'Christmas'
p428
aa(lp429
S'Chinese'
p430
aS'New'
p431
aS'Year'
p432
aa(lp433
S'Chaitra'
p434
aa(lp435
S'Burns'
p436
aS'night'
p437
aa(lp438
S'Burns'
p439
aS'Night'
p440
aa(lp441
S'Boxing'
p442
aS'Day'
p443
aa(lp444
S'Bonfire'
p445
aS'night'
p446
aa(lp447
S'Bonfire'
p448
aS'Night'
p449
aa(lp450
S'Bhadrapada'
p451
aa(lp452
S'Bastille'
p453
aa(lp454
S'Asvina'
p455
aa(lp456
S'Asun'
p457
aa(lp458
S'Assumption'
p459
aS'Sunday'
p460
aa(lp461
S'Assumption'
p462
aa(lp463
S'Assumption'
p464
aa(lp465
S'Ashadha'
p466
aa(lp467
S'Ash'
p468
aS'Wednesday'
p469
aa(lp470
S'Ascension'
p471
aS'Sunday'
p472
aa(lp473
S'April'
p474
aS'Fool'
p475
aS"'s"
p476
aa(lp477
S'All'
p478
aS"Souls'"
p479
aa(lp480
S'All'
p481
aS"Saints'"
p482
aa(lp483
S'All'
p484
aS'Hallows'
p485
aS'Eve'
p486
aa(lp487
S'All'
p488
aS'Hallows'
p489
aa(lp490
S'Advent'
p491
aS'Sunday'
p492
aa(lp493
S'Advent'
p494
aa.