(lp0
(lp1
S'Afghanistan'
p2
aa(lp3
S'\xc5'
p4
aS'land'
p5
aS'Islands'
p6
aa(lp7
S'Albania'
p8
aa(lp9
S'Algeria'
p10
aa(lp11
S'American'
p12
aS'Samoa'
p13
aa(lp14
S'Andorra'
p15
aa(lp16
S'Angola'
p17
aa(lp18
S'Anguilla'
p19
aa(lp20
S'Antigua'
p21
aS'and'
p22
aS'Barbuda'
p23
aa(lp24
S'Argentina'
p25
aa(lp26
S'Armenia'
p27
aa(lp28
S'Aruba'
p29
aa(lp30
S'Australia'
p31
aa(lp32
S'Austria'
p33
aa(lp34
S'Azerbaijan'
p35
aa(lp36
S'Bahamas'
p37
aa(lp38
S'Bangladesh'
p39
aa(lp40
S'Barbados'
p41
aa(lp42
S'Belarus'
p43
aa(lp44
S'Belgium'
p45
aa(lp46
S'Belize'
p47
aa(lp48
S'Benin'
p49
aa(lp50
S'Bermuda'
p51
aa(lp52
S'Bhutan'
p53
aa(lp54
S'Bolivia'
p55
aa(lp56
S'Bosnia'
p57
aS'and'
p58
aS'Herzegovina'
p59
aa(lp60
S'Botswana'
p61
aa(lp62
S'Bouvet'
p63
aS'Island'
p64
aa(lp65
S'Brazil'
p66
aa(lp67
S'British'
p68
aS'Indian'
p69
aS'Ocean'
p70
aS'Territory'
p71
aa(lp72
S'Brunei'
p73
aS'Darussalam'
p74
aa(lp75
S'Bulgaria'
p76
aa(lp77
S'Burkina'
p78
aS'Faso'
p79
aa(lp80
S'Burundi'
p81
aa(lp82
S'Cambodia'
p83
aa(lp84
S'Cameroon'
p85
aa(lp86
S'Canada'
p87
aa(lp88
S'Cape'
p89
aS'Verde'
p90
aa(lp91
S'Cayman'
p92
aS'Islands'
p93
aa(lp94
S'Central'
p95
aS'African'
p96
aS'Republic'
p97
aa(lp98
S'Chad'
p99
aa(lp100
S'Chile'
p101
aa(lp102
S'China'
p103
aa(lp104
S'Christmas'
p105
aS'Island'
p106
aa(lp107
S'Cocos'
p108
aS'('
p109
aS'Keeling'
p110
aS')'
p111
aS'Islands'
p112
aa(lp113
S'Colombia'
p114
aa(lp115
S'Comoros'
p116
aa(lp117
S'Congo'
p118
aa(lp119
S'Congo'
p120
aS','
p121
aS'Democratic'
p122
aS'Republic'
p123
aS'of'
p124
aS'the'
p125
aa(lp126
S'Cook'
p127
aS'Islands'
p128
aa(lp129
S'Costa'
p130
aS'Rica'
p131
aa(lp132
S'C'
p133
aS'\xf4'
p134
aS'te'
p135
aS"d'Ivoire"
p136
aa(lp137
S'Croatia'
p138
aa(lp139
S'Cuba'
p140
aa(lp141
S'Cyprus'
p142
aa(lp143
S'Czech'
p144
aS'Republic'
p145
aa(lp146
S'Djibouti'
p147
aa(lp148
S'Dominica'
p149
aa(lp150
S'Dominican'
p151
aS'Republic'
p152
aa(lp153
S'Ecuador'
p154
aa(lp155
S'Egypt'
p156
aa(lp157
S'El'
p158
aS'Salvador'
p159
aa(lp160
S'Equatorial'
p161
aS'Guinea'
p162
aa(lp163
S'Eritrea'
p164
aa(lp165
S'Estonia'
p166
aa(lp167
S'Ethiopia'
p168
aa(lp169
S'Falkland'
p170
aS'Islands'
p171
ag109
aS'Malvinas'
p172
ag111
aa(lp173
S'Faroe'
p174
aS'Islands'
p175
aa(lp176
S'Fiji'
p177
aa(lp178
S'Finland'
p179
aa(lp180
S'France'
p181
aa(lp182
S'French'
p183
aS'Guiana'
p184
aa(lp185
S'French'
p186
aS'Polynesia'
p187
aa(lp188
S'French'
p189
aS'Southern'
p190
aS'Territories'
p191
aa(lp192
S'Gabon'
p193
aa(lp194
S'Georgia'
p195
aa(lp196
S'Germany'
p197
aa(lp198
S'Ghana'
p199
aa(lp200
S'Gibraltar'
p201
aa(lp202
S'Greece'
p203
aa(lp204
S'Greenland'
p205
aa(lp206
S'Grenada'
p207
aa(lp208
S'Guadeloupe'
p209
aa(lp210
S'Guam'
p211
aa(lp212
S'Guatemala'
p213
aa(lp214
S'Guernsey'
p215
aa(lp216
S'Guinea'
p217
aa(lp218
S'Guinea-Bissau'
p219
aa(lp220
S'Guyana'
p221
aa(lp222
S'Haiti'
p223
aa(lp224
S'Holy'
p225
aS'See'
p226
ag109
aS'Vatican'
p227
aS'City'
p228
aS'State'
p229
ag111
aa(lp230
S'Honduras'
p231
aa(lp232
S'Hong'
p233
aS'Kong'
p234
aa(lp235
S'Hungary'
p236
aa(lp237
S'Iceland'
p238
aa(lp239
S'India'
p240
aa(lp241
S'Indonesia'
p242
aa(lp243
S'Iran'
p244
ag121
aS'Islamic'
p245
aS'Republic'
p246
aS'of'
p247
aa(lp248
S'Iraq'
p249
aa(lp250
S'Ireland'
p251
aa(lp252
S'Isle'
p253
aS'of'
p254
aS'Man'
p255
aa(lp256
S'Israel'
p257
aa(lp258
S'Italy'
p259
aa(lp260
S'Japan'
p261
aa(lp262
S'Jersey'
p263
aa(lp264
S'Jordan'
p265
aa(lp266
S'Kazakhstan'
p267
aa(lp268
S'Kenya'
p269
aa(lp270
S'Kiribati'
p271
aa(lp272
S'Korea'
p273
ag121
aS'Democratic'
p274
aS'People'
p275
aS"'s"
p276
aS'Republic'
p277
aS'of'
p278
aa(lp279
S'Korea'
p280
ag121
aS'Republic'
p281
aS'of'
p282
aa(lp283
S'Kuwait'
p284
aa(lp285
S'Kyrgyzstan'
p286
aa(lp287
S'Lao'
p288
aS'People'
p289
aS"'s"
p290
aS'Democratic'
p291
aS'Republic'
p292
aa(lp293
S'Latvia'
p294
aa(lp295
S'Lebanon'
p296
aa(lp297
S'Lesotho'
p298
aa(lp299
S'Liberia'
p300
aa(lp301
S'Libyan'
p302
aS'Arab'
p303
aS'Jamahiriya'
p304
aa(lp305
S'Liechtenstein'
p306
aa(lp307
S'Lithuania'
p308
aa(lp309
S'Luxembourg'
p310
aa(lp311
S'Macedonia'
p312
ag121
aS'the'
p313
aS'former'
p314
aS'Yugoslav'
p315
aS'Republic'
p316
aS'of'
p317
aa(lp318
S'Madagascar'
p319
aa(lp320
S'Malawi'
p321
aa(lp322
S'Malaysia'
p323
aa(lp324
S'Maldives'
p325
aa(lp326
S'Mali'
p327
aa(lp328
S'Malta'
p329
aa(lp330
S'Marshall'
p331
aS'Islands'
p332
aa(lp333
S'Martinique'
p334
aa(lp335
S'Mauritania'
p336
aa(lp337
S'Mauritius'
p338
aa(lp339
S'Mayotte'
p340
aa(lp341
S'Mexico'
p342
aa(lp343
S'Micronesia'
p344
ag121
aS'Federated'
p345
aS'States'
p346
aS'of'
p347
aa(lp348
S'Moldova'
p349
ag121
aS'Republic'
p350
aS'of'
p351
aa(lp352
S'Monaco'
p353
aa(lp354
S'Mongolia'
p355
aa(lp356
S'Montenegro'
p357
aa(lp358
S'Montserrat'
p359
aa(lp360
S'Morocco'
p361
aa(lp362
S'Mozambique'
p363
aa(lp364
S'Myanmar'
p365
aa(lp366
S'Namibia'
p367
aa(lp368
S'Nauru'
p369
aa(lp370
S'Nepal'
p371
aa(lp372
S'Netherlands'
p373
aa(lp374
S'Netherlands'
p375
aS'Antilles'
p376
aa(lp377
S'New'
p378
aS'Caledonia'
p379
aa(lp380
S'New'
p381
aS'Zealand'
p382
aa(lp383
S'Nicaragua'
p384
aa(lp385
S'Niger'
p386
aa(lp387
S'Nigeria'
p388
aa(lp389
S'Niue'
p390
aa(lp391
S'Norfolk'
p392
aS'Island'
p393
aa(lp394
S'Northern'
p395
aS'Mariana'
p396
aS'Islands'
p397
aa(lp398
S'Norway'
p399
aa(lp400
S'Oman'
p401
aa(lp402
S'Pakistan'
p403
aa(lp404
S'Palau'
p405
aa(lp406
S'Palestinian'
p407
aS'Territory'
p408
ag121
aS'Occupied'
p409
aa(lp410
S'Panama'
p411
aa(lp412
S'Papua'
p413
aS'New'
p414
aS'Guinea'
p415
aa(lp416
S'Paraguay'
p417
aa(lp418
S'Peru'
p419
aa(lp420
S'Philippines'
p421
aa(lp422
S'Pitcairn'
p423
aa(lp424
S'Poland'
p425
aa(lp426
S'Portugal'
p427
aa(lp428
S'Puerto'
p429
aS'Rico'
p430
aa(lp431
S'Qatar'
p432
aa(lp433
S'R'
p434
aS'\xe9'
p435
aS'union'
p436
aa(lp437
S'Russian'
p438
aS'Federation'
p439
aa(lp440
S'Rwanda'
p441
aa(lp442
S'Saint'
p443
aS'Barth'
p444
ag435
aS'lemy'
p445
aa(lp446
S'Saint'
p447
aS'Helena'
p448
aa(lp449
S'Saint'
p450
aS'Kitts'
p451
aS'and'
p452
aS'Nevis'
p453
aa(lp454
S'Saint'
p455
aS'Lucia'
p456
aa(lp457
S'Saint'
p458
aS'Martin'
p459
ag109
aS'French'
p460
aS'part'
p461
ag111
aa(lp462
S'Saint'
p463
aS'Pierre'
p464
aS'and'
p465
aS'Miquelon'
p466
aa(lp467
S'Saint'
p468
aS'Vincent'
p469
aS'and'
p470
aS'the'
p471
aS'Grenadines'
p472
aa(lp473
S'Samoa'
p474
aa(lp475
S'San'
p476
aS'Marino'
p477
aa(lp478
S'Sao'
p479
aS'Tome'
p480
aS'and'
p481
aS'Principe'
p482
aa(lp483
S'Saudi'
p484
aS'Arabia'
p485
aa(lp486
S'Senegal'
p487
aa(lp488
S'Serbia'
p489
aa(lp490
S'Seychelles'
p491
aa(lp492
S'Sierra'
p493
aS'Leone'
p494
aa(lp495
S'Singapore'
p496
aa(lp497
S'Slovakia'
p498
aa(lp499
S'Slovenia'
p500
aa(lp501
S'Solomon'
p502
aS'Islands'
p503
aa(lp504
S'Somalia'
p505
aa(lp506
S'South'
p507
aS'Africa'
p508
aa(lp509
S'South'
p510
aS'Georgia'
p511
aS'and'
p512
aS'the'
p513
aS'South'
p514
aS'Sandwich'
p515
aS'Islands'
p516
aa(lp517
S'Spain'
p518
aa(lp519
S'Sri'
p520
aS'Lanka'
p521
aa(lp522
S'Sudan'
p523
aa(lp524
S'Suriname'
p525
aa(lp526
S'Svalbard'
p527
aS'and'
p528
aS'Jan'
p529
aS'Mayen'
p530
aa(lp531
S'Swaziland'
p532
aa(lp533
S'Sweden'
p534
aa(lp535
S'Switzerland'
p536
aa(lp537
S'Syrian'
p538
aS'Arab'
p539
aS'Republic'
p540
aa(lp541
S'Taiwan'
p542
ag121
aS'Province'
p543
aS'of'
p544
aS'China'
p545
aa(lp546
S'Tanzania'
p547
ag121
aS'United'
p548
aS'Republic'
p549
aS'of'
p550
aa(lp551
S'Thailand'
p552
aa(lp553
S'Timor-Leste'
p554
aa(lp555
S'Togo'
p556
aa(lp557
S'Tokelau'
p558
aa(lp559
S'Tonga'
p560
aa(lp561
S'Trinidad'
p562
aS'and'
p563
aS'Tobago'
p564
aa(lp565
S'Tunisia'
p566
aa(lp567
S'Turkey'
p568
aa(lp569
S'Turkmenistan'
p570
aa(lp571
S'Turks'
p572
aS'and'
p573
aS'Caicos'
p574
aS'Islands'
p575
aa(lp576
S'Tuvalu'
p577
aa(lp578
S'Ukraine'
p579
aa(lp580
S'United'
p581
aS'Arab'
p582
aS'Emirates'
p583
aa(lp584
S'United'
p585
aS'Kingdom'
p586
aa(lp587
S'United'
p588
aS'States'
p589
aa(lp590
S'United'
p591
aS'States'
p592
aS'Minor'
p593
aS'Outlying'
p594
aS'Islands'
p595
aa(lp596
S'Uruguay'
p597
aa(lp598
S'Uzbekistan'
p599
aa(lp600
S'Vanuatu'
p601
aa(lp602
S'Venezuela'
p603
aa(lp604
S'Viet'
p605
aS'Nam'
p606
aa(lp607
S'Virgin'
p608
aS'Islands'
p609
ag121
aS'British'
p610
aa(lp611
S'Virgin'
p612
aS'Islands'
p613
ag121
aS'U.S'
p614
aS'.'
p615
aa(lp616
S'Wallis'
p617
aS'and'
p618
aS'Futuna'
p619
aa(lp620
S'Yemen'
p621
aa(lp622
S'Zambia'
p623
aa(lp624
S'Zimbabwe'
p625
aa.