(lp0
(lp1
S'Afghan'
p2
aa(lp3
S'Albanian'
p4
aa(lp5
S'Algerian'
p6
aa(lp7
S'American'
p8
aa(lp9
S'Andorran'
p10
aa(lp11
S'Angolan'
p12
aa(lp13
S'Antiguans'
p14
aa(lp15
S'Argentinean'
p16
aa(lp17
S'Armenian'
p18
aa(lp19
S'Australian'
p20
aa(lp21
S'Austrian'
p22
aa(lp23
S'Azerbaijani'
p24
aa(lp25
S'Bahamian'
p26
aa(lp27
S'Bahraini'
p28
aa(lp29
S'Bangladeshi'
p30
aa(lp31
S'Barbadian'
p32
aa(lp33
S'Barbudans'
p34
aa(lp35
S'Batswana'
p36
aa(lp37
S'Belarusian'
p38
aa(lp39
S'Belgian'
p40
aa(lp41
S'Belizean'
p42
aa(lp43
S'Beninese'
p44
aa(lp45
S'Bhutanese'
p46
aa(lp47
S'Bolivian'
p48
aa(lp49
S'Bosnian'
p50
aa(lp51
S'Brazilian'
p52
aa(lp53
S'British'
p54
aa(lp55
S'Bruneian'
p56
aa(lp57
S'Bulgarian'
p58
aa(lp59
S'Burkinabe'
p60
aa(lp61
S'Burmese'
p62
aa(lp63
S'Burundian'
p64
aa(lp65
S'Cambodian'
p66
aa(lp67
S'Cameroonian'
p68
aa(lp69
S'Canadian'
p70
aa(lp71
S'Cape'
p72
aS'Verdean'
p73
aa(lp74
S'Central'
p75
aS'African'
p76
aa(lp77
S'Chadian'
p78
aa(lp79
S'Chilean'
p80
aa(lp81
S'Chinese'
p82
aa(lp83
S'Colombian'
p84
aa(lp85
S'Comoran'
p86
aa(lp87
S'Congolese'
p88
aa(lp89
S'Congolese'
p90
aa(lp91
S'Costa'
p92
aS'Rican'
p93
aa(lp94
S'Croatian'
p95
aa(lp96
S'Cuban'
p97
aa(lp98
S'Cypriot'
p99
aa(lp100
S'Czech'
p101
aa(lp102
S'Danish'
p103
aa(lp104
S'Djibouti'
p105
aa(lp106
S'Dominican'
p107
aa(lp108
S'Dominican'
p109
aa(lp110
S'Dutch'
p111
aa(lp112
S'Dutchman'
p113
aa(lp114
S'Dutchwoman'
p115
aa(lp116
S'East'
p117
aS'Timorese'
p118
aa(lp119
S'Ecuadorean'
p120
aa(lp121
S'Egyptian'
p122
aa(lp123
S'Emirian'
p124
aa(lp125
S'Equatorial'
p126
aS'Guinean'
p127
aa(lp128
S'Eritrean'
p129
aa(lp130
S'Estonian'
p131
aa(lp132
S'Ethiopian'
p133
aa(lp134
S'Fijian'
p135
aa(lp136
S'Filipino'
p137
aa(lp138
S'Finnish'
p139
aa(lp140
S'French'
p141
aa(lp142
S'Gabonese'
p143
aa(lp144
S'Gambian'
p145
aa(lp146
S'Georgian'
p147
aa(lp148
S'German'
p149
aa(lp150
S'Ghanaian'
p151
aa(lp152
S'Greek'
p153
aa(lp154
S'Grenadian'
p155
aa(lp156
S'Guatemalan'
p157
aa(lp158
S'Guinea-Bissauan'
p159
aa(lp160
S'Guinean'
p161
aa(lp162
S'Guyanese'
p163
aa(lp164
S'Haitian'
p165
aa(lp166
S'Herzegovinian'
p167
aa(lp168
S'Honduran'
p169
aa(lp170
S'Hungarian'
p171
aa(lp172
S'I-Kiribati'
p173
aa(lp174
S'Icelander'
p175
aa(lp176
S'Indian'
p177
aa(lp178
S'Indonesian'
p179
aa(lp180
S'Iranian'
p181
aa(lp182
S'Iraqi'
p183
aa(lp184
S'Irish'
p185
aa(lp186
S'Irish'
p187
aa(lp188
S'Israeli'
p189
aa(lp190
S'Italian'
p191
aa(lp192
S'Ivorian'
p193
aa(lp194
S'Jamaican'
p195
aa(lp196
S'Japanese'
p197
aa(lp198
S'Jordanian'
p199
aa(lp200
S'Kazakhstani'
p201
aa(lp202
S'Kenyan'
p203
aa(lp204
S'Kittian'
p205
aS'and'
p206
aS'Nevisian'
p207
aa(lp208
S'Kuwaiti'
p209
aa(lp210
S'Kyrgyz'
p211
aa(lp212
S'Laotian'
p213
aa(lp214
S'Latvian'
p215
aa(lp216
S'Lebanese'
p217
aa(lp218
S'Liberian'
p219
aa(lp220
S'Libyan'
p221
aa(lp222
S'Liechtensteiner'
p223
aa(lp224
S'Lithuanian'
p225
aa(lp226
S'Luxembourger'
p227
aa(lp228
S'Macedonian'
p229
aa(lp230
S'Malagasy'
p231
aa(lp232
S'Malawian'
p233
aa(lp234
S'Malaysian'
p235
aa(lp236
S'Maldivan'
p237
aa(lp238
S'Malian'
p239
aa(lp240
S'Maltese'
p241
aa(lp242
S'Marshallese'
p243
aa(lp244
S'Mauritanian'
p245
aa(lp246
S'Mauritian'
p247
aa(lp248
S'Mexican'
p249
aa(lp250
S'Micronesian'
p251
aa(lp252
S'Moldovan'
p253
aa(lp254
S'Monacan'
p255
aa(lp256
S'Mongolian'
p257
aa(lp258
S'Moroccan'
p259
aa(lp260
S'Mosotho'
p261
aa(lp262
S'Motswana'
p263
aa(lp264
S'Mozambican'
p265
aa(lp266
S'Namibian'
p267
aa(lp268
S'Nauruan'
p269
aa(lp270
S'Nepalese'
p271
aa(lp272
S'Netherlander'
p273
aa(lp274
S'New'
p275
aS'Zealander'
p276
aa(lp277
S'Ni-Vanuatu'
p278
aa(lp279
S'Nicaraguan'
p280
aa(lp281
S'Nigerian'
p282
aa(lp283
S'Nigerien'
p284
aa(lp285
S'North'
p286
aS'Korean'
p287
aa(lp288
S'Northern'
p289
aS'Irish'
p290
aa(lp291
S'Norwegian'
p292
aa(lp293
S'Omani'
p294
aa(lp295
S'Pakistani'
p296
aa(lp297
S'Palauan'
p298
aa(lp299
S'Panamanian'
p300
aa(lp301
S'Papua'
p302
aS'New'
p303
aS'Guinean'
p304
aa(lp305
S'Paraguayan'
p306
aa(lp307
S'Peruvian'
p308
aa(lp309
S'Polish'
p310
aa(lp311
S'Portuguese'
p312
aa(lp313
S'Qatari'
p314
aa(lp315
S'Romanian'
p316
aa(lp317
S'Russian'
p318
aa(lp319
S'Rwandan'
p320
aa(lp321
S'Saint'
p322
aS'Lucian'
p323
aa(lp324
S'Salvadoran'
p325
aa(lp326
S'Samoan'
p327
aa(lp328
S'San'
p329
aS'Marinese'
p330
aa(lp331
S'Sao'
p332
aS'Tomean'
p333
aa(lp334
S'Saudi'
p335
aa(lp336
S'Scottish'
p337
aa(lp338
S'Senegalese'
p339
aa(lp340
S'Serbian'
p341
aa(lp342
S'Seychellois'
p343
aa(lp344
S'Sierra'
p345
aS'Leonean'
p346
aa(lp347
S'Singaporean'
p348
aa(lp349
S'Slovakian'
p350
aa(lp351
S'Slovenian'
p352
aa(lp353
S'Solomon'
p354
aS'Islander'
p355
aa(lp356
S'Somali'
p357
aa(lp358
S'South'
p359
aS'African'
p360
aa(lp361
S'South'
p362
aS'Korean'
p363
aa(lp364
S'Spanish'
p365
aa(lp366
S'Sri'
p367
aS'Lankan'
p368
aa(lp369
S'Sudanese'
p370
aa(lp371
S'Surinamer'
p372
aa(lp373
S'Swazi'
p374
aa(lp375
S'Swedish'
p376
aa(lp377
S'Swiss'
p378
aa(lp379
S'Syrian'
p380
aa(lp381
S'Taiwanese'
p382
aa(lp383
S'Tajik'
p384
aa(lp385
S'Tanzanian'
p386
aa(lp387
S'Thai'
p388
aa(lp389
S'Togolese'
p390
aa(lp391
S'Tongan'
p392
aa(lp393
S'Trinidadian'
p394
aS'or'
p395
aS'Tobagonian'
p396
aa(lp397
S'Tunisian'
p398
aa(lp399
S'Turkish'
p400
aa(lp401
S'Tuvaluan'
p402
aa(lp403
S'Ugandan'
p404
aa(lp405
S'Ukrainian'
p406
aa(lp407
S'Uruguayan'
p408
aa(lp409
S'Uzbekistani'
p410
aa(lp411
S'Venezuelan'
p412
aa(lp413
S'Vietnamese'
p414
aa(lp415
S'Welsh'
p416
aa(lp417
S'Welsh'
p418
aa(lp419
S'Yemenite'
p420
aa(lp421
S'Zambian'
p422
aa(lp423
S'Zimbabwean'
p424
aa.