(lp0
(lp1
S'i'
p2
aa(lp3
S'me'
p4
aa(lp5
S'my'
p6
aa(lp7
S'myself'
p8
aa(lp9
S'we'
p10
aa(lp11
S'our'
p12
aa(lp13
S'ours'
p14
aa(lp15
S'ourselves'
p16
aa(lp17
S'you'
p18
aa(lp19
S'your'
p20
aa(lp21
S'yours'
p22
aa(lp23
S'yourself'
p24
aa(lp25
S'yourselves'
p26
aa(lp27
S'he'
p28
aa(lp29
S'him'
p30
aa(lp31
S'his'
p32
aa(lp33
S'himself'
p34
aa(lp35
S'she'
p36
aa(lp37
S'her'
p38
aa(lp39
S'hers'
p40
aa(lp41
S'herself'
p42
aa(lp43
S'it'
p44
aa(lp45
S'its'
p46
aa(lp47
S'itself'
p48
aa(lp49
S'they'
p50
aa(lp51
S'them'
p52
aa(lp53
S'their'
p54
aa(lp55
S'theirs'
p56
aa(lp57
S'themselves'
p58
aa(lp59
S'what'
p60
aa(lp61
S'which'
p62
aa(lp63
S'who'
p64
aa(lp65
S'whom'
p66
aa(lp67
S'this'
p68
aa(lp69
S'that'
p70
aa(lp71
S'these'
p72
aa(lp73
S'those'
p74
aa(lp75
S'am'
p76
aa(lp77
S'is'
p78
aa(lp79
S'are'
p80
aa(lp81
S'was'
p82
aa(lp83
S'were'
p84
aa(lp85
S'be'
p86
aa(lp87
S'been'
p88
aa(lp89
S'being'
p90
aa(lp91
S'have'
p92
aa(lp93
S'has'
p94
aa(lp95
S'had'
p96
aa(lp97
S'having'
p98
aa(lp99
S'do'
p100
aa(lp101
S'does'
p102
aa(lp103
S'did'
p104
aa(lp105
S'doing'
p106
aa(lp107
S'a'
p108
aa(lp109
S'an'
p110
aa(lp111
S'the'
p112
aa(lp113
S'and'
p114
aa(lp115
S'but'
p116
aa(lp117
S'if'
p118
aa(lp119
S'or'
p120
aa(lp121
S'because'
p122
aa(lp123
S'as'
p124
aa(lp125
S'until'
p126
aa(lp127
S'while'
p128
aa(lp129
S'of'
p130
aa(lp131
S'at'
p132
aa(lp133
S'by'
p134
aa(lp135
S'for'
p136
aa(lp137
S'with'
p138
aa(lp139
S'about'
p140
aa(lp141
S'against'
p142
aa(lp143
S'between'
p144
aa(lp145
S'into'
p146
aa(lp147
S'through'
p148
aa(lp149
S'during'
p150
aa(lp151
S'before'
p152
aa(lp153
S'after'
p154
aa(lp155
S'above'
p156
aa(lp157
S'below'
p158
aa(lp159
S'to'
p160
aa(lp161
S'from'
p162
aa(lp163
S'up'
p164
aa(lp165
S'down'
p166
aa(lp167
S'in'
p168
aa(lp169
S'out'
p170
aa(lp171
S'on'
p172
aa(lp173
S'off'
p174
aa(lp175
S'over'
p176
aa(lp177
S'under'
p178
aa(lp179
S'again'
p180
aa(lp181
S'further'
p182
aa(lp183
S'then'
p184
aa(lp185
S'once'
p186
aa(lp187
S'here'
p188
aa(lp189
S'there'
p190
aa(lp191
S'when'
p192
aa(lp193
S'where'
p194
aa(lp195
S'why'
p196
aa(lp197
S'how'
p198
aa(lp199
S'all'
p200
aa(lp201
S'any'
p202
aa(lp203
S'both'
p204
aa(lp205
S'each'
p206
aa(lp207
S'few'
p208
aa(lp209
S'more'
p210
aa(lp211
S'most'
p212
aa(lp213
S'other'
p214
aa(lp215
S'some'
p216
aa(lp217
S'such'
p218
aa(lp219
S'no'
p220
aa(lp221
S'nor'
p222
aa(lp223
S'not'
p224
aa(lp225
S'only'
p226
aa(lp227
S'own'
p228
aa(lp229
S'same'
p230
aa(lp231
S'so'
p232
aa(lp233
S'than'
p234
aa(lp235
S'too'
p236
aa(lp237
S'very'
p238
aa(lp239
S's'
p240
aa(lp241
S't'
p242
aa(lp243
S'can'
p244
aa(lp245
S'will'
p246
aa(lp247
S'just'
p248
aa(lp249
S'don'
p250
aa(lp251
S'should'
p252
aa(lp253
S'now'
p254
aa.