ccopy_reg
_reconstructor
p1
(cclassifier
ClassificationModel
p2
c__builtin__
object
p3
NtRp4
(dp5
S'path_topology'
p6
S'models/tempeval3.template'
p7
sS'path_factors'
p8
S'models/tempeval3.factors'
p9
sS'name'
p10
S'tempeval3'
p11
sS'path_header'
p12
S'models/tempeval3.header'
p13
sS'num_of_features'
p14
I136
sS'extractors_md5'
p15
S'M\xb6\x1cW\xd6\x8e\x97K\xbe\xca\x10\xc4\xb3c\xd5\x00'
p16
sS'path'
p17
S'models/tempeval3.model'
p18
sS'path_normalisation'
p19
S'models/tempeval3.normalisation.model'
p20
sS'topology'
p21
(lp22
S'U0000000:%x[-1,0]'
p23
aS'U0000001:%x[-1,0]/%x[0,0]'
p24
aS'U0000002:%x[-1,0]/%x[0,0]/%x[1,0]'
p25
aS'U0000003:%x[-1,0]/%x[1,0]'
p26
aS'U0000004:%x[-1,100]'
p27
aS'U0000005:%x[-1,100]/%x[0,100]'
p28
aS'U0000006:%x[-1,100]/%x[0,100]/%x[1,100]'
p29
aS'U0000007:%x[-1,100]/%x[1,100]'
p30
aS'U0000008:%x[-1,101]'
p31
aS'U0000009:%x[-1,101]/%x[0,101]'
p32
aS'U0000010:%x[-1,101]/%x[0,101]/%x[1,101]'
p33
aS'U0000011:%x[-1,101]/%x[1,101]'
p34
aS'U0000012:%x[-1,102]'
p35
aS'U0000013:%x[-1,102]/%x[0,102]'
p36
aS'U0000014:%x[-1,102]/%x[0,102]/%x[1,102]'
p37
aS'U0000015:%x[-1,102]/%x[1,102]'
p38
aS'U0000016:%x[-1,103]'
p39
aS'U0000017:%x[-1,103]/%x[0,103]'
p40
aS'U0000018:%x[-1,103]/%x[0,103]/%x[1,103]'
p41
aS'U0000019:%x[-1,103]/%x[1,103]'
p42
aS'U0000020:%x[-1,104]'
p43
aS'U0000021:%x[-1,104]/%x[0,104]'
p44
aS'U0000022:%x[-1,104]/%x[0,104]/%x[1,104]'
p45
aS'U0000023:%x[-1,104]/%x[1,104]'
p46
aS'U0000024:%x[-1,105]'
p47
aS'U0000025:%x[-1,105]/%x[0,105]'
p48
aS'U0000026:%x[-1,105]/%x[0,105]/%x[1,105]'
p49
aS'U0000027:%x[-1,105]/%x[1,105]'
p50
aS'U0000028:%x[-1,106]'
p51
aS'U0000029:%x[-1,106]/%x[0,106]'
p52
aS'U0000030:%x[-1,106]/%x[0,106]/%x[1,106]'
p53
aS'U0000031:%x[-1,106]/%x[1,106]'
p54
aS'U0000032:%x[-1,107]'
p55
aS'U0000033:%x[-1,107]/%x[0,107]'
p56
aS'U0000034:%x[-1,107]/%x[0,107]/%x[1,107]'
p57
aS'U0000035:%x[-1,107]/%x[1,107]'
p58
aS'U0000036:%x[-1,108]'
p59
aS'U0000037:%x[-1,108]/%x[0,108]'
p60
aS'U0000038:%x[-1,108]/%x[0,108]/%x[1,108]'
p61
aS'U0000039:%x[-1,108]/%x[1,108]'
p62
aS'U0000040:%x[-1,109]'
p63
aS'U0000041:%x[-1,109]/%x[0,109]'
p64
aS'U0000042:%x[-1,109]/%x[0,109]/%x[1,109]'
p65
aS'U0000043:%x[-1,109]/%x[1,109]'
p66
aS'U0000044:%x[-1,10]'
p67
aS'U0000045:%x[-1,10]/%x[0,10]'
p68
aS'U0000046:%x[-1,10]/%x[0,10]/%x[1,10]'
p69
aS'U0000047:%x[-1,10]/%x[1,10]'
p70
aS'U0000048:%x[-1,110]'
p71
aS'U0000049:%x[-1,110]/%x[0,110]'
p72
aS'U0000050:%x[-1,110]/%x[0,110]/%x[1,110]'
p73
aS'U0000051:%x[-1,110]/%x[1,110]'
p74
aS'U0000052:%x[-1,111]'
p75
aS'U0000053:%x[-1,111]/%x[0,111]'
p76
aS'U0000054:%x[-1,111]/%x[0,111]/%x[1,111]'
p77
aS'U0000055:%x[-1,111]/%x[1,111]'
p78
aS'U0000056:%x[-1,112]'
p79
aS'U0000057:%x[-1,112]/%x[0,112]'
p80
aS'U0000058:%x[-1,112]/%x[0,112]/%x[1,112]'
p81
aS'U0000059:%x[-1,112]/%x[1,112]'
p82
aS'U0000060:%x[-1,113]'
p83
aS'U0000061:%x[-1,113]/%x[0,113]'
p84
aS'U0000062:%x[-1,113]/%x[0,113]/%x[1,113]'
p85
aS'U0000063:%x[-1,113]/%x[1,113]'
p86
aS'U0000064:%x[-1,114]'
p87
aS'U0000065:%x[-1,114]/%x[0,114]'
p88
aS'U0000066:%x[-1,114]/%x[0,114]/%x[1,114]'
p89
aS'U0000067:%x[-1,114]/%x[1,114]'
p90
aS'U0000068:%x[-1,115]'
p91
aS'U0000069:%x[-1,115]/%x[0,115]'
p92
aS'U0000070:%x[-1,115]/%x[0,115]/%x[1,115]'
p93
aS'U0000071:%x[-1,115]/%x[1,115]'
p94
aS'U0000072:%x[-1,116]'
p95
aS'U0000073:%x[-1,116]/%x[0,116]'
p96
aS'U0000074:%x[-1,116]/%x[0,116]/%x[1,116]'
p97
aS'U0000075:%x[-1,116]/%x[1,116]'
p98
aS'U0000076:%x[-1,117]'
p99
aS'U0000077:%x[-1,117]/%x[0,117]'
p100
aS'U0000078:%x[-1,117]/%x[0,117]/%x[1,117]'
p101
aS'U0000079:%x[-1,117]/%x[1,117]'
p102
aS'U0000080:%x[-1,118]'
p103
aS'U0000081:%x[-1,118]/%x[0,118]'
p104
aS'U0000082:%x[-1,118]/%x[0,118]/%x[1,118]'
p105
aS'U0000083:%x[-1,118]/%x[1,118]'
p106
aS'U0000084:%x[-1,119]'
p107
aS'U0000085:%x[-1,119]/%x[0,119]'
p108
aS'U0000086:%x[-1,119]/%x[0,119]/%x[1,119]'
p109
aS'U0000087:%x[-1,119]/%x[1,119]'
p110
aS'U0000088:%x[-1,11]'
p111
aS'U0000089:%x[-1,11]/%x[0,11]'
p112
aS'U0000090:%x[-1,11]/%x[0,11]/%x[1,11]'
p113
aS'U0000091:%x[-1,11]/%x[1,11]'
p114
aS'U0000092:%x[-1,120]'
p115
aS'U0000093:%x[-1,120]/%x[0,120]'
p116
aS'U0000094:%x[-1,120]/%x[0,120]/%x[1,120]'
p117
aS'U0000095:%x[-1,120]/%x[1,120]'
p118
aS'U0000096:%x[-1,121]'
p119
aS'U0000097:%x[-1,121]/%x[0,121]'
p120
aS'U0000098:%x[-1,121]/%x[0,121]/%x[1,121]'
p121
aS'U0000099:%x[-1,121]/%x[1,121]'
p122
aS'U0000100:%x[-1,122]'
p123
aS'U0000101:%x[-1,122]/%x[0,122]'
p124
aS'U0000102:%x[-1,122]/%x[0,122]/%x[1,122]'
p125
aS'U0000103:%x[-1,122]/%x[1,122]'
p126
aS'U0000104:%x[-1,123]'
p127
aS'U0000105:%x[-1,123]/%x[0,123]'
p128
aS'U0000106:%x[-1,123]/%x[0,123]/%x[1,123]'
p129
aS'U0000107:%x[-1,123]/%x[1,123]'
p130
aS'U0000108:%x[-1,124]'
p131
aS'U0000109:%x[-1,124]/%x[0,124]'
p132
aS'U0000110:%x[-1,124]/%x[0,124]/%x[1,124]'
p133
aS'U0000111:%x[-1,124]/%x[1,124]'
p134
aS'U0000112:%x[-1,125]'
p135
aS'U0000113:%x[-1,125]/%x[0,125]'
p136
aS'U0000114:%x[-1,125]/%x[0,125]/%x[1,125]'
p137
aS'U0000115:%x[-1,125]/%x[1,125]'
p138
aS'U0000116:%x[-1,126]'
p139
aS'U0000117:%x[-1,126]/%x[0,126]'
p140
aS'U0000118:%x[-1,126]/%x[0,126]/%x[1,126]'
p141
aS'U0000119:%x[-1,126]/%x[1,126]'
p142
aS'U0000120:%x[-1,127]'
p143
aS'U0000121:%x[-1,127]/%x[0,127]'
p144
aS'U0000122:%x[-1,127]/%x[0,127]/%x[1,127]'
p145
aS'U0000123:%x[-1,127]/%x[1,127]'
p146
aS'U0000124:%x[-1,128]'
p147
aS'U0000125:%x[-1,128]/%x[0,128]'
p148
aS'U0000126:%x[-1,128]/%x[0,128]/%x[1,128]'
p149
aS'U0000127:%x[-1,128]/%x[1,128]'
p150
aS'U0000128:%x[-1,129]'
p151
aS'U0000129:%x[-1,129]/%x[0,129]'
p152
aS'U0000130:%x[-1,129]/%x[0,129]/%x[1,129]'
p153
aS'U0000131:%x[-1,129]/%x[1,129]'
p154
aS'U0000132:%x[-1,12]'
p155
aS'U0000133:%x[-1,12]/%x[0,12]'
p156
aS'U0000134:%x[-1,12]/%x[0,12]/%x[1,12]'
p157
aS'U0000135:%x[-1,12]/%x[1,12]'
p158
aS'U0000136:%x[-1,130]'
p159
aS'U0000137:%x[-1,130]/%x[0,130]'
p160
aS'U0000138:%x[-1,130]/%x[0,130]/%x[1,130]'
p161
aS'U0000139:%x[-1,130]/%x[1,130]'
p162
aS'U0000140:%x[-1,131]'
p163
aS'U0000141:%x[-1,131]/%x[0,131]'
p164
aS'U0000142:%x[-1,131]/%x[0,131]/%x[1,131]'
p165
aS'U0000143:%x[-1,131]/%x[1,131]'
p166
aS'U0000144:%x[-1,132]'
p167
aS'U0000145:%x[-1,132]/%x[0,132]'
p168
aS'U0000146:%x[-1,132]/%x[0,132]/%x[1,132]'
p169
aS'U0000147:%x[-1,132]/%x[1,132]'
p170
aS'U0000148:%x[-1,133]'
p171
aS'U0000149:%x[-1,133]/%x[0,133]'
p172
aS'U0000150:%x[-1,133]/%x[0,133]/%x[1,133]'
p173
aS'U0000151:%x[-1,133]/%x[1,133]'
p174
aS'U0000152:%x[-1,134]'
p175
aS'U0000153:%x[-1,134]/%x[0,134]'
p176
aS'U0000154:%x[-1,134]/%x[0,134]/%x[1,134]'
p177
aS'U0000155:%x[-1,134]/%x[1,134]'
p178
aS'U0000156:%x[-1,135]'
p179
aS'U0000157:%x[-1,135]/%x[0,135]'
p180
aS'U0000158:%x[-1,135]/%x[0,135]/%x[1,135]'
p181
aS'U0000159:%x[-1,135]/%x[1,135]'
p182
aS'U0000160:%x[-1,13]'
p183
aS'U0000161:%x[-1,13]/%x[0,13]'
p184
aS'U0000162:%x[-1,13]/%x[0,13]/%x[1,13]'
p185
aS'U0000163:%x[-1,13]/%x[1,13]'
p186
aS'U0000164:%x[-1,14]'
p187
aS'U0000165:%x[-1,14]/%x[0,14]'
p188
aS'U0000166:%x[-1,14]/%x[0,14]/%x[1,14]'
p189
aS'U0000167:%x[-1,14]/%x[1,14]'
p190
aS'U0000168:%x[-1,15]'
p191
aS'U0000169:%x[-1,15]/%x[0,15]'
p192
aS'U0000170:%x[-1,15]/%x[0,15]/%x[1,15]'
p193
aS'U0000171:%x[-1,15]/%x[1,15]'
p194
aS'U0000172:%x[-1,16]'
p195
aS'U0000173:%x[-1,16]/%x[0,16]'
p196
aS'U0000174:%x[-1,16]/%x[0,16]/%x[1,16]'
p197
aS'U0000175:%x[-1,16]/%x[1,16]'
p198
aS'U0000176:%x[-1,17]'
p199
aS'U0000177:%x[-1,17]/%x[0,17]'
p200
aS'U0000178:%x[-1,17]/%x[0,17]/%x[1,17]'
p201
aS'U0000179:%x[-1,17]/%x[1,17]'
p202
aS'U0000180:%x[-1,18]'
p203
aS'U0000181:%x[-1,18]/%x[0,18]'
p204
aS'U0000182:%x[-1,18]/%x[0,18]/%x[1,18]'
p205
aS'U0000183:%x[-1,18]/%x[1,18]'
p206
aS'U0000184:%x[-1,19]'
p207
aS'U0000185:%x[-1,19]/%x[0,19]'
p208
aS'U0000186:%x[-1,19]/%x[0,19]/%x[1,19]'
p209
aS'U0000187:%x[-1,19]/%x[1,19]'
p210
aS'U0000188:%x[-1,1]'
p211
aS'U0000189:%x[-1,1]/%x[0,1]'
p212
aS'U0000190:%x[-1,1]/%x[0,1]/%x[1,1]'
p213
aS'U0000191:%x[-1,1]/%x[1,1]'
p214
aS'U0000192:%x[-1,20]'
p215
aS'U0000193:%x[-1,20]/%x[0,20]'
p216
aS'U0000194:%x[-1,20]/%x[0,20]/%x[1,20]'
p217
aS'U0000195:%x[-1,20]/%x[1,20]'
p218
aS'U0000196:%x[-1,21]'
p219
aS'U0000197:%x[-1,21]/%x[0,21]'
p220
aS'U0000198:%x[-1,21]/%x[0,21]/%x[1,21]'
p221
aS'U0000199:%x[-1,21]/%x[1,21]'
p222
aS'U0000200:%x[-1,22]'
p223
aS'U0000201:%x[-1,22]/%x[0,22]'
p224
aS'U0000202:%x[-1,22]/%x[0,22]/%x[1,22]'
p225
aS'U0000203:%x[-1,22]/%x[1,22]'
p226
aS'U0000204:%x[-1,23]'
p227
aS'U0000205:%x[-1,23]/%x[0,23]'
p228
aS'U0000206:%x[-1,23]/%x[0,23]/%x[1,23]'
p229
aS'U0000207:%x[-1,23]/%x[1,23]'
p230
aS'U0000208:%x[-1,24]'
p231
aS'U0000209:%x[-1,24]/%x[0,24]'
p232
aS'U0000210:%x[-1,24]/%x[0,24]/%x[1,24]'
p233
aS'U0000211:%x[-1,24]/%x[1,24]'
p234
aS'U0000212:%x[-1,25]'
p235
aS'U0000213:%x[-1,25]/%x[0,25]'
p236
aS'U0000214:%x[-1,25]/%x[0,25]/%x[1,25]'
p237
aS'U0000215:%x[-1,25]/%x[1,25]'
p238
aS'U0000216:%x[-1,26]'
p239
aS'U0000217:%x[-1,26]/%x[0,26]'
p240
aS'U0000218:%x[-1,26]/%x[0,26]/%x[1,26]'
p241
aS'U0000219:%x[-1,26]/%x[1,26]'
p242
aS'U0000220:%x[-1,27]'
p243
aS'U0000221:%x[-1,27]/%x[0,27]'
p244
aS'U0000222:%x[-1,27]/%x[0,27]/%x[1,27]'
p245
aS'U0000223:%x[-1,27]/%x[1,27]'
p246
aS'U0000224:%x[-1,28]'
p247
aS'U0000225:%x[-1,28]/%x[0,28]'
p248
aS'U0000226:%x[-1,28]/%x[0,28]/%x[1,28]'
p249
aS'U0000227:%x[-1,28]/%x[1,28]'
p250
aS'U0000228:%x[-1,29]'
p251
aS'U0000229:%x[-1,29]/%x[0,29]'
p252
aS'U0000230:%x[-1,29]/%x[0,29]/%x[1,29]'
p253
aS'U0000231:%x[-1,29]/%x[1,29]'
p254
aS'U0000232:%x[-1,2]'
p255
aS'U0000233:%x[-1,2]/%x[0,2]'
p256
aS'U0000234:%x[-1,2]/%x[0,2]/%x[1,2]'
p257
aS'U0000235:%x[-1,2]/%x[1,2]'
p258
aS'U0000236:%x[-1,30]'
p259
aS'U0000237:%x[-1,30]/%x[0,30]'
p260
aS'U0000238:%x[-1,30]/%x[0,30]/%x[1,30]'
p261
aS'U0000239:%x[-1,30]/%x[1,30]'
p262
aS'U0000240:%x[-1,31]'
p263
aS'U0000241:%x[-1,31]/%x[0,31]'
p264
aS'U0000242:%x[-1,31]/%x[0,31]/%x[1,31]'
p265
aS'U0000243:%x[-1,31]/%x[1,31]'
p266
aS'U0000244:%x[-1,32]'
p267
aS'U0000245:%x[-1,32]/%x[0,32]'
p268
aS'U0000246:%x[-1,32]/%x[0,32]/%x[1,32]'
p269
aS'U0000247:%x[-1,32]/%x[1,32]'
p270
aS'U0000248:%x[-1,33]'
p271
aS'U0000249:%x[-1,33]/%x[0,33]'
p272
aS'U0000250:%x[-1,33]/%x[0,33]/%x[1,33]'
p273
aS'U0000251:%x[-1,33]/%x[1,33]'
p274
aS'U0000252:%x[-1,34]'
p275
aS'U0000253:%x[-1,34]/%x[0,34]'
p276
aS'U0000254:%x[-1,34]/%x[0,34]/%x[1,34]'
p277
aS'U0000255:%x[-1,34]/%x[1,34]'
p278
aS'U0000256:%x[-1,35]'
p279
aS'U0000257:%x[-1,35]/%x[0,35]'
p280
aS'U0000258:%x[-1,35]/%x[0,35]/%x[1,35]'
p281
aS'U0000259:%x[-1,35]/%x[1,35]'
p282
aS'U0000260:%x[-1,36]'
p283
aS'U0000261:%x[-1,36]/%x[0,36]'
p284
aS'U0000262:%x[-1,36]/%x[0,36]/%x[1,36]'
p285
aS'U0000263:%x[-1,36]/%x[1,36]'
p286
aS'U0000264:%x[-1,37]'
p287
aS'U0000265:%x[-1,37]/%x[0,37]'
p288
aS'U0000266:%x[-1,37]/%x[0,37]/%x[1,37]'
p289
aS'U0000267:%x[-1,37]/%x[1,37]'
p290
aS'U0000268:%x[-1,38]'
p291
aS'U0000269:%x[-1,38]/%x[0,38]'
p292
aS'U0000270:%x[-1,38]/%x[0,38]/%x[1,38]'
p293
aS'U0000271:%x[-1,38]/%x[1,38]'
p294
aS'U0000272:%x[-1,39]'
p295
aS'U0000273:%x[-1,39]/%x[0,39]'
p296
aS'U0000274:%x[-1,39]/%x[0,39]/%x[1,39]'
p297
aS'U0000275:%x[-1,39]/%x[1,39]'
p298
aS'U0000276:%x[-1,3]'
p299
aS'U0000277:%x[-1,3]/%x[0,3]'
p300
aS'U0000278:%x[-1,3]/%x[0,3]/%x[1,3]'
p301
aS'U0000279:%x[-1,3]/%x[1,3]'
p302
aS'U0000280:%x[-1,40]'
p303
aS'U0000281:%x[-1,40]/%x[0,40]'
p304
aS'U0000282:%x[-1,40]/%x[0,40]/%x[1,40]'
p305
aS'U0000283:%x[-1,40]/%x[1,40]'
p306
aS'U0000284:%x[-1,41]'
p307
aS'U0000285:%x[-1,41]/%x[0,41]'
p308
aS'U0000286:%x[-1,41]/%x[0,41]/%x[1,41]'
p309
aS'U0000287:%x[-1,41]/%x[1,41]'
p310
aS'U0000288:%x[-1,42]'
p311
aS'U0000289:%x[-1,42]/%x[0,42]'
p312
aS'U0000290:%x[-1,42]/%x[0,42]/%x[1,42]'
p313
aS'U0000291:%x[-1,42]/%x[1,42]'
p314
aS'U0000292:%x[-1,43]'
p315
aS'U0000293:%x[-1,43]/%x[0,43]'
p316
aS'U0000294:%x[-1,43]/%x[0,43]/%x[1,43]'
p317
aS'U0000295:%x[-1,43]/%x[1,43]'
p318
aS'U0000296:%x[-1,44]'
p319
aS'U0000297:%x[-1,44]/%x[0,44]'
p320
aS'U0000298:%x[-1,44]/%x[0,44]/%x[1,44]'
p321
aS'U0000299:%x[-1,44]/%x[1,44]'
p322
aS'U0000300:%x[-1,45]'
p323
aS'U0000301:%x[-1,45]/%x[0,45]'
p324
aS'U0000302:%x[-1,45]/%x[0,45]/%x[1,45]'
p325
aS'U0000303:%x[-1,45]/%x[1,45]'
p326
aS'U0000304:%x[-1,46]'
p327
aS'U0000305:%x[-1,46]/%x[0,46]'
p328
aS'U0000306:%x[-1,46]/%x[0,46]/%x[1,46]'
p329
aS'U0000307:%x[-1,46]/%x[1,46]'
p330
aS'U0000308:%x[-1,47]'
p331
aS'U0000309:%x[-1,47]/%x[0,47]'
p332
aS'U0000310:%x[-1,47]/%x[0,47]/%x[1,47]'
p333
aS'U0000311:%x[-1,47]/%x[1,47]'
p334
aS'U0000312:%x[-1,48]'
p335
aS'U0000313:%x[-1,48]/%x[0,48]'
p336
aS'U0000314:%x[-1,48]/%x[0,48]/%x[1,48]'
p337
aS'U0000315:%x[-1,48]/%x[1,48]'
p338
aS'U0000316:%x[-1,49]'
p339
aS'U0000317:%x[-1,49]/%x[0,49]'
p340
aS'U0000318:%x[-1,49]/%x[0,49]/%x[1,49]'
p341
aS'U0000319:%x[-1,49]/%x[1,49]'
p342
aS'U0000320:%x[-1,4]'
p343
aS'U0000321:%x[-1,4]/%x[0,4]'
p344
aS'U0000322:%x[-1,4]/%x[0,4]/%x[1,4]'
p345
aS'U0000323:%x[-1,4]/%x[1,4]'
p346
aS'U0000324:%x[-1,50]'
p347
aS'U0000325:%x[-1,50]/%x[0,50]'
p348
aS'U0000326:%x[-1,50]/%x[0,50]/%x[1,50]'
p349
aS'U0000327:%x[-1,50]/%x[1,50]'
p350
aS'U0000328:%x[-1,51]'
p351
aS'U0000329:%x[-1,51]/%x[0,51]'
p352
aS'U0000330:%x[-1,51]/%x[0,51]/%x[1,51]'
p353
aS'U0000331:%x[-1,51]/%x[1,51]'
p354
aS'U0000332:%x[-1,52]'
p355
aS'U0000333:%x[-1,52]/%x[0,52]'
p356
aS'U0000334:%x[-1,52]/%x[0,52]/%x[1,52]'
p357
aS'U0000335:%x[-1,52]/%x[1,52]'
p358
aS'U0000336:%x[-1,53]'
p359
aS'U0000337:%x[-1,53]/%x[0,53]'
p360
aS'U0000338:%x[-1,53]/%x[0,53]/%x[1,53]'
p361
aS'U0000339:%x[-1,53]/%x[1,53]'
p362
aS'U0000340:%x[-1,54]'
p363
aS'U0000341:%x[-1,54]/%x[0,54]'
p364
aS'U0000342:%x[-1,54]/%x[0,54]/%x[1,54]'
p365
aS'U0000343:%x[-1,54]/%x[1,54]'
p366
aS'U0000344:%x[-1,55]'
p367
aS'U0000345:%x[-1,55]/%x[0,55]'
p368
aS'U0000346:%x[-1,55]/%x[0,55]/%x[1,55]'
p369
aS'U0000347:%x[-1,55]/%x[1,55]'
p370
aS'U0000348:%x[-1,56]'
p371
aS'U0000349:%x[-1,56]/%x[0,56]'
p372
aS'U0000350:%x[-1,56]/%x[0,56]/%x[1,56]'
p373
aS'U0000351:%x[-1,56]/%x[1,56]'
p374
aS'U0000352:%x[-1,57]'
p375
aS'U0000353:%x[-1,57]/%x[0,57]'
p376
aS'U0000354:%x[-1,57]/%x[0,57]/%x[1,57]'
p377
aS'U0000355:%x[-1,57]/%x[1,57]'
p378
aS'U0000356:%x[-1,58]'
p379
aS'U0000357:%x[-1,58]/%x[0,58]'
p380
aS'U0000358:%x[-1,58]/%x[0,58]/%x[1,58]'
p381
aS'U0000359:%x[-1,58]/%x[1,58]'
p382
aS'U0000360:%x[-1,59]'
p383
aS'U0000361:%x[-1,59]/%x[0,59]'
p384
aS'U0000362:%x[-1,59]/%x[0,59]/%x[1,59]'
p385
aS'U0000363:%x[-1,59]/%x[1,59]'
p386
aS'U0000364:%x[-1,5]'
p387
aS'U0000365:%x[-1,5]/%x[0,5]'
p388
aS'U0000366:%x[-1,5]/%x[0,5]/%x[1,5]'
p389
aS'U0000367:%x[-1,5]/%x[1,5]'
p390
aS'U0000368:%x[-1,60]'
p391
aS'U0000369:%x[-1,60]/%x[0,60]'
p392
aS'U0000370:%x[-1,60]/%x[0,60]/%x[1,60]'
p393
aS'U0000371:%x[-1,60]/%x[1,60]'
p394
aS'U0000372:%x[-1,61]'
p395
aS'U0000373:%x[-1,61]/%x[0,61]'
p396
aS'U0000374:%x[-1,61]/%x[0,61]/%x[1,61]'
p397
aS'U0000375:%x[-1,61]/%x[1,61]'
p398
aS'U0000376:%x[-1,62]'
p399
aS'U0000377:%x[-1,62]/%x[0,62]'
p400
aS'U0000378:%x[-1,62]/%x[0,62]/%x[1,62]'
p401
aS'U0000379:%x[-1,62]/%x[1,62]'
p402
aS'U0000380:%x[-1,63]'
p403
aS'U0000381:%x[-1,63]/%x[0,63]'
p404
aS'U0000382:%x[-1,63]/%x[0,63]/%x[1,63]'
p405
aS'U0000383:%x[-1,63]/%x[1,63]'
p406
aS'U0000384:%x[-1,64]'
p407
aS'U0000385:%x[-1,64]/%x[0,64]'
p408
aS'U0000386:%x[-1,64]/%x[0,64]/%x[1,64]'
p409
aS'U0000387:%x[-1,64]/%x[1,64]'
p410
aS'U0000388:%x[-1,65]'
p411
aS'U0000389:%x[-1,65]/%x[0,65]'
p412
aS'U0000390:%x[-1,65]/%x[0,65]/%x[1,65]'
p413
aS'U0000391:%x[-1,65]/%x[1,65]'
p414
aS'U0000392:%x[-1,66]'
p415
aS'U0000393:%x[-1,66]/%x[0,66]'
p416
aS'U0000394:%x[-1,66]/%x[0,66]/%x[1,66]'
p417
aS'U0000395:%x[-1,66]/%x[1,66]'
p418
aS'U0000396:%x[-1,67]'
p419
aS'U0000397:%x[-1,67]/%x[0,67]'
p420
aS'U0000398:%x[-1,67]/%x[0,67]/%x[1,67]'
p421
aS'U0000399:%x[-1,67]/%x[1,67]'
p422
aS'U0000400:%x[-1,68]'
p423
aS'U0000401:%x[-1,68]/%x[0,68]'
p424
aS'U0000402:%x[-1,68]/%x[0,68]/%x[1,68]'
p425
aS'U0000403:%x[-1,68]/%x[1,68]'
p426
aS'U0000404:%x[-1,69]'
p427
aS'U0000405:%x[-1,69]/%x[0,69]'
p428
aS'U0000406:%x[-1,69]/%x[0,69]/%x[1,69]'
p429
aS'U0000407:%x[-1,69]/%x[1,69]'
p430
aS'U0000408:%x[-1,6]'
p431
aS'U0000409:%x[-1,6]/%x[0,6]'
p432
aS'U0000410:%x[-1,6]/%x[0,6]/%x[1,6]'
p433
aS'U0000411:%x[-1,6]/%x[1,6]'
p434
aS'U0000412:%x[-1,70]'
p435
aS'U0000413:%x[-1,70]/%x[0,70]'
p436
aS'U0000414:%x[-1,70]/%x[0,70]/%x[1,70]'
p437
aS'U0000415:%x[-1,70]/%x[1,70]'
p438
aS'U0000416:%x[-1,71]'
p439
aS'U0000417:%x[-1,71]/%x[0,71]'
p440
aS'U0000418:%x[-1,71]/%x[0,71]/%x[1,71]'
p441
aS'U0000419:%x[-1,71]/%x[1,71]'
p442
aS'U0000420:%x[-1,72]'
p443
aS'U0000421:%x[-1,72]/%x[0,72]'
p444
aS'U0000422:%x[-1,72]/%x[0,72]/%x[1,72]'
p445
aS'U0000423:%x[-1,72]/%x[1,72]'
p446
aS'U0000424:%x[-1,73]'
p447
aS'U0000425:%x[-1,73]/%x[0,73]'
p448
aS'U0000426:%x[-1,73]/%x[0,73]/%x[1,73]'
p449
aS'U0000427:%x[-1,73]/%x[1,73]'
p450
aS'U0000428:%x[-1,74]'
p451
aS'U0000429:%x[-1,74]/%x[0,74]'
p452
aS'U0000430:%x[-1,74]/%x[0,74]/%x[1,74]'
p453
aS'U0000431:%x[-1,74]/%x[1,74]'
p454
aS'U0000432:%x[-1,75]'
p455
aS'U0000433:%x[-1,75]/%x[0,75]'
p456
aS'U0000434:%x[-1,75]/%x[0,75]/%x[1,75]'
p457
aS'U0000435:%x[-1,75]/%x[1,75]'
p458
aS'U0000436:%x[-1,76]'
p459
aS'U0000437:%x[-1,76]/%x[0,76]'
p460
aS'U0000438:%x[-1,76]/%x[0,76]/%x[1,76]'
p461
aS'U0000439:%x[-1,76]/%x[1,76]'
p462
aS'U0000440:%x[-1,77]'
p463
aS'U0000441:%x[-1,77]/%x[0,77]'
p464
aS'U0000442:%x[-1,77]/%x[0,77]/%x[1,77]'
p465
aS'U0000443:%x[-1,77]/%x[1,77]'
p466
aS'U0000444:%x[-1,78]'
p467
aS'U0000445:%x[-1,78]/%x[0,78]'
p468
aS'U0000446:%x[-1,78]/%x[0,78]/%x[1,78]'
p469
aS'U0000447:%x[-1,78]/%x[1,78]'
p470
aS'U0000448:%x[-1,79]'
p471
aS'U0000449:%x[-1,79]/%x[0,79]'
p472
aS'U0000450:%x[-1,79]/%x[0,79]/%x[1,79]'
p473
aS'U0000451:%x[-1,79]/%x[1,79]'
p474
aS'U0000452:%x[-1,7]'
p475
aS'U0000453:%x[-1,7]/%x[0,7]'
p476
aS'U0000454:%x[-1,7]/%x[0,7]/%x[1,7]'
p477
aS'U0000455:%x[-1,7]/%x[1,7]'
p478
aS'U0000456:%x[-1,80]'
p479
aS'U0000457:%x[-1,80]/%x[0,80]'
p480
aS'U0000458:%x[-1,80]/%x[0,80]/%x[1,80]'
p481
aS'U0000459:%x[-1,80]/%x[1,80]'
p482
aS'U0000460:%x[-1,81]'
p483
aS'U0000461:%x[-1,81]/%x[0,81]'
p484
aS'U0000462:%x[-1,81]/%x[0,81]/%x[1,81]'
p485
aS'U0000463:%x[-1,81]/%x[1,81]'
p486
aS'U0000464:%x[-1,82]'
p487
aS'U0000465:%x[-1,82]/%x[0,82]'
p488
aS'U0000466:%x[-1,82]/%x[0,82]/%x[1,82]'
p489
aS'U0000467:%x[-1,82]/%x[1,82]'
p490
aS'U0000468:%x[-1,83]'
p491
aS'U0000469:%x[-1,83]/%x[0,83]'
p492
aS'U0000470:%x[-1,83]/%x[0,83]/%x[1,83]'
p493
aS'U0000471:%x[-1,83]/%x[1,83]'
p494
aS'U0000472:%x[-1,84]'
p495
aS'U0000473:%x[-1,84]/%x[0,84]'
p496
aS'U0000474:%x[-1,84]/%x[0,84]/%x[1,84]'
p497
aS'U0000475:%x[-1,84]/%x[1,84]'
p498
aS'U0000476:%x[-1,85]'
p499
aS'U0000477:%x[-1,85]/%x[0,85]'
p500
aS'U0000478:%x[-1,85]/%x[0,85]/%x[1,85]'
p501
aS'U0000479:%x[-1,85]/%x[1,85]'
p502
aS'U0000480:%x[-1,86]'
p503
aS'U0000481:%x[-1,86]/%x[0,86]'
p504
aS'U0000482:%x[-1,86]/%x[0,86]/%x[1,86]'
p505
aS'U0000483:%x[-1,86]/%x[1,86]'
p506
aS'U0000484:%x[-1,87]'
p507
aS'U0000485:%x[-1,87]/%x[0,87]'
p508
aS'U0000486:%x[-1,87]/%x[0,87]/%x[1,87]'
p509
aS'U0000487:%x[-1,87]/%x[1,87]'
p510
aS'U0000488:%x[-1,88]'
p511
aS'U0000489:%x[-1,88]/%x[0,88]'
p512
aS'U0000490:%x[-1,88]/%x[0,88]/%x[1,88]'
p513
aS'U0000491:%x[-1,88]/%x[1,88]'
p514
aS'U0000492:%x[-1,89]'
p515
aS'U0000493:%x[-1,89]/%x[0,89]'
p516
aS'U0000494:%x[-1,89]/%x[0,89]/%x[1,89]'
p517
aS'U0000495:%x[-1,89]/%x[1,89]'
p518
aS'U0000496:%x[-1,8]'
p519
aS'U0000497:%x[-1,8]/%x[0,8]'
p520
aS'U0000498:%x[-1,8]/%x[0,8]/%x[1,8]'
p521
aS'U0000499:%x[-1,8]/%x[1,8]'
p522
aS'U0000500:%x[-1,90]'
p523
aS'U0000501:%x[-1,90]/%x[0,90]'
p524
aS'U0000502:%x[-1,90]/%x[0,90]/%x[1,90]'
p525
aS'U0000503:%x[-1,90]/%x[1,90]'
p526
aS'U0000504:%x[-1,91]'
p527
aS'U0000505:%x[-1,91]/%x[0,91]'
p528
aS'U0000506:%x[-1,91]/%x[0,91]/%x[1,91]'
p529
aS'U0000507:%x[-1,91]/%x[1,91]'
p530
aS'U0000508:%x[-1,92]'
p531
aS'U0000509:%x[-1,92]/%x[0,92]'
p532
aS'U0000510:%x[-1,92]/%x[0,92]/%x[1,92]'
p533
aS'U0000511:%x[-1,92]/%x[1,92]'
p534
aS'U0000512:%x[-1,93]'
p535
aS'U0000513:%x[-1,93]/%x[0,93]'
p536
aS'U0000514:%x[-1,93]/%x[0,93]/%x[1,93]'
p537
aS'U0000515:%x[-1,93]/%x[1,93]'
p538
aS'U0000516:%x[-1,94]'
p539
aS'U0000517:%x[-1,94]/%x[0,94]'
p540
aS'U0000518:%x[-1,94]/%x[0,94]/%x[1,94]'
p541
aS'U0000519:%x[-1,94]/%x[1,94]'
p542
aS'U0000520:%x[-1,95]'
p543
aS'U0000521:%x[-1,95]/%x[0,95]'
p544
aS'U0000522:%x[-1,95]/%x[0,95]/%x[1,95]'
p545
aS'U0000523:%x[-1,95]/%x[1,95]'
p546
aS'U0000524:%x[-1,96]'
p547
aS'U0000525:%x[-1,96]/%x[0,96]'
p548
aS'U0000526:%x[-1,96]/%x[0,96]/%x[1,96]'
p549
aS'U0000527:%x[-1,96]/%x[1,96]'
p550
aS'U0000528:%x[-1,97]'
p551
aS'U0000529:%x[-1,97]/%x[0,97]'
p552
aS'U0000530:%x[-1,97]/%x[0,97]/%x[1,97]'
p553
aS'U0000531:%x[-1,97]/%x[1,97]'
p554
aS'U0000532:%x[-1,98]'
p555
aS'U0000533:%x[-1,98]/%x[0,98]'
p556
aS'U0000534:%x[-1,98]/%x[0,98]/%x[1,98]'
p557
aS'U0000535:%x[-1,98]/%x[1,98]'
p558
aS'U0000536:%x[-1,99]'
p559
aS'U0000537:%x[-1,99]/%x[0,99]'
p560
aS'U0000538:%x[-1,99]/%x[0,99]/%x[1,99]'
p561
aS'U0000539:%x[-1,99]/%x[1,99]'
p562
aS'U0000540:%x[-1,9]'
p563
aS'U0000541:%x[-1,9]/%x[0,9]'
p564
aS'U0000542:%x[-1,9]/%x[0,9]/%x[1,9]'
p565
aS'U0000543:%x[-1,9]/%x[1,9]'
p566
aS'U0000544:%x[-2,0]/%x[-1,0]'
p567
aS'U0000545:%x[-2,0]/%x[-1,0]/%x[0,0]'
p568
aS'U0000546:%x[-2,0]/%x[2,0]'
p569
aS'U0000547:%x[-2,100]/%x[-1,100]'
p570
aS'U0000548:%x[-2,100]/%x[-1,100]/%x[0,100]'
p571
aS'U0000549:%x[-2,100]/%x[2,100]'
p572
aS'U0000550:%x[-2,101]/%x[-1,101]'
p573
aS'U0000551:%x[-2,101]/%x[-1,101]/%x[0,101]'
p574
aS'U0000552:%x[-2,101]/%x[2,101]'
p575
aS'U0000553:%x[-2,102]/%x[-1,102]'
p576
aS'U0000554:%x[-2,102]/%x[-1,102]/%x[0,102]'
p577
aS'U0000555:%x[-2,102]/%x[2,102]'
p578
aS'U0000556:%x[-2,103]/%x[-1,103]'
p579
aS'U0000557:%x[-2,103]/%x[-1,103]/%x[0,103]'
p580
aS'U0000558:%x[-2,103]/%x[2,103]'
p581
aS'U0000559:%x[-2,104]/%x[-1,104]'
p582
aS'U0000560:%x[-2,104]/%x[-1,104]/%x[0,104]'
p583
aS'U0000561:%x[-2,104]/%x[2,104]'
p584
aS'U0000562:%x[-2,105]/%x[-1,105]'
p585
aS'U0000563:%x[-2,105]/%x[-1,105]/%x[0,105]'
p586
aS'U0000564:%x[-2,105]/%x[2,105]'
p587
aS'U0000565:%x[-2,106]/%x[-1,106]'
p588
aS'U0000566:%x[-2,106]/%x[-1,106]/%x[0,106]'
p589
aS'U0000567:%x[-2,106]/%x[2,106]'
p590
aS'U0000568:%x[-2,107]/%x[-1,107]'
p591
aS'U0000569:%x[-2,107]/%x[-1,107]/%x[0,107]'
p592
aS'U0000570:%x[-2,107]/%x[2,107]'
p593
aS'U0000571:%x[-2,108]/%x[-1,108]'
p594
aS'U0000572:%x[-2,108]/%x[-1,108]/%x[0,108]'
p595
aS'U0000573:%x[-2,108]/%x[2,108]'
p596
aS'U0000574:%x[-2,109]/%x[-1,109]'
p597
aS'U0000575:%x[-2,109]/%x[-1,109]/%x[0,109]'
p598
aS'U0000576:%x[-2,109]/%x[2,109]'
p599
aS'U0000577:%x[-2,10]/%x[-1,10]'
p600
aS'U0000578:%x[-2,10]/%x[-1,10]/%x[0,10]'
p601
aS'U0000579:%x[-2,10]/%x[2,10]'
p602
aS'U0000580:%x[-2,110]/%x[-1,110]'
p603
aS'U0000581:%x[-2,110]/%x[-1,110]/%x[0,110]'
p604
aS'U0000582:%x[-2,110]/%x[2,110]'
p605
aS'U0000583:%x[-2,111]/%x[-1,111]'
p606
aS'U0000584:%x[-2,111]/%x[-1,111]/%x[0,111]'
p607
aS'U0000585:%x[-2,111]/%x[2,111]'
p608
aS'U0000586:%x[-2,112]/%x[-1,112]'
p609
aS'U0000587:%x[-2,112]/%x[-1,112]/%x[0,112]'
p610
aS'U0000588:%x[-2,112]/%x[2,112]'
p611
aS'U0000589:%x[-2,113]/%x[-1,113]'
p612
aS'U0000590:%x[-2,113]/%x[-1,113]/%x[0,113]'
p613
aS'U0000591:%x[-2,113]/%x[2,113]'
p614
aS'U0000592:%x[-2,114]/%x[-1,114]'
p615
aS'U0000593:%x[-2,114]/%x[-1,114]/%x[0,114]'
p616
aS'U0000594:%x[-2,114]/%x[2,114]'
p617
aS'U0000595:%x[-2,115]/%x[-1,115]'
p618
aS'U0000596:%x[-2,115]/%x[-1,115]/%x[0,115]'
p619
aS'U0000597:%x[-2,115]/%x[2,115]'
p620
aS'U0000598:%x[-2,116]/%x[-1,116]'
p621
aS'U0000599:%x[-2,116]/%x[-1,116]/%x[0,116]'
p622
aS'U0000600:%x[-2,116]/%x[2,116]'
p623
aS'U0000601:%x[-2,117]/%x[-1,117]'
p624
aS'U0000602:%x[-2,117]/%x[-1,117]/%x[0,117]'
p625
aS'U0000603:%x[-2,117]/%x[2,117]'
p626
aS'U0000604:%x[-2,118]/%x[-1,118]'
p627
aS'U0000605:%x[-2,118]/%x[-1,118]/%x[0,118]'
p628
aS'U0000606:%x[-2,118]/%x[2,118]'
p629
aS'U0000607:%x[-2,119]/%x[-1,119]'
p630
aS'U0000608:%x[-2,119]/%x[-1,119]/%x[0,119]'
p631
aS'U0000609:%x[-2,119]/%x[2,119]'
p632
aS'U0000610:%x[-2,11]/%x[-1,11]'
p633
aS'U0000611:%x[-2,11]/%x[-1,11]/%x[0,11]'
p634
aS'U0000612:%x[-2,11]/%x[2,11]'
p635
aS'U0000613:%x[-2,120]/%x[-1,120]'
p636
aS'U0000614:%x[-2,120]/%x[-1,120]/%x[0,120]'
p637
aS'U0000615:%x[-2,120]/%x[2,120]'
p638
aS'U0000616:%x[-2,121]/%x[-1,121]'
p639
aS'U0000617:%x[-2,121]/%x[-1,121]/%x[0,121]'
p640
aS'U0000618:%x[-2,121]/%x[2,121]'
p641
aS'U0000619:%x[-2,122]/%x[-1,122]'
p642
aS'U0000620:%x[-2,122]/%x[-1,122]/%x[0,122]'
p643
aS'U0000621:%x[-2,122]/%x[2,122]'
p644
aS'U0000622:%x[-2,123]/%x[-1,123]'
p645
aS'U0000623:%x[-2,123]/%x[-1,123]/%x[0,123]'
p646
aS'U0000624:%x[-2,123]/%x[2,123]'
p647
aS'U0000625:%x[-2,124]/%x[-1,124]'
p648
aS'U0000626:%x[-2,124]/%x[-1,124]/%x[0,124]'
p649
aS'U0000627:%x[-2,124]/%x[2,124]'
p650
aS'U0000628:%x[-2,125]/%x[-1,125]'
p651
aS'U0000629:%x[-2,125]/%x[-1,125]/%x[0,125]'
p652
aS'U0000630:%x[-2,125]/%x[2,125]'
p653
aS'U0000631:%x[-2,126]/%x[-1,126]'
p654
aS'U0000632:%x[-2,126]/%x[-1,126]/%x[0,126]'
p655
aS'U0000633:%x[-2,126]/%x[2,126]'
p656
aS'U0000634:%x[-2,127]/%x[-1,127]'
p657
aS'U0000635:%x[-2,127]/%x[-1,127]/%x[0,127]'
p658
aS'U0000636:%x[-2,127]/%x[2,127]'
p659
aS'U0000637:%x[-2,128]/%x[-1,128]'
p660
aS'U0000638:%x[-2,128]/%x[-1,128]/%x[0,128]'
p661
aS'U0000639:%x[-2,128]/%x[2,128]'
p662
aS'U0000640:%x[-2,129]/%x[-1,129]'
p663
aS'U0000641:%x[-2,129]/%x[-1,129]/%x[0,129]'
p664
aS'U0000642:%x[-2,129]/%x[2,129]'
p665
aS'U0000643:%x[-2,12]/%x[-1,12]'
p666
aS'U0000644:%x[-2,12]/%x[-1,12]/%x[0,12]'
p667
aS'U0000645:%x[-2,12]/%x[2,12]'
p668
aS'U0000646:%x[-2,130]/%x[-1,130]'
p669
aS'U0000647:%x[-2,130]/%x[-1,130]/%x[0,130]'
p670
aS'U0000648:%x[-2,130]/%x[2,130]'
p671
aS'U0000649:%x[-2,131]/%x[-1,131]'
p672
aS'U0000650:%x[-2,131]/%x[-1,131]/%x[0,131]'
p673
aS'U0000651:%x[-2,131]/%x[2,131]'
p674
aS'U0000652:%x[-2,132]/%x[-1,132]'
p675
aS'U0000653:%x[-2,132]/%x[-1,132]/%x[0,132]'
p676
aS'U0000654:%x[-2,132]/%x[2,132]'
p677
aS'U0000655:%x[-2,133]/%x[-1,133]'
p678
aS'U0000656:%x[-2,133]/%x[-1,133]/%x[0,133]'
p679
aS'U0000657:%x[-2,133]/%x[2,133]'
p680
aS'U0000658:%x[-2,134]/%x[-1,134]'
p681
aS'U0000659:%x[-2,134]/%x[-1,134]/%x[0,134]'
p682
aS'U0000660:%x[-2,134]/%x[2,134]'
p683
aS'U0000661:%x[-2,135]/%x[-1,135]'
p684
aS'U0000662:%x[-2,135]/%x[-1,135]/%x[0,135]'
p685
aS'U0000663:%x[-2,135]/%x[2,135]'
p686
aS'U0000664:%x[-2,13]/%x[-1,13]'
p687
aS'U0000665:%x[-2,13]/%x[-1,13]/%x[0,13]'
p688
aS'U0000666:%x[-2,13]/%x[2,13]'
p689
aS'U0000667:%x[-2,14]/%x[-1,14]'
p690
aS'U0000668:%x[-2,14]/%x[-1,14]/%x[0,14]'
p691
aS'U0000669:%x[-2,14]/%x[2,14]'
p692
aS'U0000670:%x[-2,15]/%x[-1,15]'
p693
aS'U0000671:%x[-2,15]/%x[-1,15]/%x[0,15]'
p694
aS'U0000672:%x[-2,15]/%x[2,15]'
p695
aS'U0000673:%x[-2,16]/%x[-1,16]'
p696
aS'U0000674:%x[-2,16]/%x[-1,16]/%x[0,16]'
p697
aS'U0000675:%x[-2,16]/%x[2,16]'
p698
aS'U0000676:%x[-2,17]/%x[-1,17]'
p699
aS'U0000677:%x[-2,17]/%x[-1,17]/%x[0,17]'
p700
aS'U0000678:%x[-2,17]/%x[2,17]'
p701
aS'U0000679:%x[-2,18]/%x[-1,18]'
p702
aS'U0000680:%x[-2,18]/%x[-1,18]/%x[0,18]'
p703
aS'U0000681:%x[-2,18]/%x[2,18]'
p704
aS'U0000682:%x[-2,19]/%x[-1,19]'
p705
aS'U0000683:%x[-2,19]/%x[-1,19]/%x[0,19]'
p706
aS'U0000684:%x[-2,19]/%x[2,19]'
p707
aS'U0000685:%x[-2,1]/%x[-1,1]'
p708
aS'U0000686:%x[-2,1]/%x[-1,1]/%x[0,1]'
p709
aS'U0000687:%x[-2,1]/%x[2,1]'
p710
aS'U0000688:%x[-2,20]/%x[-1,20]'
p711
aS'U0000689:%x[-2,20]/%x[-1,20]/%x[0,20]'
p712
aS'U0000690:%x[-2,20]/%x[2,20]'
p713
aS'U0000691:%x[-2,21]/%x[-1,21]'
p714
aS'U0000692:%x[-2,21]/%x[-1,21]/%x[0,21]'
p715
aS'U0000693:%x[-2,21]/%x[2,21]'
p716
aS'U0000694:%x[-2,22]/%x[-1,22]'
p717
aS'U0000695:%x[-2,22]/%x[-1,22]/%x[0,22]'
p718
aS'U0000696:%x[-2,22]/%x[2,22]'
p719
aS'U0000697:%x[-2,23]/%x[-1,23]'
p720
aS'U0000698:%x[-2,23]/%x[-1,23]/%x[0,23]'
p721
aS'U0000699:%x[-2,23]/%x[2,23]'
p722
aS'U0000700:%x[-2,24]/%x[-1,24]'
p723
aS'U0000701:%x[-2,24]/%x[-1,24]/%x[0,24]'
p724
aS'U0000702:%x[-2,24]/%x[2,24]'
p725
aS'U0000703:%x[-2,25]/%x[-1,25]'
p726
aS'U0000704:%x[-2,25]/%x[-1,25]/%x[0,25]'
p727
aS'U0000705:%x[-2,25]/%x[2,25]'
p728
aS'U0000706:%x[-2,26]/%x[-1,26]'
p729
aS'U0000707:%x[-2,26]/%x[-1,26]/%x[0,26]'
p730
aS'U0000708:%x[-2,26]/%x[2,26]'
p731
aS'U0000709:%x[-2,27]/%x[-1,27]'
p732
aS'U0000710:%x[-2,27]/%x[-1,27]/%x[0,27]'
p733
aS'U0000711:%x[-2,27]/%x[2,27]'
p734
aS'U0000712:%x[-2,28]/%x[-1,28]'
p735
aS'U0000713:%x[-2,28]/%x[-1,28]/%x[0,28]'
p736
aS'U0000714:%x[-2,28]/%x[2,28]'
p737
aS'U0000715:%x[-2,29]/%x[-1,29]'
p738
aS'U0000716:%x[-2,29]/%x[-1,29]/%x[0,29]'
p739
aS'U0000717:%x[-2,29]/%x[2,29]'
p740
aS'U0000718:%x[-2,2]/%x[-1,2]'
p741
aS'U0000719:%x[-2,2]/%x[-1,2]/%x[0,2]'
p742
aS'U0000720:%x[-2,2]/%x[2,2]'
p743
aS'U0000721:%x[-2,30]/%x[-1,30]'
p744
aS'U0000722:%x[-2,30]/%x[-1,30]/%x[0,30]'
p745
aS'U0000723:%x[-2,30]/%x[2,30]'
p746
aS'U0000724:%x[-2,31]/%x[-1,31]'
p747
aS'U0000725:%x[-2,31]/%x[-1,31]/%x[0,31]'
p748
aS'U0000726:%x[-2,31]/%x[2,31]'
p749
aS'U0000727:%x[-2,32]/%x[-1,32]'
p750
aS'U0000728:%x[-2,32]/%x[-1,32]/%x[0,32]'
p751
aS'U0000729:%x[-2,32]/%x[2,32]'
p752
aS'U0000730:%x[-2,33]/%x[-1,33]'
p753
aS'U0000731:%x[-2,33]/%x[-1,33]/%x[0,33]'
p754
aS'U0000732:%x[-2,33]/%x[2,33]'
p755
aS'U0000733:%x[-2,34]/%x[-1,34]'
p756
aS'U0000734:%x[-2,34]/%x[-1,34]/%x[0,34]'
p757
aS'U0000735:%x[-2,34]/%x[2,34]'
p758
aS'U0000736:%x[-2,35]/%x[-1,35]'
p759
aS'U0000737:%x[-2,35]/%x[-1,35]/%x[0,35]'
p760
aS'U0000738:%x[-2,35]/%x[2,35]'
p761
aS'U0000739:%x[-2,36]/%x[-1,36]'
p762
aS'U0000740:%x[-2,36]/%x[-1,36]/%x[0,36]'
p763
aS'U0000741:%x[-2,36]/%x[2,36]'
p764
aS'U0000742:%x[-2,37]/%x[-1,37]'
p765
aS'U0000743:%x[-2,37]/%x[-1,37]/%x[0,37]'
p766
aS'U0000744:%x[-2,37]/%x[2,37]'
p767
aS'U0000745:%x[-2,38]/%x[-1,38]'
p768
aS'U0000746:%x[-2,38]/%x[-1,38]/%x[0,38]'
p769
aS'U0000747:%x[-2,38]/%x[2,38]'
p770
aS'U0000748:%x[-2,39]/%x[-1,39]'
p771
aS'U0000749:%x[-2,39]/%x[-1,39]/%x[0,39]'
p772
aS'U0000750:%x[-2,39]/%x[2,39]'
p773
aS'U0000751:%x[-2,3]/%x[-1,3]'
p774
aS'U0000752:%x[-2,3]/%x[-1,3]/%x[0,3]'
p775
aS'U0000753:%x[-2,3]/%x[2,3]'
p776
aS'U0000754:%x[-2,40]/%x[-1,40]'
p777
aS'U0000755:%x[-2,40]/%x[-1,40]/%x[0,40]'
p778
aS'U0000756:%x[-2,40]/%x[2,40]'
p779
aS'U0000757:%x[-2,41]/%x[-1,41]'
p780
aS'U0000758:%x[-2,41]/%x[-1,41]/%x[0,41]'
p781
aS'U0000759:%x[-2,41]/%x[2,41]'
p782
aS'U0000760:%x[-2,42]/%x[-1,42]'
p783
aS'U0000761:%x[-2,42]/%x[-1,42]/%x[0,42]'
p784
aS'U0000762:%x[-2,42]/%x[2,42]'
p785
aS'U0000763:%x[-2,43]/%x[-1,43]'
p786
aS'U0000764:%x[-2,43]/%x[-1,43]/%x[0,43]'
p787
aS'U0000765:%x[-2,43]/%x[2,43]'
p788
aS'U0000766:%x[-2,44]/%x[-1,44]'
p789
aS'U0000767:%x[-2,44]/%x[-1,44]/%x[0,44]'
p790
aS'U0000768:%x[-2,44]/%x[2,44]'
p791
aS'U0000769:%x[-2,45]/%x[-1,45]'
p792
aS'U0000770:%x[-2,45]/%x[-1,45]/%x[0,45]'
p793
aS'U0000771:%x[-2,45]/%x[2,45]'
p794
aS'U0000772:%x[-2,46]/%x[-1,46]'
p795
aS'U0000773:%x[-2,46]/%x[-1,46]/%x[0,46]'
p796
aS'U0000774:%x[-2,46]/%x[2,46]'
p797
aS'U0000775:%x[-2,47]/%x[-1,47]'
p798
aS'U0000776:%x[-2,47]/%x[-1,47]/%x[0,47]'
p799
aS'U0000777:%x[-2,47]/%x[2,47]'
p800
aS'U0000778:%x[-2,48]/%x[-1,48]'
p801
aS'U0000779:%x[-2,48]/%x[-1,48]/%x[0,48]'
p802
aS'U0000780:%x[-2,48]/%x[2,48]'
p803
aS'U0000781:%x[-2,49]/%x[-1,49]'
p804
aS'U0000782:%x[-2,49]/%x[-1,49]/%x[0,49]'
p805
aS'U0000783:%x[-2,49]/%x[2,49]'
p806
aS'U0000784:%x[-2,4]/%x[-1,4]'
p807
aS'U0000785:%x[-2,4]/%x[-1,4]/%x[0,4]'
p808
aS'U0000786:%x[-2,4]/%x[2,4]'
p809
aS'U0000787:%x[-2,50]/%x[-1,50]'
p810
aS'U0000788:%x[-2,50]/%x[-1,50]/%x[0,50]'
p811
aS'U0000789:%x[-2,50]/%x[2,50]'
p812
aS'U0000790:%x[-2,51]/%x[-1,51]'
p813
aS'U0000791:%x[-2,51]/%x[-1,51]/%x[0,51]'
p814
aS'U0000792:%x[-2,51]/%x[2,51]'
p815
aS'U0000793:%x[-2,52]/%x[-1,52]'
p816
aS'U0000794:%x[-2,52]/%x[-1,52]/%x[0,52]'
p817
aS'U0000795:%x[-2,52]/%x[2,52]'
p818
aS'U0000796:%x[-2,53]/%x[-1,53]'
p819
aS'U0000797:%x[-2,53]/%x[-1,53]/%x[0,53]'
p820
aS'U0000798:%x[-2,53]/%x[2,53]'
p821
aS'U0000799:%x[-2,54]/%x[-1,54]'
p822
aS'U0000800:%x[-2,54]/%x[-1,54]/%x[0,54]'
p823
aS'U0000801:%x[-2,54]/%x[2,54]'
p824
aS'U0000802:%x[-2,55]/%x[-1,55]'
p825
aS'U0000803:%x[-2,55]/%x[-1,55]/%x[0,55]'
p826
aS'U0000804:%x[-2,55]/%x[2,55]'
p827
aS'U0000805:%x[-2,56]/%x[-1,56]'
p828
aS'U0000806:%x[-2,56]/%x[-1,56]/%x[0,56]'
p829
aS'U0000807:%x[-2,56]/%x[2,56]'
p830
aS'U0000808:%x[-2,57]/%x[-1,57]'
p831
aS'U0000809:%x[-2,57]/%x[-1,57]/%x[0,57]'
p832
aS'U0000810:%x[-2,57]/%x[2,57]'
p833
aS'U0000811:%x[-2,58]/%x[-1,58]'
p834
aS'U0000812:%x[-2,58]/%x[-1,58]/%x[0,58]'
p835
aS'U0000813:%x[-2,58]/%x[2,58]'
p836
aS'U0000814:%x[-2,59]/%x[-1,59]'
p837
aS'U0000815:%x[-2,59]/%x[-1,59]/%x[0,59]'
p838
aS'U0000816:%x[-2,59]/%x[2,59]'
p839
aS'U0000817:%x[-2,5]/%x[-1,5]'
p840
aS'U0000818:%x[-2,5]/%x[-1,5]/%x[0,5]'
p841
aS'U0000819:%x[-2,5]/%x[2,5]'
p842
aS'U0000820:%x[-2,60]/%x[-1,60]'
p843
aS'U0000821:%x[-2,60]/%x[-1,60]/%x[0,60]'
p844
aS'U0000822:%x[-2,60]/%x[2,60]'
p845
aS'U0000823:%x[-2,61]/%x[-1,61]'
p846
aS'U0000824:%x[-2,61]/%x[-1,61]/%x[0,61]'
p847
aS'U0000825:%x[-2,61]/%x[2,61]'
p848
aS'U0000826:%x[-2,62]/%x[-1,62]'
p849
aS'U0000827:%x[-2,62]/%x[-1,62]/%x[0,62]'
p850
aS'U0000828:%x[-2,62]/%x[2,62]'
p851
aS'U0000829:%x[-2,63]/%x[-1,63]'
p852
aS'U0000830:%x[-2,63]/%x[-1,63]/%x[0,63]'
p853
aS'U0000831:%x[-2,63]/%x[2,63]'
p854
aS'U0000832:%x[-2,64]/%x[-1,64]'
p855
aS'U0000833:%x[-2,64]/%x[-1,64]/%x[0,64]'
p856
aS'U0000834:%x[-2,64]/%x[2,64]'
p857
aS'U0000835:%x[-2,65]/%x[-1,65]'
p858
aS'U0000836:%x[-2,65]/%x[-1,65]/%x[0,65]'
p859
aS'U0000837:%x[-2,65]/%x[2,65]'
p860
aS'U0000838:%x[-2,66]/%x[-1,66]'
p861
aS'U0000839:%x[-2,66]/%x[-1,66]/%x[0,66]'
p862
aS'U0000840:%x[-2,66]/%x[2,66]'
p863
aS'U0000841:%x[-2,67]/%x[-1,67]'
p864
aS'U0000842:%x[-2,67]/%x[-1,67]/%x[0,67]'
p865
aS'U0000843:%x[-2,67]/%x[2,67]'
p866
aS'U0000844:%x[-2,68]/%x[-1,68]'
p867
aS'U0000845:%x[-2,68]/%x[-1,68]/%x[0,68]'
p868
aS'U0000846:%x[-2,68]/%x[2,68]'
p869
aS'U0000847:%x[-2,69]/%x[-1,69]'
p870
aS'U0000848:%x[-2,69]/%x[-1,69]/%x[0,69]'
p871
aS'U0000849:%x[-2,69]/%x[2,69]'
p872
aS'U0000850:%x[-2,6]/%x[-1,6]'
p873
aS'U0000851:%x[-2,6]/%x[-1,6]/%x[0,6]'
p874
aS'U0000852:%x[-2,6]/%x[2,6]'
p875
aS'U0000853:%x[-2,70]/%x[-1,70]'
p876
aS'U0000854:%x[-2,70]/%x[-1,70]/%x[0,70]'
p877
aS'U0000855:%x[-2,70]/%x[2,70]'
p878
aS'U0000856:%x[-2,71]/%x[-1,71]'
p879
aS'U0000857:%x[-2,71]/%x[-1,71]/%x[0,71]'
p880
aS'U0000858:%x[-2,71]/%x[2,71]'
p881
aS'U0000859:%x[-2,72]/%x[-1,72]'
p882
aS'U0000860:%x[-2,72]/%x[-1,72]/%x[0,72]'
p883
aS'U0000861:%x[-2,72]/%x[2,72]'
p884
aS'U0000862:%x[-2,73]/%x[-1,73]'
p885
aS'U0000863:%x[-2,73]/%x[-1,73]/%x[0,73]'
p886
aS'U0000864:%x[-2,73]/%x[2,73]'
p887
aS'U0000865:%x[-2,74]/%x[-1,74]'
p888
aS'U0000866:%x[-2,74]/%x[-1,74]/%x[0,74]'
p889
aS'U0000867:%x[-2,74]/%x[2,74]'
p890
aS'U0000868:%x[-2,75]/%x[-1,75]'
p891
aS'U0000869:%x[-2,75]/%x[-1,75]/%x[0,75]'
p892
aS'U0000870:%x[-2,75]/%x[2,75]'
p893
aS'U0000871:%x[-2,76]/%x[-1,76]'
p894
aS'U0000872:%x[-2,76]/%x[-1,76]/%x[0,76]'
p895
aS'U0000873:%x[-2,76]/%x[2,76]'
p896
aS'U0000874:%x[-2,77]/%x[-1,77]'
p897
aS'U0000875:%x[-2,77]/%x[-1,77]/%x[0,77]'
p898
aS'U0000876:%x[-2,77]/%x[2,77]'
p899
aS'U0000877:%x[-2,78]/%x[-1,78]'
p900
aS'U0000878:%x[-2,78]/%x[-1,78]/%x[0,78]'
p901
aS'U0000879:%x[-2,78]/%x[2,78]'
p902
aS'U0000880:%x[-2,79]/%x[-1,79]'
p903
aS'U0000881:%x[-2,79]/%x[-1,79]/%x[0,79]'
p904
aS'U0000882:%x[-2,79]/%x[2,79]'
p905
aS'U0000883:%x[-2,7]/%x[-1,7]'
p906
aS'U0000884:%x[-2,7]/%x[-1,7]/%x[0,7]'
p907
aS'U0000885:%x[-2,7]/%x[2,7]'
p908
aS'U0000886:%x[-2,80]/%x[-1,80]'
p909
aS'U0000887:%x[-2,80]/%x[-1,80]/%x[0,80]'
p910
aS'U0000888:%x[-2,80]/%x[2,80]'
p911
aS'U0000889:%x[-2,81]/%x[-1,81]'
p912
aS'U0000890:%x[-2,81]/%x[-1,81]/%x[0,81]'
p913
aS'U0000891:%x[-2,81]/%x[2,81]'
p914
aS'U0000892:%x[-2,82]/%x[-1,82]'
p915
aS'U0000893:%x[-2,82]/%x[-1,82]/%x[0,82]'
p916
aS'U0000894:%x[-2,82]/%x[2,82]'
p917
aS'U0000895:%x[-2,83]/%x[-1,83]'
p918
aS'U0000896:%x[-2,83]/%x[-1,83]/%x[0,83]'
p919
aS'U0000897:%x[-2,83]/%x[2,83]'
p920
aS'U0000898:%x[-2,84]/%x[-1,84]'
p921
aS'U0000899:%x[-2,84]/%x[-1,84]/%x[0,84]'
p922
aS'U0000900:%x[-2,84]/%x[2,84]'
p923
aS'U0000901:%x[-2,85]/%x[-1,85]'
p924
aS'U0000902:%x[-2,85]/%x[-1,85]/%x[0,85]'
p925
aS'U0000903:%x[-2,85]/%x[2,85]'
p926
aS'U0000904:%x[-2,86]/%x[-1,86]'
p927
aS'U0000905:%x[-2,86]/%x[-1,86]/%x[0,86]'
p928
aS'U0000906:%x[-2,86]/%x[2,86]'
p929
aS'U0000907:%x[-2,87]/%x[-1,87]'
p930
aS'U0000908:%x[-2,87]/%x[-1,87]/%x[0,87]'
p931
aS'U0000909:%x[-2,87]/%x[2,87]'
p932
aS'U0000910:%x[-2,88]/%x[-1,88]'
p933
aS'U0000911:%x[-2,88]/%x[-1,88]/%x[0,88]'
p934
aS'U0000912:%x[-2,88]/%x[2,88]'
p935
aS'U0000913:%x[-2,89]/%x[-1,89]'
p936
aS'U0000914:%x[-2,89]/%x[-1,89]/%x[0,89]'
p937
aS'U0000915:%x[-2,89]/%x[2,89]'
p938
aS'U0000916:%x[-2,8]/%x[-1,8]'
p939
aS'U0000917:%x[-2,8]/%x[-1,8]/%x[0,8]'
p940
aS'U0000918:%x[-2,8]/%x[2,8]'
p941
aS'U0000919:%x[-2,90]/%x[-1,90]'
p942
aS'U0000920:%x[-2,90]/%x[-1,90]/%x[0,90]'
p943
aS'U0000921:%x[-2,90]/%x[2,90]'
p944
aS'U0000922:%x[-2,91]/%x[-1,91]'
p945
aS'U0000923:%x[-2,91]/%x[-1,91]/%x[0,91]'
p946
aS'U0000924:%x[-2,91]/%x[2,91]'
p947
aS'U0000925:%x[-2,92]/%x[-1,92]'
p948
aS'U0000926:%x[-2,92]/%x[-1,92]/%x[0,92]'
p949
aS'U0000927:%x[-2,92]/%x[2,92]'
p950
aS'U0000928:%x[-2,93]/%x[-1,93]'
p951
aS'U0000929:%x[-2,93]/%x[-1,93]/%x[0,93]'
p952
aS'U0000930:%x[-2,93]/%x[2,93]'
p953
aS'U0000931:%x[-2,94]/%x[-1,94]'
p954
aS'U0000932:%x[-2,94]/%x[-1,94]/%x[0,94]'
p955
aS'U0000933:%x[-2,94]/%x[2,94]'
p956
aS'U0000934:%x[-2,95]/%x[-1,95]'
p957
aS'U0000935:%x[-2,95]/%x[-1,95]/%x[0,95]'
p958
aS'U0000936:%x[-2,95]/%x[2,95]'
p959
aS'U0000937:%x[-2,96]/%x[-1,96]'
p960
aS'U0000938:%x[-2,96]/%x[-1,96]/%x[0,96]'
p961
aS'U0000939:%x[-2,96]/%x[2,96]'
p962
aS'U0000940:%x[-2,97]/%x[-1,97]'
p963
aS'U0000941:%x[-2,97]/%x[-1,97]/%x[0,97]'
p964
aS'U0000942:%x[-2,97]/%x[2,97]'
p965
aS'U0000943:%x[-2,98]/%x[-1,98]'
p966
aS'U0000944:%x[-2,98]/%x[-1,98]/%x[0,98]'
p967
aS'U0000945:%x[-2,98]/%x[2,98]'
p968
aS'U0000946:%x[-2,99]/%x[-1,99]'
p969
aS'U0000947:%x[-2,99]/%x[-1,99]/%x[0,99]'
p970
aS'U0000948:%x[-2,99]/%x[2,99]'
p971
aS'U0000949:%x[-2,9]/%x[-1,9]'
p972
aS'U0000950:%x[-2,9]/%x[-1,9]/%x[0,9]'
p973
aS'U0000951:%x[-2,9]/%x[2,9]'
p974
aS'U0000952:%x[0,0]'
p975
aS'U0000953:%x[0,0]/%x[1,0]'
p976
aS'U0000954:%x[0,0]/%x[1,0]/%x[2,0]'
p977
aS'U0000955:%x[0,100]'
p978
aS'U0000956:%x[0,100]/%x[1,100]'
p979
aS'U0000957:%x[0,100]/%x[1,100]/%x[2,100]'
p980
aS'U0000958:%x[0,101]'
p981
aS'U0000959:%x[0,101]/%x[1,101]'
p982
aS'U0000960:%x[0,101]/%x[1,101]/%x[2,101]'
p983
aS'U0000961:%x[0,102]'
p984
aS'U0000962:%x[0,102]/%x[1,102]'
p985
aS'U0000963:%x[0,102]/%x[1,102]/%x[2,102]'
p986
aS'U0000964:%x[0,103]'
p987
aS'U0000965:%x[0,103]/%x[1,103]'
p988
aS'U0000966:%x[0,103]/%x[1,103]/%x[2,103]'
p989
aS'U0000967:%x[0,104]'
p990
aS'U0000968:%x[0,104]/%x[1,104]'
p991
aS'U0000969:%x[0,104]/%x[1,104]/%x[2,104]'
p992
aS'U0000970:%x[0,105]'
p993
aS'U0000971:%x[0,105]/%x[1,105]'
p994
aS'U0000972:%x[0,105]/%x[1,105]/%x[2,105]'
p995
aS'U0000973:%x[0,106]'
p996
aS'U0000974:%x[0,106]/%x[1,106]'
p997
aS'U0000975:%x[0,106]/%x[1,106]/%x[2,106]'
p998
aS'U0000976:%x[0,107]'
p999
aS'U0000977:%x[0,107]/%x[1,107]'
p1000
aS'U0000978:%x[0,107]/%x[1,107]/%x[2,107]'
p1001
aS'U0000979:%x[0,108]'
p1002
aS'U0000980:%x[0,108]/%x[1,108]'
p1003
aS'U0000981:%x[0,108]/%x[1,108]/%x[2,108]'
p1004
aS'U0000982:%x[0,109]'
p1005
aS'U0000983:%x[0,109]/%x[1,109]'
p1006
aS'U0000984:%x[0,109]/%x[1,109]/%x[2,109]'
p1007
aS'U0000985:%x[0,10]'
p1008
aS'U0000986:%x[0,10]/%x[1,10]'
p1009
aS'U0000987:%x[0,10]/%x[1,10]/%x[2,10]'
p1010
aS'U0000988:%x[0,110]'
p1011
aS'U0000989:%x[0,110]/%x[1,110]'
p1012
aS'U0000990:%x[0,110]/%x[1,110]/%x[2,110]'
p1013
aS'U0000991:%x[0,111]'
p1014
aS'U0000992:%x[0,111]/%x[1,111]'
p1015
aS'U0000993:%x[0,111]/%x[1,111]/%x[2,111]'
p1016
aS'U0000994:%x[0,112]'
p1017
aS'U0000995:%x[0,112]/%x[1,112]'
p1018
aS'U0000996:%x[0,112]/%x[1,112]/%x[2,112]'
p1019
aS'U0000997:%x[0,113]'
p1020
aS'U0000998:%x[0,113]/%x[1,113]'
p1021
aS'U0000999:%x[0,113]/%x[1,113]/%x[2,113]'
p1022
aS'U0001000:%x[0,114]'
p1023
aS'U0001001:%x[0,114]/%x[1,114]'
p1024
aS'U0001002:%x[0,114]/%x[1,114]/%x[2,114]'
p1025
aS'U0001003:%x[0,115]'
p1026
aS'U0001004:%x[0,115]/%x[1,115]'
p1027
aS'U0001005:%x[0,115]/%x[1,115]/%x[2,115]'
p1028
aS'U0001006:%x[0,116]'
p1029
aS'U0001007:%x[0,116]/%x[1,116]'
p1030
aS'U0001008:%x[0,116]/%x[1,116]/%x[2,116]'
p1031
aS'U0001009:%x[0,117]'
p1032
aS'U0001010:%x[0,117]/%x[1,117]'
p1033
aS'U0001011:%x[0,117]/%x[1,117]/%x[2,117]'
p1034
aS'U0001012:%x[0,118]'
p1035
aS'U0001013:%x[0,118]/%x[1,118]'
p1036
aS'U0001014:%x[0,118]/%x[1,118]/%x[2,118]'
p1037
aS'U0001015:%x[0,119]'
p1038
aS'U0001016:%x[0,119]/%x[1,119]'
p1039
aS'U0001017:%x[0,119]/%x[1,119]/%x[2,119]'
p1040
aS'U0001018:%x[0,11]'
p1041
aS'U0001019:%x[0,11]/%x[1,11]'
p1042
aS'U0001020:%x[0,11]/%x[1,11]/%x[2,11]'
p1043
aS'U0001021:%x[0,120]'
p1044
aS'U0001022:%x[0,120]/%x[1,120]'
p1045
aS'U0001023:%x[0,120]/%x[1,120]/%x[2,120]'
p1046
aS'U0001024:%x[0,121]'
p1047
aS'U0001025:%x[0,121]/%x[1,121]'
p1048
aS'U0001026:%x[0,121]/%x[1,121]/%x[2,121]'
p1049
aS'U0001027:%x[0,122]'
p1050
aS'U0001028:%x[0,122]/%x[1,122]'
p1051
aS'U0001029:%x[0,122]/%x[1,122]/%x[2,122]'
p1052
aS'U0001030:%x[0,123]'
p1053
aS'U0001031:%x[0,123]/%x[1,123]'
p1054
aS'U0001032:%x[0,123]/%x[1,123]/%x[2,123]'
p1055
aS'U0001033:%x[0,124]'
p1056
aS'U0001034:%x[0,124]/%x[1,124]'
p1057
aS'U0001035:%x[0,124]/%x[1,124]/%x[2,124]'
p1058
aS'U0001036:%x[0,125]'
p1059
aS'U0001037:%x[0,125]/%x[1,125]'
p1060
aS'U0001038:%x[0,125]/%x[1,125]/%x[2,125]'
p1061
aS'U0001039:%x[0,126]'
p1062
aS'U0001040:%x[0,126]/%x[1,126]'
p1063
aS'U0001041:%x[0,126]/%x[1,126]/%x[2,126]'
p1064
aS'U0001042:%x[0,127]'
p1065
aS'U0001043:%x[0,127]/%x[1,127]'
p1066
aS'U0001044:%x[0,127]/%x[1,127]/%x[2,127]'
p1067
aS'U0001045:%x[0,128]'
p1068
aS'U0001046:%x[0,128]/%x[1,128]'
p1069
aS'U0001047:%x[0,128]/%x[1,128]/%x[2,128]'
p1070
aS'U0001048:%x[0,129]'
p1071
aS'U0001049:%x[0,129]/%x[1,129]'
p1072
aS'U0001050:%x[0,129]/%x[1,129]/%x[2,129]'
p1073
aS'U0001051:%x[0,12]'
p1074
aS'U0001052:%x[0,12]/%x[1,12]'
p1075
aS'U0001053:%x[0,12]/%x[1,12]/%x[2,12]'
p1076
aS'U0001054:%x[0,130]'
p1077
aS'U0001055:%x[0,130]/%x[1,130]'
p1078
aS'U0001056:%x[0,130]/%x[1,130]/%x[2,130]'
p1079
aS'U0001057:%x[0,131]'
p1080
aS'U0001058:%x[0,131]/%x[1,131]'
p1081
aS'U0001059:%x[0,131]/%x[1,131]/%x[2,131]'
p1082
aS'U0001060:%x[0,132]'
p1083
aS'U0001061:%x[0,132]/%x[1,132]'
p1084
aS'U0001062:%x[0,132]/%x[1,132]/%x[2,132]'
p1085
aS'U0001063:%x[0,133]'
p1086
aS'U0001064:%x[0,133]/%x[1,133]'
p1087
aS'U0001065:%x[0,133]/%x[1,133]/%x[2,133]'
p1088
aS'U0001066:%x[0,134]'
p1089
aS'U0001067:%x[0,134]/%x[1,134]'
p1090
aS'U0001068:%x[0,134]/%x[1,134]/%x[2,134]'
p1091
aS'U0001069:%x[0,135]'
p1092
aS'U0001070:%x[0,135]/%x[1,135]'
p1093
aS'U0001071:%x[0,135]/%x[1,135]/%x[2,135]'
p1094
aS'U0001072:%x[0,13]'
p1095
aS'U0001073:%x[0,13]/%x[1,13]'
p1096
aS'U0001074:%x[0,13]/%x[1,13]/%x[2,13]'
p1097
aS'U0001075:%x[0,14]'
p1098
aS'U0001076:%x[0,14]/%x[1,14]'
p1099
aS'U0001077:%x[0,14]/%x[1,14]/%x[2,14]'
p1100
aS'U0001078:%x[0,15]'
p1101
aS'U0001079:%x[0,15]/%x[1,15]'
p1102
aS'U0001080:%x[0,15]/%x[1,15]/%x[2,15]'
p1103
aS'U0001081:%x[0,16]'
p1104
aS'U0001082:%x[0,16]/%x[1,16]'
p1105
aS'U0001083:%x[0,16]/%x[1,16]/%x[2,16]'
p1106
aS'U0001084:%x[0,17]'
p1107
aS'U0001085:%x[0,17]/%x[1,17]'
p1108
aS'U0001086:%x[0,17]/%x[1,17]/%x[2,17]'
p1109
aS'U0001087:%x[0,18]'
p1110
aS'U0001088:%x[0,18]/%x[1,18]'
p1111
aS'U0001089:%x[0,18]/%x[1,18]/%x[2,18]'
p1112
aS'U0001090:%x[0,19]'
p1113
aS'U0001091:%x[0,19]/%x[1,19]'
p1114
aS'U0001092:%x[0,19]/%x[1,19]/%x[2,19]'
p1115
aS'U0001093:%x[0,1]'
p1116
aS'U0001094:%x[0,1]/%x[1,1]'
p1117
aS'U0001095:%x[0,1]/%x[1,1]/%x[2,1]'
p1118
aS'U0001096:%x[0,20]'
p1119
aS'U0001097:%x[0,20]/%x[1,20]'
p1120
aS'U0001098:%x[0,20]/%x[1,20]/%x[2,20]'
p1121
aS'U0001099:%x[0,21]'
p1122
aS'U0001100:%x[0,21]/%x[1,21]'
p1123
aS'U0001101:%x[0,21]/%x[1,21]/%x[2,21]'
p1124
aS'U0001102:%x[0,22]'
p1125
aS'U0001103:%x[0,22]/%x[1,22]'
p1126
aS'U0001104:%x[0,22]/%x[1,22]/%x[2,22]'
p1127
aS'U0001105:%x[0,23]'
p1128
aS'U0001106:%x[0,23]/%x[1,23]'
p1129
aS'U0001107:%x[0,23]/%x[1,23]/%x[2,23]'
p1130
aS'U0001108:%x[0,24]'
p1131
aS'U0001109:%x[0,24]/%x[1,24]'
p1132
aS'U0001110:%x[0,24]/%x[1,24]/%x[2,24]'
p1133
aS'U0001111:%x[0,25]'
p1134
aS'U0001112:%x[0,25]/%x[1,25]'
p1135
aS'U0001113:%x[0,25]/%x[1,25]/%x[2,25]'
p1136
aS'U0001114:%x[0,26]'
p1137
aS'U0001115:%x[0,26]/%x[1,26]'
p1138
aS'U0001116:%x[0,26]/%x[1,26]/%x[2,26]'
p1139
aS'U0001117:%x[0,27]'
p1140
aS'U0001118:%x[0,27]/%x[1,27]'
p1141
aS'U0001119:%x[0,27]/%x[1,27]/%x[2,27]'
p1142
aS'U0001120:%x[0,28]'
p1143
aS'U0001121:%x[0,28]/%x[1,28]'
p1144
aS'U0001122:%x[0,28]/%x[1,28]/%x[2,28]'
p1145
aS'U0001123:%x[0,29]'
p1146
aS'U0001124:%x[0,29]/%x[1,29]'
p1147
aS'U0001125:%x[0,29]/%x[1,29]/%x[2,29]'
p1148
aS'U0001126:%x[0,2]'
p1149
aS'U0001127:%x[0,2]/%x[1,2]'
p1150
aS'U0001128:%x[0,2]/%x[1,2]/%x[2,2]'
p1151
aS'U0001129:%x[0,30]'
p1152
aS'U0001130:%x[0,30]/%x[1,30]'
p1153
aS'U0001131:%x[0,30]/%x[1,30]/%x[2,30]'
p1154
aS'U0001132:%x[0,31]'
p1155
aS'U0001133:%x[0,31]/%x[1,31]'
p1156
aS'U0001134:%x[0,31]/%x[1,31]/%x[2,31]'
p1157
aS'U0001135:%x[0,32]'
p1158
aS'U0001136:%x[0,32]/%x[1,32]'
p1159
aS'U0001137:%x[0,32]/%x[1,32]/%x[2,32]'
p1160
aS'U0001138:%x[0,33]'
p1161
aS'U0001139:%x[0,33]/%x[1,33]'
p1162
aS'U0001140:%x[0,33]/%x[1,33]/%x[2,33]'
p1163
aS'U0001141:%x[0,34]'
p1164
aS'U0001142:%x[0,34]/%x[1,34]'
p1165
aS'U0001143:%x[0,34]/%x[1,34]/%x[2,34]'
p1166
aS'U0001144:%x[0,35]'
p1167
aS'U0001145:%x[0,35]/%x[1,35]'
p1168
aS'U0001146:%x[0,35]/%x[1,35]/%x[2,35]'
p1169
aS'U0001147:%x[0,36]'
p1170
aS'U0001148:%x[0,36]/%x[1,36]'
p1171
aS'U0001149:%x[0,36]/%x[1,36]/%x[2,36]'
p1172
aS'U0001150:%x[0,37]'
p1173
aS'U0001151:%x[0,37]/%x[1,37]'
p1174
aS'U0001152:%x[0,37]/%x[1,37]/%x[2,37]'
p1175
aS'U0001153:%x[0,38]'
p1176
aS'U0001154:%x[0,38]/%x[1,38]'
p1177
aS'U0001155:%x[0,38]/%x[1,38]/%x[2,38]'
p1178
aS'U0001156:%x[0,39]'
p1179
aS'U0001157:%x[0,39]/%x[1,39]'
p1180
aS'U0001158:%x[0,39]/%x[1,39]/%x[2,39]'
p1181
aS'U0001159:%x[0,3]'
p1182
aS'U0001160:%x[0,3]/%x[1,3]'
p1183
aS'U0001161:%x[0,3]/%x[1,3]/%x[2,3]'
p1184
aS'U0001162:%x[0,40]'
p1185
aS'U0001163:%x[0,40]/%x[1,40]'
p1186
aS'U0001164:%x[0,40]/%x[1,40]/%x[2,40]'
p1187
aS'U0001165:%x[0,41]'
p1188
aS'U0001166:%x[0,41]/%x[1,41]'
p1189
aS'U0001167:%x[0,41]/%x[1,41]/%x[2,41]'
p1190
aS'U0001168:%x[0,42]'
p1191
aS'U0001169:%x[0,42]/%x[1,42]'
p1192
aS'U0001170:%x[0,42]/%x[1,42]/%x[2,42]'
p1193
aS'U0001171:%x[0,43]'
p1194
aS'U0001172:%x[0,43]/%x[1,43]'
p1195
aS'U0001173:%x[0,43]/%x[1,43]/%x[2,43]'
p1196
aS'U0001174:%x[0,44]'
p1197
aS'U0001175:%x[0,44]/%x[1,44]'
p1198
aS'U0001176:%x[0,44]/%x[1,44]/%x[2,44]'
p1199
aS'U0001177:%x[0,45]'
p1200
aS'U0001178:%x[0,45]/%x[1,45]'
p1201
aS'U0001179:%x[0,45]/%x[1,45]/%x[2,45]'
p1202
aS'U0001180:%x[0,46]'
p1203
aS'U0001181:%x[0,46]/%x[1,46]'
p1204
aS'U0001182:%x[0,46]/%x[1,46]/%x[2,46]'
p1205
aS'U0001183:%x[0,47]'
p1206
aS'U0001184:%x[0,47]/%x[1,47]'
p1207
aS'U0001185:%x[0,47]/%x[1,47]/%x[2,47]'
p1208
aS'U0001186:%x[0,48]'
p1209
aS'U0001187:%x[0,48]/%x[1,48]'
p1210
aS'U0001188:%x[0,48]/%x[1,48]/%x[2,48]'
p1211
aS'U0001189:%x[0,49]'
p1212
aS'U0001190:%x[0,49]/%x[1,49]'
p1213
aS'U0001191:%x[0,49]/%x[1,49]/%x[2,49]'
p1214
aS'U0001192:%x[0,4]'
p1215
aS'U0001193:%x[0,4]/%x[1,4]'
p1216
aS'U0001194:%x[0,4]/%x[1,4]/%x[2,4]'
p1217
aS'U0001195:%x[0,50]'
p1218
aS'U0001196:%x[0,50]/%x[1,50]'
p1219
aS'U0001197:%x[0,50]/%x[1,50]/%x[2,50]'
p1220
aS'U0001198:%x[0,51]'
p1221
aS'U0001199:%x[0,51]/%x[1,51]'
p1222
aS'U0001200:%x[0,51]/%x[1,51]/%x[2,51]'
p1223
aS'U0001201:%x[0,52]'
p1224
aS'U0001202:%x[0,52]/%x[1,52]'
p1225
aS'U0001203:%x[0,52]/%x[1,52]/%x[2,52]'
p1226
aS'U0001204:%x[0,53]'
p1227
aS'U0001205:%x[0,53]/%x[1,53]'
p1228
aS'U0001206:%x[0,53]/%x[1,53]/%x[2,53]'
p1229
aS'U0001207:%x[0,54]'
p1230
aS'U0001208:%x[0,54]/%x[1,54]'
p1231
aS'U0001209:%x[0,54]/%x[1,54]/%x[2,54]'
p1232
aS'U0001210:%x[0,55]'
p1233
aS'U0001211:%x[0,55]/%x[1,55]'
p1234
aS'U0001212:%x[0,55]/%x[1,55]/%x[2,55]'
p1235
aS'U0001213:%x[0,56]'
p1236
aS'U0001214:%x[0,56]/%x[1,56]'
p1237
aS'U0001215:%x[0,56]/%x[1,56]/%x[2,56]'
p1238
aS'U0001216:%x[0,57]'
p1239
aS'U0001217:%x[0,57]/%x[1,57]'
p1240
aS'U0001218:%x[0,57]/%x[1,57]/%x[2,57]'
p1241
aS'U0001219:%x[0,58]'
p1242
aS'U0001220:%x[0,58]/%x[1,58]'
p1243
aS'U0001221:%x[0,58]/%x[1,58]/%x[2,58]'
p1244
aS'U0001222:%x[0,59]'
p1245
aS'U0001223:%x[0,59]/%x[1,59]'
p1246
aS'U0001224:%x[0,59]/%x[1,59]/%x[2,59]'
p1247
aS'U0001225:%x[0,5]'
p1248
aS'U0001226:%x[0,5]/%x[1,5]'
p1249
aS'U0001227:%x[0,5]/%x[1,5]/%x[2,5]'
p1250
aS'U0001228:%x[0,60]'
p1251
aS'U0001229:%x[0,60]/%x[1,60]'
p1252
aS'U0001230:%x[0,60]/%x[1,60]/%x[2,60]'
p1253
aS'U0001231:%x[0,61]'
p1254
aS'U0001232:%x[0,61]/%x[1,61]'
p1255
aS'U0001233:%x[0,61]/%x[1,61]/%x[2,61]'
p1256
aS'U0001234:%x[0,62]'
p1257
aS'U0001235:%x[0,62]/%x[1,62]'
p1258
aS'U0001236:%x[0,62]/%x[1,62]/%x[2,62]'
p1259
aS'U0001237:%x[0,63]'
p1260
aS'U0001238:%x[0,63]/%x[1,63]'
p1261
aS'U0001239:%x[0,63]/%x[1,63]/%x[2,63]'
p1262
aS'U0001240:%x[0,64]'
p1263
aS'U0001241:%x[0,64]/%x[1,64]'
p1264
aS'U0001242:%x[0,64]/%x[1,64]/%x[2,64]'
p1265
aS'U0001243:%x[0,65]'
p1266
aS'U0001244:%x[0,65]/%x[1,65]'
p1267
aS'U0001245:%x[0,65]/%x[1,65]/%x[2,65]'
p1268
aS'U0001246:%x[0,66]'
p1269
aS'U0001247:%x[0,66]/%x[1,66]'
p1270
aS'U0001248:%x[0,66]/%x[1,66]/%x[2,66]'
p1271
aS'U0001249:%x[0,67]'
p1272
aS'U0001250:%x[0,67]/%x[1,67]'
p1273
aS'U0001251:%x[0,67]/%x[1,67]/%x[2,67]'
p1274
aS'U0001252:%x[0,68]'
p1275
aS'U0001253:%x[0,68]/%x[1,68]'
p1276
aS'U0001254:%x[0,68]/%x[1,68]/%x[2,68]'
p1277
aS'U0001255:%x[0,69]'
p1278
aS'U0001256:%x[0,69]/%x[1,69]'
p1279
aS'U0001257:%x[0,69]/%x[1,69]/%x[2,69]'
p1280
aS'U0001258:%x[0,6]'
p1281
aS'U0001259:%x[0,6]/%x[1,6]'
p1282
aS'U0001260:%x[0,6]/%x[1,6]/%x[2,6]'
p1283
aS'U0001261:%x[0,70]'
p1284
aS'U0001262:%x[0,70]/%x[1,70]'
p1285
aS'U0001263:%x[0,70]/%x[1,70]/%x[2,70]'
p1286
aS'U0001264:%x[0,71]'
p1287
aS'U0001265:%x[0,71]/%x[1,71]'
p1288
aS'U0001266:%x[0,71]/%x[1,71]/%x[2,71]'
p1289
aS'U0001267:%x[0,72]'
p1290
aS'U0001268:%x[0,72]/%x[1,72]'
p1291
aS'U0001269:%x[0,72]/%x[1,72]/%x[2,72]'
p1292
aS'U0001270:%x[0,73]'
p1293
aS'U0001271:%x[0,73]/%x[1,73]'
p1294
aS'U0001272:%x[0,73]/%x[1,73]/%x[2,73]'
p1295
aS'U0001273:%x[0,74]'
p1296
aS'U0001274:%x[0,74]/%x[1,74]'
p1297
aS'U0001275:%x[0,74]/%x[1,74]/%x[2,74]'
p1298
aS'U0001276:%x[0,75]'
p1299
aS'U0001277:%x[0,75]/%x[1,75]'
p1300
aS'U0001278:%x[0,75]/%x[1,75]/%x[2,75]'
p1301
aS'U0001279:%x[0,76]'
p1302
aS'U0001280:%x[0,76]/%x[1,76]'
p1303
aS'U0001281:%x[0,76]/%x[1,76]/%x[2,76]'
p1304
aS'U0001282:%x[0,77]'
p1305
aS'U0001283:%x[0,77]/%x[1,77]'
p1306
aS'U0001284:%x[0,77]/%x[1,77]/%x[2,77]'
p1307
aS'U0001285:%x[0,78]'
p1308
aS'U0001286:%x[0,78]/%x[1,78]'
p1309
aS'U0001287:%x[0,78]/%x[1,78]/%x[2,78]'
p1310
aS'U0001288:%x[0,79]'
p1311
aS'U0001289:%x[0,79]/%x[1,79]'
p1312
aS'U0001290:%x[0,79]/%x[1,79]/%x[2,79]'
p1313
aS'U0001291:%x[0,7]'
p1314
aS'U0001292:%x[0,7]/%x[1,7]'
p1315
aS'U0001293:%x[0,7]/%x[1,7]/%x[2,7]'
p1316
aS'U0001294:%x[0,80]'
p1317
aS'U0001295:%x[0,80]/%x[1,80]'
p1318
aS'U0001296:%x[0,80]/%x[1,80]/%x[2,80]'
p1319
aS'U0001297:%x[0,81]'
p1320
aS'U0001298:%x[0,81]/%x[1,81]'
p1321
aS'U0001299:%x[0,81]/%x[1,81]/%x[2,81]'
p1322
aS'U0001300:%x[0,82]'
p1323
aS'U0001301:%x[0,82]/%x[1,82]'
p1324
aS'U0001302:%x[0,82]/%x[1,82]/%x[2,82]'
p1325
aS'U0001303:%x[0,83]'
p1326
aS'U0001304:%x[0,83]/%x[1,83]'
p1327
aS'U0001305:%x[0,83]/%x[1,83]/%x[2,83]'
p1328
aS'U0001306:%x[0,84]'
p1329
aS'U0001307:%x[0,84]/%x[1,84]'
p1330
aS'U0001308:%x[0,84]/%x[1,84]/%x[2,84]'
p1331
aS'U0001309:%x[0,85]'
p1332
aS'U0001310:%x[0,85]/%x[1,85]'
p1333
aS'U0001311:%x[0,85]/%x[1,85]/%x[2,85]'
p1334
aS'U0001312:%x[0,86]'
p1335
aS'U0001313:%x[0,86]/%x[1,86]'
p1336
aS'U0001314:%x[0,86]/%x[1,86]/%x[2,86]'
p1337
aS'U0001315:%x[0,87]'
p1338
aS'U0001316:%x[0,87]/%x[1,87]'
p1339
aS'U0001317:%x[0,87]/%x[1,87]/%x[2,87]'
p1340
aS'U0001318:%x[0,88]'
p1341
aS'U0001319:%x[0,88]/%x[1,88]'
p1342
aS'U0001320:%x[0,88]/%x[1,88]/%x[2,88]'
p1343
aS'U0001321:%x[0,89]'
p1344
aS'U0001322:%x[0,89]/%x[1,89]'
p1345
aS'U0001323:%x[0,89]/%x[1,89]/%x[2,89]'
p1346
aS'U0001324:%x[0,8]'
p1347
aS'U0001325:%x[0,8]/%x[1,8]'
p1348
aS'U0001326:%x[0,8]/%x[1,8]/%x[2,8]'
p1349
aS'U0001327:%x[0,90]'
p1350
aS'U0001328:%x[0,90]/%x[1,90]'
p1351
aS'U0001329:%x[0,90]/%x[1,90]/%x[2,90]'
p1352
aS'U0001330:%x[0,91]'
p1353
aS'U0001331:%x[0,91]/%x[1,91]'
p1354
aS'U0001332:%x[0,91]/%x[1,91]/%x[2,91]'
p1355
aS'U0001333:%x[0,92]'
p1356
aS'U0001334:%x[0,92]/%x[1,92]'
p1357
aS'U0001335:%x[0,92]/%x[1,92]/%x[2,92]'
p1358
aS'U0001336:%x[0,93]'
p1359
aS'U0001337:%x[0,93]/%x[1,93]'
p1360
aS'U0001338:%x[0,93]/%x[1,93]/%x[2,93]'
p1361
aS'U0001339:%x[0,94]'
p1362
aS'U0001340:%x[0,94]/%x[1,94]'
p1363
aS'U0001341:%x[0,94]/%x[1,94]/%x[2,94]'
p1364
aS'U0001342:%x[0,95]'
p1365
aS'U0001343:%x[0,95]/%x[1,95]'
p1366
aS'U0001344:%x[0,95]/%x[1,95]/%x[2,95]'
p1367
aS'U0001345:%x[0,96]'
p1368
aS'U0001346:%x[0,96]/%x[1,96]'
p1369
aS'U0001347:%x[0,96]/%x[1,96]/%x[2,96]'
p1370
aS'U0001348:%x[0,97]'
p1371
aS'U0001349:%x[0,97]/%x[1,97]'
p1372
aS'U0001350:%x[0,97]/%x[1,97]/%x[2,97]'
p1373
aS'U0001351:%x[0,98]'
p1374
aS'U0001352:%x[0,98]/%x[1,98]'
p1375
aS'U0001353:%x[0,98]/%x[1,98]/%x[2,98]'
p1376
aS'U0001354:%x[0,99]'
p1377
aS'U0001355:%x[0,99]/%x[1,99]'
p1378
aS'U0001356:%x[0,99]/%x[1,99]/%x[2,99]'
p1379
aS'U0001357:%x[0,9]'
p1380
aS'U0001358:%x[0,9]/%x[1,9]'
p1381
aS'U0001359:%x[0,9]/%x[1,9]/%x[2,9]'
p1382
aS'U0001360:%x[1,0]'
p1383
aS'U0001361:%x[1,0]/%x[2,0]'
p1384
aS'U0001362:%x[1,100]'
p1385
aS'U0001363:%x[1,100]/%x[2,100]'
p1386
aS'U0001364:%x[1,101]'
p1387
aS'U0001365:%x[1,101]/%x[2,101]'
p1388
aS'U0001366:%x[1,102]'
p1389
aS'U0001367:%x[1,102]/%x[2,102]'
p1390
aS'U0001368:%x[1,103]'
p1391
aS'U0001369:%x[1,103]/%x[2,103]'
p1392
aS'U0001370:%x[1,104]'
p1393
aS'U0001371:%x[1,104]/%x[2,104]'
p1394
aS'U0001372:%x[1,105]'
p1395
aS'U0001373:%x[1,105]/%x[2,105]'
p1396
aS'U0001374:%x[1,106]'
p1397
aS'U0001375:%x[1,106]/%x[2,106]'
p1398
aS'U0001376:%x[1,107]'
p1399
aS'U0001377:%x[1,107]/%x[2,107]'
p1400
aS'U0001378:%x[1,108]'
p1401
aS'U0001379:%x[1,108]/%x[2,108]'
p1402
aS'U0001380:%x[1,109]'
p1403
aS'U0001381:%x[1,109]/%x[2,109]'
p1404
aS'U0001382:%x[1,10]'
p1405
aS'U0001383:%x[1,10]/%x[2,10]'
p1406
aS'U0001384:%x[1,110]'
p1407
aS'U0001385:%x[1,110]/%x[2,110]'
p1408
aS'U0001386:%x[1,111]'
p1409
aS'U0001387:%x[1,111]/%x[2,111]'
p1410
aS'U0001388:%x[1,112]'
p1411
aS'U0001389:%x[1,112]/%x[2,112]'
p1412
aS'U0001390:%x[1,113]'
p1413
aS'U0001391:%x[1,113]/%x[2,113]'
p1414
aS'U0001392:%x[1,114]'
p1415
aS'U0001393:%x[1,114]/%x[2,114]'
p1416
aS'U0001394:%x[1,115]'
p1417
aS'U0001395:%x[1,115]/%x[2,115]'
p1418
aS'U0001396:%x[1,116]'
p1419
aS'U0001397:%x[1,116]/%x[2,116]'
p1420
aS'U0001398:%x[1,117]'
p1421
aS'U0001399:%x[1,117]/%x[2,117]'
p1422
aS'U0001400:%x[1,118]'
p1423
aS'U0001401:%x[1,118]/%x[2,118]'
p1424
aS'U0001402:%x[1,119]'
p1425
aS'U0001403:%x[1,119]/%x[2,119]'
p1426
aS'U0001404:%x[1,11]'
p1427
aS'U0001405:%x[1,11]/%x[2,11]'
p1428
aS'U0001406:%x[1,120]'
p1429
aS'U0001407:%x[1,120]/%x[2,120]'
p1430
aS'U0001408:%x[1,121]'
p1431
aS'U0001409:%x[1,121]/%x[2,121]'
p1432
aS'U0001410:%x[1,122]'
p1433
aS'U0001411:%x[1,122]/%x[2,122]'
p1434
aS'U0001412:%x[1,123]'
p1435
aS'U0001413:%x[1,123]/%x[2,123]'
p1436
aS'U0001414:%x[1,124]'
p1437
aS'U0001415:%x[1,124]/%x[2,124]'
p1438
aS'U0001416:%x[1,125]'
p1439
aS'U0001417:%x[1,125]/%x[2,125]'
p1440
aS'U0001418:%x[1,126]'
p1441
aS'U0001419:%x[1,126]/%x[2,126]'
p1442
aS'U0001420:%x[1,127]'
p1443
aS'U0001421:%x[1,127]/%x[2,127]'
p1444
aS'U0001422:%x[1,128]'
p1445
aS'U0001423:%x[1,128]/%x[2,128]'
p1446
aS'U0001424:%x[1,129]'
p1447
aS'U0001425:%x[1,129]/%x[2,129]'
p1448
aS'U0001426:%x[1,12]'
p1449
aS'U0001427:%x[1,12]/%x[2,12]'
p1450
aS'U0001428:%x[1,130]'
p1451
aS'U0001429:%x[1,130]/%x[2,130]'
p1452
aS'U0001430:%x[1,131]'
p1453
aS'U0001431:%x[1,131]/%x[2,131]'
p1454
aS'U0001432:%x[1,132]'
p1455
aS'U0001433:%x[1,132]/%x[2,132]'
p1456
aS'U0001434:%x[1,133]'
p1457
aS'U0001435:%x[1,133]/%x[2,133]'
p1458
aS'U0001436:%x[1,134]'
p1459
aS'U0001437:%x[1,134]/%x[2,134]'
p1460
aS'U0001438:%x[1,135]'
p1461
aS'U0001439:%x[1,135]/%x[2,135]'
p1462
aS'U0001440:%x[1,13]'
p1463
aS'U0001441:%x[1,13]/%x[2,13]'
p1464
aS'U0001442:%x[1,14]'
p1465
aS'U0001443:%x[1,14]/%x[2,14]'
p1466
aS'U0001444:%x[1,15]'
p1467
aS'U0001445:%x[1,15]/%x[2,15]'
p1468
aS'U0001446:%x[1,16]'
p1469
aS'U0001447:%x[1,16]/%x[2,16]'
p1470
aS'U0001448:%x[1,17]'
p1471
aS'U0001449:%x[1,17]/%x[2,17]'
p1472
aS'U0001450:%x[1,18]'
p1473
aS'U0001451:%x[1,18]/%x[2,18]'
p1474
aS'U0001452:%x[1,19]'
p1475
aS'U0001453:%x[1,19]/%x[2,19]'
p1476
aS'U0001454:%x[1,1]'
p1477
aS'U0001455:%x[1,1]/%x[2,1]'
p1478
aS'U0001456:%x[1,20]'
p1479
aS'U0001457:%x[1,20]/%x[2,20]'
p1480
aS'U0001458:%x[1,21]'
p1481
aS'U0001459:%x[1,21]/%x[2,21]'
p1482
aS'U0001460:%x[1,22]'
p1483
aS'U0001461:%x[1,22]/%x[2,22]'
p1484
aS'U0001462:%x[1,23]'
p1485
aS'U0001463:%x[1,23]/%x[2,23]'
p1486
aS'U0001464:%x[1,24]'
p1487
aS'U0001465:%x[1,24]/%x[2,24]'
p1488
aS'U0001466:%x[1,25]'
p1489
aS'U0001467:%x[1,25]/%x[2,25]'
p1490
aS'U0001468:%x[1,26]'
p1491
aS'U0001469:%x[1,26]/%x[2,26]'
p1492
aS'U0001470:%x[1,27]'
p1493
aS'U0001471:%x[1,27]/%x[2,27]'
p1494
aS'U0001472:%x[1,28]'
p1495
aS'U0001473:%x[1,28]/%x[2,28]'
p1496
aS'U0001474:%x[1,29]'
p1497
aS'U0001475:%x[1,29]/%x[2,29]'
p1498
aS'U0001476:%x[1,2]'
p1499
aS'U0001477:%x[1,2]/%x[2,2]'
p1500
aS'U0001478:%x[1,30]'
p1501
aS'U0001479:%x[1,30]/%x[2,30]'
p1502
aS'U0001480:%x[1,31]'
p1503
aS'U0001481:%x[1,31]/%x[2,31]'
p1504
aS'U0001482:%x[1,32]'
p1505
aS'U0001483:%x[1,32]/%x[2,32]'
p1506
aS'U0001484:%x[1,33]'
p1507
aS'U0001485:%x[1,33]/%x[2,33]'
p1508
aS'U0001486:%x[1,34]'
p1509
aS'U0001487:%x[1,34]/%x[2,34]'
p1510
aS'U0001488:%x[1,35]'
p1511
aS'U0001489:%x[1,35]/%x[2,35]'
p1512
aS'U0001490:%x[1,36]'
p1513
aS'U0001491:%x[1,36]/%x[2,36]'
p1514
aS'U0001492:%x[1,37]'
p1515
aS'U0001493:%x[1,37]/%x[2,37]'
p1516
aS'U0001494:%x[1,38]'
p1517
aS'U0001495:%x[1,38]/%x[2,38]'
p1518
aS'U0001496:%x[1,39]'
p1519
aS'U0001497:%x[1,39]/%x[2,39]'
p1520
aS'U0001498:%x[1,3]'
p1521
aS'U0001499:%x[1,3]/%x[2,3]'
p1522
aS'U0001500:%x[1,40]'
p1523
aS'U0001501:%x[1,40]/%x[2,40]'
p1524
aS'U0001502:%x[1,41]'
p1525
aS'U0001503:%x[1,41]/%x[2,41]'
p1526
aS'U0001504:%x[1,42]'
p1527
aS'U0001505:%x[1,42]/%x[2,42]'
p1528
aS'U0001506:%x[1,43]'
p1529
aS'U0001507:%x[1,43]/%x[2,43]'
p1530
aS'U0001508:%x[1,44]'
p1531
aS'U0001509:%x[1,44]/%x[2,44]'
p1532
aS'U0001510:%x[1,45]'
p1533
aS'U0001511:%x[1,45]/%x[2,45]'
p1534
aS'U0001512:%x[1,46]'
p1535
aS'U0001513:%x[1,46]/%x[2,46]'
p1536
aS'U0001514:%x[1,47]'
p1537
aS'U0001515:%x[1,47]/%x[2,47]'
p1538
aS'U0001516:%x[1,48]'
p1539
aS'U0001517:%x[1,48]/%x[2,48]'
p1540
aS'U0001518:%x[1,49]'
p1541
aS'U0001519:%x[1,49]/%x[2,49]'
p1542
aS'U0001520:%x[1,4]'
p1543
aS'U0001521:%x[1,4]/%x[2,4]'
p1544
aS'U0001522:%x[1,50]'
p1545
aS'U0001523:%x[1,50]/%x[2,50]'
p1546
aS'U0001524:%x[1,51]'
p1547
aS'U0001525:%x[1,51]/%x[2,51]'
p1548
aS'U0001526:%x[1,52]'
p1549
aS'U0001527:%x[1,52]/%x[2,52]'
p1550
aS'U0001528:%x[1,53]'
p1551
aS'U0001529:%x[1,53]/%x[2,53]'
p1552
aS'U0001530:%x[1,54]'
p1553
aS'U0001531:%x[1,54]/%x[2,54]'
p1554
aS'U0001532:%x[1,55]'
p1555
aS'U0001533:%x[1,55]/%x[2,55]'
p1556
aS'U0001534:%x[1,56]'
p1557
aS'U0001535:%x[1,56]/%x[2,56]'
p1558
aS'U0001536:%x[1,57]'
p1559
aS'U0001537:%x[1,57]/%x[2,57]'
p1560
aS'U0001538:%x[1,58]'
p1561
aS'U0001539:%x[1,58]/%x[2,58]'
p1562
aS'U0001540:%x[1,59]'
p1563
aS'U0001541:%x[1,59]/%x[2,59]'
p1564
aS'U0001542:%x[1,5]'
p1565
aS'U0001543:%x[1,5]/%x[2,5]'
p1566
aS'U0001544:%x[1,60]'
p1567
aS'U0001545:%x[1,60]/%x[2,60]'
p1568
aS'U0001546:%x[1,61]'
p1569
aS'U0001547:%x[1,61]/%x[2,61]'
p1570
aS'U0001548:%x[1,62]'
p1571
aS'U0001549:%x[1,62]/%x[2,62]'
p1572
aS'U0001550:%x[1,63]'
p1573
aS'U0001551:%x[1,63]/%x[2,63]'
p1574
aS'U0001552:%x[1,64]'
p1575
aS'U0001553:%x[1,64]/%x[2,64]'
p1576
aS'U0001554:%x[1,65]'
p1577
aS'U0001555:%x[1,65]/%x[2,65]'
p1578
aS'U0001556:%x[1,66]'
p1579
aS'U0001557:%x[1,66]/%x[2,66]'
p1580
aS'U0001558:%x[1,67]'
p1581
aS'U0001559:%x[1,67]/%x[2,67]'
p1582
aS'U0001560:%x[1,68]'
p1583
aS'U0001561:%x[1,68]/%x[2,68]'
p1584
aS'U0001562:%x[1,69]'
p1585
aS'U0001563:%x[1,69]/%x[2,69]'
p1586
aS'U0001564:%x[1,6]'
p1587
aS'U0001565:%x[1,6]/%x[2,6]'
p1588
aS'U0001566:%x[1,70]'
p1589
aS'U0001567:%x[1,70]/%x[2,70]'
p1590
aS'U0001568:%x[1,71]'
p1591
aS'U0001569:%x[1,71]/%x[2,71]'
p1592
aS'U0001570:%x[1,72]'
p1593
aS'U0001571:%x[1,72]/%x[2,72]'
p1594
aS'U0001572:%x[1,73]'
p1595
aS'U0001573:%x[1,73]/%x[2,73]'
p1596
aS'U0001574:%x[1,74]'
p1597
aS'U0001575:%x[1,74]/%x[2,74]'
p1598
aS'U0001576:%x[1,75]'
p1599
aS'U0001577:%x[1,75]/%x[2,75]'
p1600
aS'U0001578:%x[1,76]'
p1601
aS'U0001579:%x[1,76]/%x[2,76]'
p1602
aS'U0001580:%x[1,77]'
p1603
aS'U0001581:%x[1,77]/%x[2,77]'
p1604
aS'U0001582:%x[1,78]'
p1605
aS'U0001583:%x[1,78]/%x[2,78]'
p1606
aS'U0001584:%x[1,79]'
p1607
aS'U0001585:%x[1,79]/%x[2,79]'
p1608
aS'U0001586:%x[1,7]'
p1609
aS'U0001587:%x[1,7]/%x[2,7]'
p1610
aS'U0001588:%x[1,80]'
p1611
aS'U0001589:%x[1,80]/%x[2,80]'
p1612
aS'U0001590:%x[1,81]'
p1613
aS'U0001591:%x[1,81]/%x[2,81]'
p1614
aS'U0001592:%x[1,82]'
p1615
aS'U0001593:%x[1,82]/%x[2,82]'
p1616
aS'U0001594:%x[1,83]'
p1617
aS'U0001595:%x[1,83]/%x[2,83]'
p1618
aS'U0001596:%x[1,84]'
p1619
aS'U0001597:%x[1,84]/%x[2,84]'
p1620
aS'U0001598:%x[1,85]'
p1621
aS'U0001599:%x[1,85]/%x[2,85]'
p1622
aS'U0001600:%x[1,86]'
p1623
aS'U0001601:%x[1,86]/%x[2,86]'
p1624
aS'U0001602:%x[1,87]'
p1625
aS'U0001603:%x[1,87]/%x[2,87]'
p1626
aS'U0001604:%x[1,88]'
p1627
aS'U0001605:%x[1,88]/%x[2,88]'
p1628
aS'U0001606:%x[1,89]'
p1629
aS'U0001607:%x[1,89]/%x[2,89]'
p1630
aS'U0001608:%x[1,8]'
p1631
aS'U0001609:%x[1,8]/%x[2,8]'
p1632
aS'U0001610:%x[1,90]'
p1633
aS'U0001611:%x[1,90]/%x[2,90]'
p1634
aS'U0001612:%x[1,91]'
p1635
aS'U0001613:%x[1,91]/%x[2,91]'
p1636
aS'U0001614:%x[1,92]'
p1637
aS'U0001615:%x[1,92]/%x[2,92]'
p1638
aS'U0001616:%x[1,93]'
p1639
aS'U0001617:%x[1,93]/%x[2,93]'
p1640
aS'U0001618:%x[1,94]'
p1641
aS'U0001619:%x[1,94]/%x[2,94]'
p1642
aS'U0001620:%x[1,95]'
p1643
aS'U0001621:%x[1,95]/%x[2,95]'
p1644
aS'U0001622:%x[1,96]'
p1645
aS'U0001623:%x[1,96]/%x[2,96]'
p1646
aS'U0001624:%x[1,97]'
p1647
aS'U0001625:%x[1,97]/%x[2,97]'
p1648
aS'U0001626:%x[1,98]'
p1649
aS'U0001627:%x[1,98]/%x[2,98]'
p1650
aS'U0001628:%x[1,99]'
p1651
aS'U0001629:%x[1,99]/%x[2,99]'
p1652
aS'U0001630:%x[1,9]'
p1653
aS'U0001631:%x[1,9]/%x[2,9]'
p1654
asb.