ccopy_reg
_reconstructor
p1
(cclassifier
ClassificationModel
p2
c__builtin__
object
p3
NtRp4
(dp5
S'name'
p6
S'tempeval3'
p7
sS'topology_path'
p8
S'models/tempeval3.template'
p9
sS'header'
p10
(lp11
S'000_sentence_dependency_incoming_postag_gfather'
p12
aS'001_sentence_dependency_incoming_father_dep_rel'
p13
aS'002_sentence_dependency_incoming_postag_father'
p14
aS'003_sentence_dependency_incoming_dominant_verb'
p15
aS'004_sentence_dependency_incoming_gfather_dep_rel'
p16
aS'006_sentence_dependency_outgoing_neg'
p17
aS'007_sentence_dependency_outgoing_dep'
p18
aS'008_sentence_dependency_outgoing_det'
p19
aS'009_sentence_dependency_outgoing_aux'
p20
aS'010_sentence_dependency_outgoing_acomp'
p21
aS'011_sentence_dependency_outgoing_cc'
p22
aS'012_sentence_dependency_outgoing_mark'
p23
aS'013_sentence_dependency_outgoing_csubj'
p24
aS'014_sentence_dependency_outgoing_num'
p25
aS'015_sentence_dependency_outgoing_cop'
p26
aS'016_sentence_dependency_outgoing_sdep'
p27
aS'017_sentence_dependency_outgoing_xcomp'
p28
aS'018_sentence_dependency_outgoing_iobj'
p29
aS'019_sentence_dependency_outgoing_vmod'
p30
aS'020_sentence_dependency_outgoing_prep'
p31
aS'021_sentence_dependency_outgoing_ccomp'
p32
aS'022_sentence_dependency_outgoing_discourse'
p33
aS'023_sentence_dependency_outgoing_subj'
p34
aS'024_sentence_dependency_outgoing_parataxis'
p35
aS'025_sentence_dependency_outgoing_appos'
p36
aS'026_sentence_dependency_outgoing_comp'
p37
aS'027_sentence_dependency_outgoing_root'
p38
aS'028_sentence_dependency_outgoing_nsubj'
p39
aS'029_sentence_dependency_outgoing_pobj'
p40
aS'030_sentence_dependency_outgoing_mod'
p41
aS'031_sentence_dependency_outgoing_dobj'
p42
aS'032_sentence_dependency_outgoing_nsubjpass'
p43
aS'033_sentence_dependency_outgoing_n_of_outgoing_relations'
p44
aS'034_sentence_dependency_outgoing_number'
p45
aS'035_sentence_dependency_outgoing_preconj'
p46
aS'036_sentence_dependency_outgoing_amod'
p47
aS'037_sentence_dependency_outgoing_obj'
p48
aS'038_sentence_dependency_outgoing_nn'
p49
aS'039_sentence_dependency_outgoing_quantmod'
p50
aS'040_sentence_dependency_outgoing_mwe'
p51
aS'041_sentence_dependency_outgoing_advmod'
p52
aS'042_sentence_dependency_outgoing_poss'
p53
aS'043_sentence_dependency_outgoing_advcl'
p54
aS'044_sentence_dependency_outgoing_tmod'
p55
aS'045_sentence_dependency_outgoing_punct'
p56
aS'046_sentence_dependency_outgoing_predet'
p57
aS'047_sentence_dependency_outgoing_xsubj'
p58
aS'048_sentence_dependency_outgoing_conj'
p59
aS'049_sentence_dependency_outgoing_prt'
p60
aS'050_sentence_dependency_outgoing_ref'
p61
aS'051_sentence_dependency_outgoing_auxpass'
p62
aS'052_sentence_dependency_outgoing_csubjpass'
p63
aS'053_sentence_dependency_outgoing_arg'
p64
aS'054_sentence_dependency_outgoing_prepc'
p65
aS'055_sentence_dependency_outgoing_rcmod'
p66
aS'056_sentence_dependency_outgoing_expl'
p67
aS'057_sentence_dependency_outgoing_npadvmod'
p68
aS'058_sentence_dependency_outgoing_possessive'
p69
aS'059_sentence_dependency_outgoing_agent'
p70
aS'061_sentence_gazetteer_country'
p71
aS'062_sentence_gazetteer_femalename'
p72
aS'063_sentence_gazetteer_festivity'
p73
aS'064_sentence_gazetteer_isocountry'
p74
aS'065_sentence_gazetteer_malename'
p75
aS'066_sentence_gazetteer_nationality'
p76
aS'067_sentence_gazetteer_uscity'
p77
aS'068_sentence_parse_2_levels_up_childs'
p78
aS'069_sentence_parse_2_levels_up_node'
p79
aS'070_sentence_parse_2_levels_up_nodes'
p80
aS'071_sentence_parse_3_levels_up_childs'
p81
aS'072_sentence_parse_3_levels_up_node'
p82
aS'073_sentence_parse_3_levels_up_nodes'
p83
aS'074_sentence_parse_distance_from_s_node'
p84
aS'075_sentence_parse_start_or_end_child_in_s_clause'
p85
aS'076_word_lexical_lemma'
p86
aS'077_word_lexical_named_entity_tag'
p87
aS'078_word_lexical_polarity'
p88
aS'079_word_lexical_pos'
p89
aS'080_word_lexical_tense'
p90
aS'081_word_morphological_ends_with_s'
p91
aS'082_word_morphological_extended_pattern'
p92
aS'083_word_morphological_first_upper'
p93
aS'084_word_morphological_has_digit'
p94
aS'085_word_morphological_has_symbol'
p95
aS'086_word_morphological_is_all_caps_and_dots'
p96
aS'087_word_morphological_is_all_digits_and_dots'
p97
aS'088_word_morphological_is_alpha'
p98
aS'089_word_morphological_is_alphabetic'
p99
aS'090_word_morphological_is_alphanumeric'
p100
aS'091_word_morphological_is_decimal'
p101
aS'092_word_morphological_is_digit'
p102
aS'093_word_morphological_is_lower'
p103
aS'094_word_morphological_is_numeric'
p104
aS'095_word_morphological_is_stopword'
p105
aS'096_word_morphological_is_title'
p106
aS'097_word_morphological_is_upper'
p107
aS'098_word_morphological_lancaster_stem'
p108
aS'099_word_morphological_pattern'
p109
aS'100_word_morphological_porter_stem'
p110
aS'101_word_morphological_prefix'
p111
aS'102_word_morphological_suffix'
p112
aS'103_word_morphological_token_with_no_letters'
p113
aS'104_word_morphological_token_with_no_letters_and_numbers'
p114
aS'105_word_morphological_unusual_word'
p115
aS'106_word_morphological_vocal_pattern'
p116
aS'107_word_morphological_wordnet_lemma'
p117
aS'108_word_phonetic_form'
p118
aS'109_word_phonetic_length'
p119
aS'110_word_phonetic_first'
p120
aS'111_word_phonetic_last'
p121
aS'112_word_temporal_cardinal_number'
p122
aS'113_word_temporal_compound'
p123
aS'114_word_temporal_digit'
p124
aS'115_word_temporal_festivity'
p125
aS'116_word_temporal_future_ref'
p126
aS'117_word_temporal_fuzzy_quantifier'
p127
aS'118_word_temporal_literal_number'
p128
aS'119_word_temporal_modifier'
p129
aS'120_word_temporal_month'
p130
aS'121_word_temporal_number'
p131
aS'122_word_temporal_ordinal'
p132
aS'123_word_temporal_past_ref'
p133
aS'124_word_temporal_period'
p134
aS'125_word_temporal_pod'
p135
aS'126_word_temporal_present_ref'
p136
aS'127_word_temporal_season'
p137
aS'128_word_temporal_signal'
p138
aS'129_word_temporal_temporal_adjectives'
p139
aS'130_word_temporal_temporal_adverbs'
p140
aS'131_word_temporal_temporal_conjunctives'
p141
aS'132_word_temporal_temporal_coreference'
p142
aS'133_word_temporal_temporal_prepositions'
p143
aS'134_word_temporal_time'
p144
aS'135_word_temporal_weekday'
p145
aS'136_word_temporal_year'
p146
aS'137_word_token_normalised'
p147
asS'extractors_md5'
p148
S'\xc5^WJ\xfd6\x8a\xb3M\xdc\x8d\x18\xae\xe2\x97\xd3'
p149
sS'path'
p150
S'models/tempeval3.model'
p151
sS'topology'
p152
NsS'pipeline_factors'
p153
Nsb.