(dp0
S'summer'
p1
ccollections
defaultdict
p2
(c__builtin__
float
p3
tp4
Rp5
S'I-TIMEX3'
p6
F0.8333333333333334
sS'B-TIMEX3'
p7
F0.16666666666666666
ssS'currently'
p8
g2
(g3
tp9
Rp10
S'O-TIMEX3'
p11
F0.3333333333333333
sS'B-TIMEX3'
p12
F0.6666666666666666
ssS'quarters'
p13
g2
(g3
tp14
Rp15
S'O-TIMEX3'
p16
F0.125
sS'I-TIMEX3'
p17
F0.875
ssS'less'
p18
g2
(g3
tp19
Rp20
S'O-TIMEX3'
p21
F0.9230769230769231
sS'B-TIMEX3'
p22
F0.07692307692307693
ssS'over'
p23
g2
(g3
tp24
Rp25
S'O-TIMEX3'
p26
F0.9761904761904762
sS'B-TIMEX3'
p27
F0.023809523809523808
ssS'fall'
p28
g2
(g3
tp29
Rp30
S'O-TIMEX3'
p31
F0.5454545454545454
sS'I-TIMEX3'
p32
F0.45454545454545453
ssS'soon'
p33
g2
(g3
tp34
Rp35
S'O-TIMEX3'
p36
F0.8125
sS'B-TIMEX3'
p37
F0.1875
ssS'years'
p38
g2
(g3
tp39
Rp40
S'O-TIMEX3'
p41
F0.16176470588235295
sS'I-TIMEX3'
p42
F0.7794117647058824
sS'B-TIMEX3'
p43
F0.058823529411764705
ssS'four'
p44
g2
(g3
tp45
Rp46
S'O-TIMEX3'
p47
F0.7058823529411765
sS'I-TIMEX3'
p48
F0.23529411764705882
sS'B-TIMEX3'
p49
F0.058823529411764705
ssS'Sunday'
p50
g2
(g3
tp51
Rp52
S'I-TIMEX3'
p53
F0.047619047619047616
sS'B-TIMEX3'
p54
F0.9523809523809523
ssS'Feb'
p55
g2
(g3
tp56
Rp57
S'B-TIMEX3'
p58
F1.0
ssS"Tuesday's"
p59
g2
(g3
tp60
Rp61
S'I-TIMEX3'
p62
F0.5
sS'B-TIMEX3'
p63
F0.5
ssS'year-earlier'
p64
g2
(g3
tp65
Rp66
S'I-TIMEX3'
p67
F0.6666666666666666
sS'B-TIMEX3'
p68
F0.3333333333333333
ssS'Oct'
p69
g2
(g3
tp70
Rp71
S'I-TIMEX3'
p72
F0.15789473684210525
sS'B-TIMEX3'
p73
F0.8421052631578947
ssS'decade'
p74
g2
(g3
tp75
Rp76
S'I-TIMEX3'
p77
F1.0
ssS'before'
p78
g2
(g3
tp79
Rp80
S'O-TIMEX3'
p81
F0.9743589743589743
sS'I-TIMEX3'
p82
F0.02564102564102564
ssS'one'
p83
g2
(g3
tp84
Rp85
S'O-TIMEX3'
p86
F0.918918918918919
sS'I-TIMEX3'
p87
F0.009009009009009009
sS'B-TIMEX3'
p88
F0.07207207207207207
ssS'25'
p89
g2
(g3
tp90
Rp91
S'O-TIMEX3'
p92
F0.75
sS'I-TIMEX3'
p93
F0.25
ssS'26'
p94
g2
(g3
tp95
Rp96
S'O-TIMEX3'
p97
F0.3333333333333333
sS'I-TIMEX3'
p98
F0.6666666666666666
ssS'1949'
p99
g2
(g3
tp100
Rp101
S'I-TIMEX3'
p102
F0.3333333333333333
sS'B-TIMEX3'
p103
F0.6666666666666666
ssS'20'
p104
g2
(g3
tp105
Rp106
S'O-TIMEX3'
p107
F0.7407407407407407
sS'I-TIMEX3'
p108
F0.25925925925925924
ssS'21'
p109
g2
(g3
tp110
Rp111
S'O-TIMEX3'
p112
F0.5714285714285714
sS'I-TIMEX3'
p113
F0.42857142857142855
ssS'22'
p114
g2
(g3
tp115
Rp116
S'O-TIMEX3'
p117
F0.6666666666666666
sS'I-TIMEX3'
p118
F0.2222222222222222
sS'B-TIMEX3'
p119
F0.1111111111111111
ssS'23'
p120
g2
(g3
tp121
Rp122
S'O-TIMEX3'
p123
F0.3333333333333333
sS'I-TIMEX3'
p124
F0.6666666666666666
ssS'Sept'
p125
g2
(g3
tp126
Rp127
S'B-TIMEX3'
p128
F1.0
ssS'Friday'
p129
g2
(g3
tp130
Rp131
S'I-TIMEX3'
p132
F0.030612244897959183
sS'B-TIMEX3'
p133
F0.9693877551020408
ssS','
p134
g2
(g3
tp135
Rp136
S'O-TIMEX3'
p137
F0.9948752228163993
sS'I-TIMEX3'
p138
F0.005124777183600713
ssS'than'
p139
g2
(g3
tp140
Rp141
S'O-TIMEX3'
p142
F0.95
sS'I-TIMEX3'
p143
F0.05
ssS'late'
p144
g2
(g3
tp145
Rp146
S'O-TIMEX3'
p147
F0.38461538461538464
sS'I-TIMEX3'
p148
F0.07692307692307693
sS'B-TIMEX3'
p149
F0.5384615384615384
ssS'to'
p150
g2
(g3
tp151
Rp152
S'O-TIMEX3'
p153
F0.9978002639683238
sS'I-TIMEX3'
p154
F0.002199736031676199
ssS"Wednesday's"
p155
g2
(g3
tp156
Rp157
S'B-TIMEX3'
p158
F1.0
ssS'4'
p159
g2
(g3
tp160
Rp161
S'O-TIMEX3'
p162
F0.75
sS'I-TIMEX3'
p163
F0.08333333333333333
sS'B-TIMEX3'
p164
F0.16666666666666666
ssS'8'
p165
g2
(g3
tp166
Rp167
S'O-TIMEX3'
p168
F0.6666666666666666
sS'I-TIMEX3'
p169
F0.3333333333333333
ssS'Nov'
p170
g2
(g3
tp171
Rp172
S'B-TIMEX3'
p173
F1.0
ssS'Now'
p174
g2
(g3
tp175
Rp176
S'O-TIMEX3'
p177
F0.5454545454545454
sS'B-TIMEX3'
p178
F0.45454545454545453
ssS'decades'
p179
g2
(g3
tp180
Rp181
S'O-TIMEX3'
p182
F0.5
sS'I-TIMEX3'
p183
F0.5
ssS'Day'
p184
g2
(g3
tp185
Rp186
S'O-TIMEX3'
p187
F0.5
sS'I-TIMEX3'
p188
F0.5
ssS'1991'
p189
g2
(g3
tp190
Rp191
S'B-TIMEX3'
p192
F1.0
ssS'evening'
p193
g2
(g3
tp194
Rp195
S'I-TIMEX3'
p196
F1.0
ssS'Last'
p197
g2
(g3
tp198
Rp199
S'B-TIMEX3'
p200
F1.0
ssS'1990'
p201
g2
(g3
tp202
Rp203
S'I-TIMEX3'
p204
F0.2222222222222222
sS'B-TIMEX3'
p205
F0.7777777777777778
ssS'1994.'
p206
g2
(g3
tp207
Rp208
S'I-TIMEX3'
p209
F0.6
sS'B-TIMEX3'
p210
F0.4
ssS'mid-November'
p211
g2
(g3
tp212
Rp213
S'B-TIMEX3'
p214
F1.0
ssS'couple'
p215
g2
(g3
tp216
Rp217
S'O-TIMEX3'
p218
F0.3333333333333333
sS'I-TIMEX3'
p219
F0.6666666666666666
ssS'term'
p220
g2
(g3
tp221
Rp222
S'O-TIMEX3'
p223
F0.25
sS'I-TIMEX3'
p224
F0.75
ssS'13.'
p225
g2
(g3
tp226
Rp227
S'I-TIMEX3'
p228
F1.0
ssS'1955'
p229
g2
(g3
tp230
Rp231
S'B-TIMEX3'
p232
F1.0
ssS'1956'
p233
g2
(g3
tp234
Rp235
S'I-TIMEX3'
p236
F0.5
sS'B-TIMEX3'
p237
F0.5
ssS'five'
p238
g2
(g3
tp239
Rp240
S'O-TIMEX3'
p241
F0.5806451612903226
sS'I-TIMEX3'
p242
F0.06451612903225806
sS'B-TIMEX3'
p243
F0.3548387096774194
ssS'nearly'
p244
g2
(g3
tp245
Rp246
S'O-TIMEX3'
p247
F0.8387096774193549
sS'B-TIMEX3'
p248
F0.16129032258064516
ssS'half'
p249
g2
(g3
tp250
Rp251
S'O-TIMEX3'
p252
F0.8333333333333334
sS'I-TIMEX3'
p253
F0.16666666666666666
ssS'10-year'
p254
g2
(g3
tp255
Rp256
S'B-TIMEX3'
p257
F1.0
ssS'now'
p258
g2
(g3
tp259
Rp260
S'O-TIMEX3'
p261
F0.2608695652173913
sS'I-TIMEX3'
p262
F0.014492753623188406
sS'B-TIMEX3'
p263
F0.7246376811594203
ssS'1959'
p264
g2
(g3
tp265
Rp266
S'I-TIMEX3'
p267
F0.5
sS'B-TIMEX3'
p268
F0.5
ssS'day'
p269
g2
(g3
tp270
Rp271
S'O-TIMEX3'
p272
F0.40540540540540543
sS'I-TIMEX3'
p273
F0.43243243243243246
sS'B-TIMEX3'
p274
F0.16216216216216217
ssS'minute'
p275
g2
(g3
tp276
Rp277
S'I-TIMEX3'
p278
F1.0
ssS'1994'
p279
g2
(g3
tp280
Rp281
S'I-TIMEX3'
p282
F0.2
sS'B-TIMEX3'
p283
F0.8
ssS'Jan'
p284
g2
(g3
tp285
Rp286
S'O-TIMEX3'
p287
F0.3333333333333333
sS'B-TIMEX3'
p288
F0.6666666666666666
ssS'30-year'
p289
g2
(g3
tp290
Rp291
S'B-TIMEX3'
p292
F1.0
ssS'1997'
p293
g2
(g3
tp294
Rp295
S'I-TIMEX3'
p296
F0.6
sS'B-TIMEX3'
p297
F0.4
ssS'Previously'
p298
g2
(g3
tp299
Rp300
S'O-TIMEX3'
p301
F0.7142857142857143
sS'B-TIMEX3'
p302
F0.2857142857142857
ssS"Sunday's"
p303
g2
(g3
tp304
Rp305
S'B-TIMEX3'
p306
F1.0
ssS'morning'
p307
g2
(g3
tp308
Rp309
S'O-TIMEX3'
p310
F0.07692307692307693
sS'I-TIMEX3'
p311
F0.9230769230769231
ssS'1999'
p312
g2
(g3
tp313
Rp314
S'I-TIMEX3'
p315
F0.5
sS'B-TIMEX3'
p316
F0.5
ssS"week's"
p317
g2
(g3
tp318
Rp319
S'O-TIMEX3'
p320
F0.3333333333333333
sS'I-TIMEX3'
p321
F0.3333333333333333
sS'B-TIMEX3'
p322
F0.3333333333333333
ssS'night'
p323
g2
(g3
tp324
Rp325
S'O-TIMEX3'
p326
F0.3181818181818182
sS'I-TIMEX3'
p327
F0.6818181818181818
ssS'quarter'
p328
g2
(g3
tp329
Rp330
S'O-TIMEX3'
p331
F0.056338028169014086
sS'I-TIMEX3'
p332
F0.9295774647887324
sS'B-TIMEX3'
p333
F0.014084507042253521
ssS'1989.'
p334
g2
(g3
tp335
Rp336
S'I-TIMEX3'
p337
F0.6666666666666666
sS'B-TIMEX3'
p338
F0.3333333333333333
ssS'20th'
p339
g2
(g3
tp340
Rp341
S'I-TIMEX3'
p342
F0.5
sS'B-TIMEX3'
p343
F0.5
ssS'A'
p344
g2
(g3
tp345
Rp346
S'O-TIMEX3'
p347
F0.935064935064935
sS'B-TIMEX3'
p348
F0.06493506493506493
ssS'ten'
p349
g2
(g3
tp350
Rp351
S'O-TIMEX3'
p352
F0.3333333333333333
sS'I-TIMEX3'
p353
F0.3333333333333333
sS'B-TIMEX3'
p354
F0.3333333333333333
ssS'two-week'
p355
g2
(g3
tp356
Rp357
S'B-TIMEX3'
p358
F1.0
ssS'spring'
p359
g2
(g3
tp360
Rp361
S'O-TIMEX3'
p362
F0.3333333333333333
sS'I-TIMEX3'
p363
F0.6666666666666666
ssS'1997.'
p364
g2
(g3
tp365
Rp366
S'O-TIMEX3'
p367
F0.3333333333333333
sS'B-TIMEX3'
p368
F0.6666666666666666
ssS'past'
p369
g2
(g3
tp370
Rp371
S'O-TIMEX3'
p372
F0.09090909090909091
sS'I-TIMEX3'
p373
F0.7878787878787878
sS'B-TIMEX3'
p374
F0.12121212121212122
ssS'second'
p375
g2
(g3
tp376
Rp377
S'O-TIMEX3'
p378
F0.8125
sS'I-TIMEX3'
p379
F0.125
sS'B-TIMEX3'
p380
F0.0625
ssS"quarter's"
p381
g2
(g3
tp382
Rp383
S'I-TIMEX3'
p384
F1.0
ssS'31.'
p385
g2
(g3
tp386
Rp387
S'I-TIMEX3'
p388
F1.0
ssS'year'
p389
g2
(g3
tp390
Rp391
S'O-TIMEX3'
p392
F0.08139534883720931
sS'I-TIMEX3'
p393
F0.9127906976744186
sS'B-TIMEX3'
p394
F0.005813953488372093
ssS'10.'
p395
g2
(g3
tp396
Rp397
S'I-TIMEX3'
p398
F1.0
ssS'and'
p399
g2
(g3
tp400
Rp401
S'O-TIMEX3'
p402
F0.99812734082397
sS'I-TIMEX3'
p403
F0.0018726591760299626
ssS"'"
p404
g2
(g3
tp405
Rp406
S'O-TIMEX3'
p407
F0.9977426636568849
sS'I-TIMEX3'
p408
F0.002257336343115124
ssS'noon'
p409
g2
(g3
tp410
Rp411
S'O-TIMEX3'
p412
F0.3333333333333333
sS'B-TIMEX3'
p413
F0.6666666666666666
ssS'Earlier'
p414
g2
(g3
tp415
Rp416
S'O-TIMEX3'
p417
F0.5333333333333333
sS'B-TIMEX3'
p418
F0.4666666666666667
ssS'p.m.'
p419
g2
(g3
tp420
Rp421
S'I-TIMEX3'
p422
F1.0
ssS'current'
p423
g2
(g3
tp424
Rp425
S'O-TIMEX3'
p426
F0.42105263157894735
sS'I-TIMEX3'
p427
F0.15789473684210525
sS'B-TIMEX3'
p428
F0.42105263157894735
ssS'3'
p429
g2
(g3
tp430
Rp431
S'O-TIMEX3'
p432
F0.5
sS'I-TIMEX3'
p433
F0.5
ssS'Yesterday'
p434
g2
(g3
tp435
Rp436
S'B-TIMEX3'
p437
F1.0
ssS'7'
p438
g2
(g3
tp439
Rp440
S'O-TIMEX3'
p441
F0.16666666666666666
sS'I-TIMEX3'
p442
F0.8333333333333334
ssS'eight-year'
p443
g2
(g3
tp444
Rp445
S'B-TIMEX3'
p446
F1.0
ssS'July'
p447
g2
(g3
tp448
Rp449
S'I-TIMEX3'
p450
F0.1111111111111111
sS'B-TIMEX3'
p451
F0.8888888888888888
ssS'16-hour'
p452
g2
(g3
tp453
Rp454
S'B-TIMEX3'
p455
F1.0
ssS'1996.'
p456
g2
(g3
tp457
Rp458
S'I-TIMEX3'
p459
F0.6666666666666666
sS'B-TIMEX3'
p460
F0.3333333333333333
ssS'full'
p461
g2
(g3
tp462
Rp463
S'O-TIMEX3'
p464
F0.8181818181818182
sS'I-TIMEX3'
p465
F0.18181818181818182
ssS'recently'
p466
g2
(g3
tp467
Rp468
S'O-TIMEX3'
p469
F0.29411764705882354
sS'I-TIMEX3'
p470
F0.058823529411764705
sS'B-TIMEX3'
p471
F0.6470588235294118
ssS'This'
p472
g2
(g3
tp473
Rp474
S'O-TIMEX3'
p475
F0.8695652173913043
sS'B-TIMEX3'
p476
F0.13043478260869565
ssS'1993'
p477
g2
(g3
tp478
Rp479
S'B-TIMEX3'
p480
F1.0
ssS'each'
p481
g2
(g3
tp482
Rp483
S'O-TIMEX3'
p484
F0.8888888888888888
sS'B-TIMEX3'
p485
F0.1111111111111111
ssS'1980.'
p486
g2
(g3
tp487
Rp488
S'I-TIMEX3'
p489
F0.5
sS'B-TIMEX3'
p490
F0.5
ssS'hours'
p491
g2
(g3
tp492
Rp493
S'O-TIMEX3'
p494
F0.2222222222222222
sS'I-TIMEX3'
p495
F0.7777777777777778
ssS'30.'
p496
g2
(g3
tp497
Rp498
S'I-TIMEX3'
p499
F1.0
ssS'1984.'
p500
g2
(g3
tp501
Rp502
S'B-TIMEX3'
p503
F1.0
ssS"month's"
p504
g2
(g3
tp505
Rp506
S'O-TIMEX3'
p507
F0.2
sS'I-TIMEX3'
p508
F0.8
ssS'August'
p509
g2
(g3
tp510
Rp511
S'O-TIMEX3'
p512
F0.125
sS'I-TIMEX3'
p513
F0.0625
sS'B-TIMEX3'
p514
F0.8125
ssS'about'
p515
g2
(g3
tp516
Rp517
S'O-TIMEX3'
p518
F0.9897959183673469
sS'B-TIMEX3'
p519
F0.01020408163265306
ssS'last'
p520
g2
(g3
tp521
Rp522
S'O-TIMEX3'
p523
F0.12698412698412698
sS'I-TIMEX3'
p524
F0.1111111111111111
sS'B-TIMEX3'
p525
F0.7619047619047619
ssS'September'
p526
g2
(g3
tp527
Rp528
S'I-TIMEX3'
p529
F0.5
sS'B-TIMEX3'
p530
F0.5
ssS'December'
p531
g2
(g3
tp532
Rp533
S'I-TIMEX3'
p534
F0.25
sS'B-TIMEX3'
p535
F0.75
ssS'Tuesday'
p536
g2
(g3
tp537
Rp538
S'I-TIMEX3'
p539
F0.09375
sS'B-TIMEX3'
p540
F0.90625
ssS'months'
p541
g2
(g3
tp542
Rp543
S'O-TIMEX3'
p544
F0.07142857142857142
sS'I-TIMEX3'
p545
F0.9107142857142857
sS'B-TIMEX3'
p546
F0.017857142857142856
ssS'days'
p547
g2
(g3
tp548
Rp549
S'O-TIMEX3'
p550
F0.21428571428571427
sS'I-TIMEX3'
p551
F0.6190476190476191
sS'B-TIMEX3'
p552
F0.16666666666666666
ssS"year's"
p553
g2
(g3
tp554
Rp555
S'O-TIMEX3'
p556
F0.21428571428571427
sS'I-TIMEX3'
p557
F0.7142857142857143
sS'B-TIMEX3'
p558
F0.07142857142857142
ssS'a.m.'
p559
g2
(g3
tp560
Rp561
S'I-TIMEX3'
p562
F1.0
ssS'afternoon'
p563
g2
(g3
tp564
Rp565
S'I-TIMEX3'
p566
F1.0
ssS'or'
p567
g2
(g3
tp568
Rp569
S'O-TIMEX3'
p570
F0.9776119402985075
sS'I-TIMEX3'
p571
F0.022388059701492536
ssS'first'
p572
g2
(g3
tp573
Rp574
S'O-TIMEX3'
p575
F0.7833333333333333
sS'I-TIMEX3'
p576
F0.16666666666666666
sS'B-TIMEX3'
p577
F0.05
ssS'fourth-quarter'
p578
g2
(g3
tp579
Rp580
S'B-TIMEX3'
p581
F1.0
ssS'25.'
p582
g2
(g3
tp583
Rp584
S'I-TIMEX3'
p585
F0.6666666666666666
sS'B-TIMEX3'
p586
F0.3333333333333333
ssS'ago'
p587
g2
(g3
tp588
Rp589
S'O-TIMEX3'
p590
F0.022727272727272728
sS'I-TIMEX3'
p591
F0.9772727272727273
ssS'Aug'
p592
g2
(g3
tp593
Rp594
S'B-TIMEX3'
p595
F1.0
ssS'period'
p596
g2
(g3
tp597
Rp598
S'O-TIMEX3'
p599
F0.19047619047619047
sS'I-TIMEX3'
p600
F0.8095238095238095
ssS'6.'
p601
g2
(g3
tp602
Rp603
S'I-TIMEX3'
p604
F1.0
ssS'two'
p605
g2
(g3
tp606
Rp607
S'O-TIMEX3'
p608
F0.7045454545454546
sS'I-TIMEX3'
p609
F0.16666666666666666
sS'B-TIMEX3'
p610
F0.12878787878787878
ssS'least'
p611
g2
(g3
tp612
Rp613
S'O-TIMEX3'
p614
F0.9
sS'I-TIMEX3'
p615
F0.1
ssS'1950.'
p616
g2
(g3
tp617
Rp618
S'B-TIMEX3'
p619
F1.0
ssS'1990s'
p620
g2
(g3
tp621
Rp622
S'I-TIMEX3'
p623
F0.6666666666666666
sS'B-TIMEX3'
p624
F0.3333333333333333
ssS'next'
p625
g2
(g3
tp626
Rp627
S'O-TIMEX3'
p628
F0.2708333333333333
sS'I-TIMEX3'
p629
F0.3541666666666667
sS'B-TIMEX3'
p630
F0.375
ssS'two-year'
p631
g2
(g3
tp632
Rp633
S'B-TIMEX3'
p634
F1.0
ssS'tomorrow'
p635
g2
(g3
tp636
Rp637
S'O-TIMEX3'
p638
F0.1
sI0
F0.0
sS'B-TIMEX3'
p639
F0.9
ssS'1987'
p640
g2
(g3
tp641
Rp642
S'O-TIMEX3'
p643
F0.2
sS'B-TIMEX3'
p644
F0.8
ssS'1984'
p645
g2
(g3
tp646
Rp647
S'I-TIMEX3'
p648
F0.6666666666666666
sS'B-TIMEX3'
p649
F0.3333333333333333
ssS'1985'
p650
g2
(g3
tp651
Rp652
S'B-TIMEX3'
p653
F1.0
ssS'1983'
p654
g2
(g3
tp655
Rp656
S'B-TIMEX3'
p657
F1.0
ssS'Monday'
p658
g2
(g3
tp659
Rp660
S'I-TIMEX3'
p661
F0.03125
sS'B-TIMEX3'
p662
F0.96875
ssS'twenty'
p663
g2
(g3
tp664
Rp665
S'O-TIMEX3'
p666
F0.42857142857142855
sS'I-TIMEX3'
p667
F0.2857142857142857
sS'B-TIMEX3'
p668
F0.2857142857142857
ssS'June'
p669
g2
(g3
tp670
Rp671
S'I-TIMEX3'
p672
F0.16666666666666666
sS'B-TIMEX3'
p673
F0.8333333333333334
ssS'third-quarter'
p674
g2
(g3
tp675
Rp676
S'O-TIMEX3'
p677
F0.045454545454545456
sS'B-TIMEX3'
p678
F0.9545454545454546
ssS'1988'
p679
g2
(g3
tp680
Rp681
S'I-TIMEX3'
p682
F0.6153846153846154
sS'B-TIMEX3'
p683
F0.38461538461538464
ssS'1989'
p684
g2
(g3
tp685
Rp686
S'I-TIMEX3'
p687
F0.36363636363636365
sS'B-TIMEX3'
p688
F0.6363636363636364
ssS'few'
p689
g2
(g3
tp690
Rp691
S'O-TIMEX3'
p692
F0.6666666666666666
sS'I-TIMEX3'
p693
F0.3333333333333333
ssS'2'
p694
g2
(g3
tp695
Rp696
S'O-TIMEX3'
p697
F0.5652173913043478
sS'I-TIMEX3'
p698
F0.391304347826087
sS'B-TIMEX3'
p699
F0.043478260869565216
ssS'_'
p700
g2
(g3
tp701
Rp702
S'O-TIMEX3'
p703
F0.9761904761904762
sS'I-TIMEX3'
p704
F0.023809523809523808
ssS'year-ago'
p705
g2
(g3
tp706
Rp707
S'I-TIMEX3'
p708
F0.7777777777777778
sS'B-TIMEX3'
p709
F0.2222222222222222
ssS'November'
p710
g2
(g3
tp711
Rp712
S'I-TIMEX3'
p713
F0.6428571428571429
sS'B-TIMEX3'
p714
F0.35714285714285715
ssS'Thanksgiving'
p715
g2
(g3
tp716
Rp717
S'I-TIMEX3'
p718
F0.25
sS'B-TIMEX3'
p719
F0.75
ssS'today'
p720
g2
(g3
tp721
Rp722
S'B-TIMEX3'
p723
F1.0
ssS'more'
p724
g2
(g3
tp725
Rp726
S'O-TIMEX3'
p727
F0.9607843137254902
sS'I-TIMEX3'
p728
F0.0196078431372549
sS'B-TIMEX3'
p729
F0.0196078431372549
ssS'a'
p730
g2
(g3
tp731
Rp732
S'O-TIMEX3'
p733
F0.9586402266288951
sS'I-TIMEX3'
p734
F0.0033994334277620396
sS'B-TIMEX3'
p735
F0.037960339943342775
ssS'October'
p736
g2
(g3
tp737
Rp738
S'I-TIMEX3'
p739
F0.3
sS'B-TIMEX3'
p740
F0.7
ssS'1990.'
p741
g2
(g3
tp742
Rp743
S'I-TIMEX3'
p744
F0.5
sS'B-TIMEX3'
p745
F0.5
ssS'9.'
p746
g2
(g3
tp747
Rp748
S'I-TIMEX3'
p749
F1.0
ssS'month'
p750
g2
(g3
tp751
Rp752
S'O-TIMEX3'
p753
F0.075
sS'I-TIMEX3'
p754
F0.925
ssS'January'
p755
g2
(g3
tp756
Rp757
S'B-TIMEX3'
p758
F1.0
ssS'thousand'
p759
g2
(g3
tp760
Rp761
S'O-TIMEX3'
p762
F0.8
sS'I-TIMEX3'
p763
F0.2
ssS'6'
p764
g2
(g3
tp765
Rp766
S'O-TIMEX3'
p767
F0.4444444444444444
sS'I-TIMEX3'
p768
F0.4444444444444444
sS'B-TIMEX3'
p769
F0.1111111111111111
ssS'Wednesday'
p770
g2
(g3
tp771
Rp772
S'O-TIMEX3'
p773
F0.04878048780487805
sS'I-TIMEX3'
p774
F0.07317073170731707
sS'B-TIMEX3'
p775
F0.8780487804878049
ssS'Third-quarter'
p776
g2
(g3
tp777
Rp778
S'B-TIMEX3'
p779
F1.0
ssS'ninety-seven'
p780
g2
(g3
tp781
Rp782
S'I-TIMEX3'
p783
F1.0
ssS'Dec'
p784
g2
(g3
tp785
Rp786
S'B-TIMEX3'
p787
F1.0
ssS'nineteen'
p788
g2
(g3
tp789
Rp790
S'I-TIMEX3'
p791
F0.2857142857142857
sS'B-TIMEX3'
p792
F0.7142857142857143
ssS'weeks'
p793
g2
(g3
tp794
Rp795
S'O-TIMEX3'
p796
F0.04
sS'I-TIMEX3'
p797
F0.68
sS'B-TIMEX3'
p798
F0.28
ssS'1998'
p799
g2
(g3
tp800
Rp801
S'I-TIMEX3'
p802
F0.8571428571428571
sS'B-TIMEX3'
p803
F0.14285714285714285
ssS'11'
p804
g2
(g3
tp805
Rp806
S'O-TIMEX3'
p807
F0.8571428571428571
sS'I-TIMEX3'
p808
F0.07142857142857142
sS'B-TIMEX3'
p809
F0.07142857142857142
ssS'10'
p810
g2
(g3
tp811
Rp812
S'O-TIMEX3'
p813
F0.84
sS'I-TIMEX3'
p814
F0.08
sS'B-TIMEX3'
p815
F0.08
ssS'13'
p816
g2
(g3
tp817
Rp818
S'O-TIMEX3'
p819
F0.75
sS'I-TIMEX3'
p820
F0.1875
sS'B-TIMEX3'
p821
F0.0625
ssS'1992'
p822
g2
(g3
tp823
Rp824
S'O-TIMEX3'
p825
F0.25
sS'B-TIMEX3'
p826
F0.75
ssS'1995'
p827
g2
(g3
tp828
Rp829
S'O-TIMEX3'
p830
F0.14285714285714285
sS'I-TIMEX3'
p831
F0.2857142857142857
sS'B-TIMEX3'
p832
F0.5714285714285714
ssS'14'
p833
g2
(g3
tp834
Rp835
S'O-TIMEX3'
p836
F0.5625
sS'I-TIMEX3'
p837
F0.375
sS'B-TIMEX3'
p838
F0.0625
ssS'hour'
p839
g2
(g3
tp840
Rp841
S'O-TIMEX3'
p842
F0.3333333333333333
sS'I-TIMEX3'
p843
F0.6666666666666666
ssS'1996'
p844
g2
(g3
tp845
Rp846
S'B-TIMEX3'
p847
F1.0
ssS'19'
p848
g2
(g3
tp849
Rp850
S'O-TIMEX3'
p851
F0.6
sS'I-TIMEX3'
p852
F0.4
ssS'18'
p853
g2
(g3
tp854
Rp855
S'O-TIMEX3'
p856
F0.5
sS'I-TIMEX3'
p857
F0.375
sS'B-TIMEX3'
p858
F0.125
ssS'this'
p859
g2
(g3
tp860
Rp861
S'O-TIMEX3'
p862
F0.535031847133758
sS'I-TIMEX3'
p863
F0.08917197452229299
sS'B-TIMEX3'
p864
F0.37579617834394907
ssS'near'
p865
g2
(g3
tp866
Rp867
S'O-TIMEX3'
p868
F0.9230769230769231
sS'I-TIMEX3'
p869
F0.07692307692307693
ssS'future'
p870
g2
(g3
tp871
Rp872
S'O-TIMEX3'
p873
F0.5714285714285714
sS'I-TIMEX3'
p874
F0.25
sS'B-TIMEX3'
p875
F0.17857142857142858
ssS'nine'
p876
g2
(g3
tp877
Rp878
S'O-TIMEX3'
p879
F0.28
sS'I-TIMEX3'
p880
F0.72
ssS'three'
p881
g2
(g3
tp882
Rp883
S'O-TIMEX3'
p884
F0.8372093023255814
sS'I-TIMEX3'
p885
F0.11627906976744186
sS'B-TIMEX3'
p886
F0.046511627906976744
ssS'of'
p887
g2
(g3
tp888
Rp889
S'O-TIMEX3'
p890
F0.9912603495860166
sS'I-TIMEX3'
p891
F0.008739650413983441
ssS'following'
p892
g2
(g3
tp893
Rp894
S'O-TIMEX3'
p895
F0.8888888888888888
sS'I-TIMEX3'
p896
F0.1111111111111111
ssS'31'
p897
g2
(g3
tp898
Rp899
S'O-TIMEX3'
p900
F0.36363636363636365
sS'I-TIMEX3'
p901
F0.6363636363636364
ssS'1/'
p902
g2
(g3
tp903
Rp904
S'O-TIMEX3'
p905
F0.6
sS'I-TIMEX3'
p906
F0.4
ssS'1.'
p907
g2
(g3
tp908
Rp909
S'I-TIMEX3'
p910
F1.0
ssS'ninety-six'
p911
g2
(g3
tp912
Rp913
S'I-TIMEX3'
p914
F1.0
ssS'30'
p915
g2
(g3
tp916
Rp917
S'O-TIMEX3'
p918
F0.4444444444444444
sS'I-TIMEX3'
p919
F0.5555555555555556
ssS'century'
p920
g2
(g3
tp921
Rp922
S'O-TIMEX3'
p923
F0.2
sS'I-TIMEX3'
p924
F0.8
ssS'almost'
p925
g2
(g3
tp926
Rp927
S'O-TIMEX3'
p928
F0.8888888888888888
sS'B-TIMEX3'
p929
F0.1111111111111111
ssS'1952'
p930
g2
(g3
tp931
Rp932
S'B-TIMEX3'
p933
F1.0
ssS'Thursday'
p934
g2
(g3
tp935
Rp936
S'I-TIMEX3'
p937
F0.07142857142857142
sS'B-TIMEX3'
p938
F0.9285714285714286
ssS'an'
p939
g2
(g3
tp940
Rp941
S'O-TIMEX3'
p942
F0.9904458598726115
sS'I-TIMEX3'
p943
F0.006369426751592357
sS'B-TIMEX3'
p944
F0.0031847133757961785
ssS'at'
p945
g2
(g3
tp946
Rp947
S'O-TIMEX3'
p948
F0.989821882951654
sS'B-TIMEX3'
p949
F0.010178117048346057
ssS'in'
p950
g2
(g3
tp951
Rp952
S'O-TIMEX3'
p953
F0.9988269794721407
sS'I-TIMEX3'
p954
F0.0011730205278592375
ssS'15.'
p955
g2
(g3
tp956
Rp957
S'O-TIMEX3'
p958
F0.25
sS'I-TIMEX3'
p959
F0.75
ssS'end'
p960
g2
(g3
tp961
Rp962
S'O-TIMEX3'
p963
F0.7307692307692307
sS'I-TIMEX3'
p964
F0.23076923076923078
sS'B-TIMEX3'
p965
F0.038461538461538464
ssS"Thursday's"
p966
g2
(g3
tp967
Rp968
S'B-TIMEX3'
p969
F1.0
ssS'May'
p970
g2
(g3
tp971
Rp972
S'I-TIMEX3'
p973
F0.25
sS'B-TIMEX3'
p974
F0.75
ssS'six'
p975
g2
(g3
tp976
Rp977
S'O-TIMEX3'
p978
F0.6956521739130435
sS'I-TIMEX3'
p979
F0.043478260869565216
sS'B-TIMEX3'
p980
F0.2608695652173913
ssS'1961'
p981
g2
(g3
tp982
Rp983
S'B-TIMEX3'
p984
F1.0
ssS'40'
p985
g2
(g3
tp986
Rp987
S'O-TIMEX3'
p988
F0.8
sS'B-TIMEX3'
p989
F0.2
ssS'1'
p990
g2
(g3
tp991
Rp992
S'O-TIMEX3'
p993
F0.5
sS'I-TIMEX3'
p994
F0.5
ssS'.'
p995
g2
(g3
tp996
Rp997
S'O-TIMEX3'
p998
F0.9694734164334775
sS'I-TIMEX3'
p999
F0.029254642584584076
sS'B-TIMEX3'
p1000
F0.0012719409819384382
ssS'that'
p1001
g2
(g3
tp1002
Rp1003
S'O-TIMEX3'
p1004
F0.994729907773386
sS'I-TIMEX3'
p1005
F0.002635046113306983
sS'B-TIMEX3'
p1006
F0.002635046113306983
ssS'5'
p1007
g2
(g3
tp1008
Rp1009
S'O-TIMEX3'
p1010
F0.8181818181818182
sS'I-TIMEX3'
p1011
F0.09090909090909091
sS'B-TIMEX3'
p1012
F0.09090909090909091
ssS'fourth'
p1013
g2
(g3
tp1014
Rp1015
S'O-TIMEX3'
p1016
F0.2
sS'I-TIMEX3'
p1017
F0.8
ssS'9'
p1018
g2
(g3
tp1019
Rp1020
S'O-TIMEX3'
p1021
F0.5
sS'I-TIMEX3'
p1022
F0.16666666666666666
sS'B-TIMEX3'
p1023
F0.3333333333333333
ssS'several'
p1024
g2
(g3
tp1025
Rp1026
S'O-TIMEX3'
p1027
F0.76
sS'I-TIMEX3'
p1028
F0.04
sS'B-TIMEX3'
p1029
F0.2
ssS'week'
p1030
g2
(g3
tp1031
Rp1032
S'O-TIMEX3'
p1033
F0.06153846153846154
sS'I-TIMEX3'
p1034
F0.9076923076923077
sS'B-TIMEX3'
p1035
F0.03076923076923077
ssS'February'
p1036
g2
(g3
tp1037
Rp1038
S'I-TIMEX3'
p1039
F0.1
sS'B-TIMEX3'
p1040
F0.9
ssS'1982.'
p1041
g2
(g3
tp1042
Rp1043
S'B-TIMEX3'
p1044
F1.0
ssS'centuries'
p1045
g2
(g3
tp1046
Rp1047
S'B-TIMEX3'
p1048
F1.0
ssS'earlier'
p1049
g2
(g3
tp1050
Rp1051
S'O-TIMEX3'
p1052
F0.36363636363636365
sS'I-TIMEX3'
p1053
F0.5
sS'B-TIMEX3'
p1054
F0.13636363636363635
ssS'yesterday'
p1055
g2
(g3
tp1056
Rp1057
S'I-TIMEX3'
p1058
F0.13157894736842105
sS'B-TIMEX3'
p1059
F0.868421052631579
ssS'March'
p1060
g2
(g3
tp1061
Rp1062
S'O-TIMEX3'
p1063
F0.08695652173913043
sS'I-TIMEX3'
p1064
F0.043478260869565216
sS'B-TIMEX3'
p1065
F0.8695652173913043
ssS'April'
p1066
g2
(g3
tp1067
Rp1068
S'I-TIMEX3'
p1069
F0.19047619047619047
sS'B-TIMEX3'
p1070
F0.8095238095238095
ssS'1988.'
p1071
g2
(g3
tp1072
Rp1073
S'I-TIMEX3'
p1074
F0.25
sS'B-TIMEX3'
p1075
F0.75
ssS'coming'
p1076
g2
(g3
tp1077
Rp1078
S'O-TIMEX3'
p1079
F0.7333333333333333
sS'B-TIMEX3'
p1080
F0.26666666666666666
ssS'14.'
p1081
g2
(g3
tp1082
Rp1083
S'I-TIMEX3'
p1084
F1.0
ssS'1968'
p1085
g2
(g3
tp1086
Rp1087
S'B-TIMEX3'
p1088
F1.0
ssS'The'
p1089
g2
(g3
tp1090
Rp1091
S'O-TIMEX3'
p1092
F0.992526158445441
sS'B-TIMEX3'
p1093
F0.007473841554559043
ssS"Friday's"
p1094
g2
(g3
tp1095
Rp1096
S'I-TIMEX3'
p1097
F0.2222222222222222
sS'B-TIMEX3'
p1098
F0.7777777777777778
ssS'weekend'
p1099
g2
(g3
tp1100
Rp1101
S'O-TIMEX3'
p1102
F0.1111111111111111
sS'I-TIMEX3'
p1103
F0.8888888888888888
ssS'recent'
p1104
g2
(g3
tp1105
Rp1106
S'O-TIMEX3'
p1107
F0.2727272727272727
sS'B-TIMEX3'
p1108
F0.7272727272727273
ssS'fiscal'
p1109
g2
(g3
tp1110
Rp1111
S'O-TIMEX3'
p1112
F0.1
sS'I-TIMEX3'
p1113
F0.5
sS'B-TIMEX3'
p1114
F0.4
ssS'early'
p1115
g2
(g3
tp1116
Rp1117
S'O-TIMEX3'
p1118
F0.6382978723404256
sS'I-TIMEX3'
p1119
F0.0425531914893617
sS'B-TIMEX3'
p1120
F0.3191489361702128
ssS'third'
p1121
g2
(g3
tp1122
Rp1123
S'O-TIMEX3'
p1124
F0.32142857142857145
sS'I-TIMEX3'
p1125
F0.6785714285714286
ssS'later'
p1126
g2
(g3
tp1127
Rp1128
S'O-TIMEX3'
p1129
F0.7894736842105263
sS'I-TIMEX3'
p1130
F0.10526315789473684
sS'B-TIMEX3'
p1131
F0.10526315789473684
ssS'daily'
p1132
g2
(g3
tp1133
Rp1134
S'O-TIMEX3'
p1135
F0.35294117647058826
sS'B-TIMEX3'
p1136
F0.6470588235294118
ssS'so'
p1137
g2
(g3
tp1138
Rp1139
S'O-TIMEX3'
p1140
F0.9523809523809523
sS'I-TIMEX3'
p1141
F0.047619047619047616
ssS'time'
p1142
g2
(g3
tp1143
Rp1144
S'O-TIMEX3'
p1145
F0.9444444444444444
sS'I-TIMEX3'
p1146
F0.05555555555555555
ssS'every'
p1147
g2
(g3
tp1148
Rp1149
S'O-TIMEX3'
p1150
F0.6153846153846154
sS'B-TIMEX3'
p1151
F0.38461538461538464
ssS'the'
p1152
g2
(g3
tp1153
Rp1154
S'O-TIMEX3'
p1155
F0.9529411764705882
sS'I-TIMEX3'
p1156
F0.0016147635524798155
sS'B-TIMEX3'
p1157
F0.04544405997693195
ssS'12'
p1158
g2
(g3
tp1159
Rp1160
S'O-TIMEX3'
p1161
F0.7647058823529411
sS'I-TIMEX3'
p1162
F0.23529411764705882
ssS'Saturday'
p1163
g2
(g3
tp1164
Rp1165
S'I-TIMEX3'
p1166
F0.0625
sS'B-TIMEX3'
p1167
F0.9375
ssS'latest'
p1168
g2
(g3
tp1169
Rp1170
S'O-TIMEX3'
p1171
F0.4482758620689655
sS'I-TIMEX3'
p1172
F0.5517241379310345
ss.