(dp0
S'summer'
p1
ccollections
defaultdict
p2
(c__builtin__
float
p3
tp4
Rp5
S'I-TIMEX3'
p6
F0.8333333333333334
sS'B-TIMEX3'
p7
F0.16666666666666666
ssS'six'
p8
g2
(g3
tp9
Rp10
S'O-TIMEX3'
p11
F0.6956521739130435
sS'I-TIMEX3'
p12
F0.043478260869565216
sS'B-TIMEX3'
p13
F0.2608695652173913
ssS'less'
p14
g2
(g3
tp15
Rp16
S'O-TIMEX3'
p17
F0.9230769230769231
sS'B-TIMEX3'
p18
F0.07692307692307693
ssS'over'
p19
g2
(g3
tp20
Rp21
S'O-TIMEX3'
p22
F0.9761904761904762
sS'B-TIMEX3'
p23
F0.023809523809523808
ssS'fall'
p24
g2
(g3
tp25
Rp26
S'O-TIMEX3'
p27
F0.5454545454545454
sS'I-TIMEX3'
p28
F0.45454545454545453
ssS'soon'
p29
g2
(g3
tp30
Rp31
S'O-TIMEX3'
p32
F0.8125
sS'B-TIMEX3'
p33
F0.1875
ssS'years'
p34
g2
(g3
tp35
Rp36
S'O-TIMEX3'
p37
F0.16176470588235295
sS'I-TIMEX3'
p38
F0.7794117647058824
sS'B-TIMEX3'
p39
F0.058823529411764705
ssS'four'
p40
g2
(g3
tp41
Rp42
S'O-TIMEX3'
p43
F0.7058823529411765
sS'I-TIMEX3'
p44
F0.23529411764705882
sS'B-TIMEX3'
p45
F0.058823529411764705
ssS'Sunday'
p46
g2
(g3
tp47
Rp48
S'I-TIMEX3'
p49
F0.047619047619047616
sS'B-TIMEX3'
p50
F0.9523809523809523
ssS'25.'
p51
g2
(g3
tp52
Rp53
S'I-TIMEX3'
p54
F0.6666666666666666
sS'B-TIMEX3'
p55
F0.3333333333333333
ssS"Tuesday's"
p56
g2
(g3
tp57
Rp58
S'I-TIMEX3'
p59
F0.5
sS'B-TIMEX3'
p60
F0.5
ssS'year-earlier'
p61
g2
(g3
tp62
Rp63
S'I-TIMEX3'
p64
F0.6666666666666666
sS'B-TIMEX3'
p65
F0.3333333333333333
ssS'Oct'
p66
g2
(g3
tp67
Rp68
S'I-TIMEX3'
p69
F0.15789473684210525
sS'B-TIMEX3'
p70
F0.8421052631578947
ssS'decade'
p71
g2
(g3
tp72
Rp73
S'I-TIMEX3'
p74
F1.0
ssS'before'
p75
g2
(g3
tp76
Rp77
S'O-TIMEX3'
p78
F0.9743589743589743
sS'I-TIMEX3'
p79
F0.02564102564102564
ssS'1959'
p80
g2
(g3
tp81
Rp82
S'I-TIMEX3'
p83
F0.5
sS'B-TIMEX3'
p84
F0.5
ssS'25'
p85
g2
(g3
tp86
Rp87
S'O-TIMEX3'
p88
F0.75
sS'I-TIMEX3'
p89
F0.25
ssS'26'
p90
g2
(g3
tp91
Rp92
S'O-TIMEX3'
p93
F0.3333333333333333
sS'I-TIMEX3'
p94
F0.6666666666666666
ssS'1949'
p95
g2
(g3
tp96
Rp97
S'I-TIMEX3'
p98
F0.3333333333333333
sS'B-TIMEX3'
p99
F0.6666666666666666
ssS'20'
p100
g2
(g3
tp101
Rp102
S'O-TIMEX3'
p103
F0.7407407407407407
sS'I-TIMEX3'
p104
F0.25925925925925924
ssS'21'
p105
g2
(g3
tp106
Rp107
S'O-TIMEX3'
p108
F0.5714285714285714
sS'I-TIMEX3'
p109
F0.42857142857142855
ssS'22'
p110
g2
(g3
tp111
Rp112
S'O-TIMEX3'
p113
F0.6666666666666666
sS'I-TIMEX3'
p114
F0.2222222222222222
sS'B-TIMEX3'
p115
F0.1111111111111111
ssS'23'
p116
g2
(g3
tp117
Rp118
S'O-TIMEX3'
p119
F0.3333333333333333
sS'I-TIMEX3'
p120
F0.6666666666666666
ssS'third-quarter'
p121
g2
(g3
tp122
Rp123
S'O-TIMEX3'
p124
F0.045454545454545456
sS'B-TIMEX3'
p125
F0.9545454545454546
ssS'nineteen'
p126
g2
(g3
tp127
Rp128
S'I-TIMEX3'
p129
F0.2857142857142857
sS'B-TIMEX3'
p130
F0.7142857142857143
ssS'Friday'
p131
g2
(g3
tp132
Rp133
S'I-TIMEX3'
p134
F0.030612244897959183
sS'B-TIMEX3'
p135
F0.9693877551020408
ssS','
p136
g2
(g3
tp137
Rp138
S'O-TIMEX3'
p139
F0.9948752228163993
sS'I-TIMEX3'
p140
F0.005124777183600713
ssS'late'
p141
g2
(g3
tp142
Rp143
S'O-TIMEX3'
p144
F0.38461538461538464
sS'I-TIMEX3'
p145
F0.07692307692307693
sS'B-TIMEX3'
p146
F0.5384615384615384
ssS'to'
p147
g2
(g3
tp148
Rp149
S'O-TIMEX3'
p150
F0.9978002639683238
sS'I-TIMEX3'
p151
F0.002199736031676199
ssS'4'
p152
g2
(g3
tp153
Rp154
S'O-TIMEX3'
p155
F0.75
sS'I-TIMEX3'
p156
F0.08333333333333333
sS'B-TIMEX3'
p157
F0.16666666666666666
ssS'8'
p158
g2
(g3
tp159
Rp160
S'O-TIMEX3'
p161
F0.6666666666666666
sS'I-TIMEX3'
p162
F0.3333333333333333
ssS'Nov'
p163
g2
(g3
tp164
Rp165
S'B-TIMEX3'
p166
F1.0
ssS'Now'
p167
g2
(g3
tp168
Rp169
S'O-TIMEX3'
p170
F0.5454545454545454
sS'B-TIMEX3'
p171
F0.45454545454545453
ssS'decades'
p172
g2
(g3
tp173
Rp174
S'O-TIMEX3'
p175
F0.5
sS'I-TIMEX3'
p176
F0.5
ssS'Day'
p177
g2
(g3
tp178
Rp179
S'O-TIMEX3'
p180
F0.5
sS'I-TIMEX3'
p181
F0.5
ssS'11'
p182
g2
(g3
tp183
Rp184
S'O-TIMEX3'
p185
F0.8571428571428571
sS'I-TIMEX3'
p186
F0.07142857142857142
sS'B-TIMEX3'
p187
F0.07142857142857142
ssS'evening'
p188
g2
(g3
tp189
Rp190
S'I-TIMEX3'
p191
F1.0
ssS'Last'
p192
g2
(g3
tp193
Rp194
S'B-TIMEX3'
p195
F1.0
ssS'10'
p196
g2
(g3
tp197
Rp198
S'O-TIMEX3'
p199
F0.84
sS'I-TIMEX3'
p200
F0.08
sS'B-TIMEX3'
p201
F0.08
ssS'1994.'
p202
g2
(g3
tp203
Rp204
S'I-TIMEX3'
p205
F0.6
sS'B-TIMEX3'
p206
F0.4
ssS'mid-November'
p207
g2
(g3
tp208
Rp209
S'B-TIMEX3'
p210
F1.0
ssS'couple'
p211
g2
(g3
tp212
Rp213
S'O-TIMEX3'
p214
F0.3333333333333333
sS'I-TIMEX3'
p215
F0.6666666666666666
ssS'13'
p216
g2
(g3
tp217
Rp218
S'O-TIMEX3'
p219
F0.75
sS'I-TIMEX3'
p220
F0.1875
sS'B-TIMEX3'
p221
F0.0625
ssS'13.'
p222
g2
(g3
tp223
Rp224
S'I-TIMEX3'
p225
F1.0
ssS'1955'
p226
g2
(g3
tp227
Rp228
S'B-TIMEX3'
p229
F1.0
ssS'1956'
p230
g2
(g3
tp231
Rp232
S'I-TIMEX3'
p233
F0.5
sS'B-TIMEX3'
p234
F0.5
ssS'five'
p235
g2
(g3
tp236
Rp237
S'O-TIMEX3'
p238
F0.5806451612903226
sS'I-TIMEX3'
p239
F0.06451612903225806
sS'B-TIMEX3'
p240
F0.3548387096774194
ssS'nearly'
p241
g2
(g3
tp242
Rp243
S'O-TIMEX3'
p244
F0.8387096774193549
sS'B-TIMEX3'
p245
F0.16129032258064516
ssS'half'
p246
g2
(g3
tp247
Rp248
S'O-TIMEX3'
p249
F0.8333333333333334
sS'I-TIMEX3'
p250
F0.16666666666666666
ssS'10-year'
p251
g2
(g3
tp252
Rp253
S'B-TIMEX3'
p254
F1.0
ssS'now'
p255
g2
(g3
tp256
Rp257
S'O-TIMEX3'
p258
F0.2608695652173913
sS'I-TIMEX3'
p259
F0.014492753623188406
sS'B-TIMEX3'
p260
F0.7246376811594203
ssS'year-ago'
p261
g2
(g3
tp262
Rp263
S'I-TIMEX3'
p264
F0.7777777777777778
sS'B-TIMEX3'
p265
F0.2222222222222222
ssS'day'
p266
g2
(g3
tp267
Rp268
S'O-TIMEX3'
p269
F0.40540540540540543
sS'I-TIMEX3'
p270
F0.43243243243243246
sS'B-TIMEX3'
p271
F0.16216216216216217
ssS'minute'
p272
g2
(g3
tp273
Rp274
S'I-TIMEX3'
p275
F1.0
ssS'14'
p276
g2
(g3
tp277
Rp278
S'O-TIMEX3'
p279
F0.5625
sS'I-TIMEX3'
p280
F0.375
sS'B-TIMEX3'
p281
F0.0625
ssS'Jan'
p282
g2
(g3
tp283
Rp284
S'O-TIMEX3'
p285
F0.3333333333333333
sS'B-TIMEX3'
p286
F0.6666666666666666
ssS'30-year'
p287
g2
(g3
tp288
Rp289
S'B-TIMEX3'
p290
F1.0
ssS'hour'
p291
g2
(g3
tp292
Rp293
S'O-TIMEX3'
p294
F0.3333333333333333
sS'I-TIMEX3'
p295
F0.6666666666666666
ssS'Previously'
p296
g2
(g3
tp297
Rp298
S'O-TIMEX3'
p299
F0.7142857142857143
sS'B-TIMEX3'
p300
F0.2857142857142857
ssS"Sunday's"
p301
g2
(g3
tp302
Rp303
S'B-TIMEX3'
p304
F1.0
ssS'morning'
p305
g2
(g3
tp306
Rp307
S'O-TIMEX3'
p308
F0.07692307692307693
sS'I-TIMEX3'
p309
F0.9230769230769231
ssS'1999'
p310
g2
(g3
tp311
Rp312
S'I-TIMEX3'
p313
F0.5
sS'B-TIMEX3'
p314
F0.5
ssS"week's"
p315
g2
(g3
tp316
Rp317
S'O-TIMEX3'
p318
F0.3333333333333333
sS'I-TIMEX3'
p319
F0.3333333333333333
sS'B-TIMEX3'
p320
F0.3333333333333333
ssS'night'
p321
g2
(g3
tp322
Rp323
S'O-TIMEX3'
p324
F0.3181818181818182
sS'I-TIMEX3'
p325
F0.6818181818181818
ssS'quarter'
p326
g2
(g3
tp327
Rp328
S'O-TIMEX3'
p329
F0.056338028169014086
sS'I-TIMEX3'
p330
F0.9295774647887324
sS'B-TIMEX3'
p331
F0.014084507042253521
ssS'1989.'
p332
g2
(g3
tp333
Rp334
S'I-TIMEX3'
p335
F0.6666666666666666
sS'B-TIMEX3'
p336
F0.3333333333333333
ssS'20th'
p337
g2
(g3
tp338
Rp339
S'I-TIMEX3'
p340
F0.5
sS'B-TIMEX3'
p341
F0.5
ssS'1989'
p342
g2
(g3
tp343
Rp344
S'I-TIMEX3'
p345
F0.36363636363636365
sS'B-TIMEX3'
p346
F0.6363636363636364
ssS'ten'
p347
g2
(g3
tp348
Rp349
S'O-TIMEX3'
p350
F0.3333333333333333
sS'I-TIMEX3'
p351
F0.3333333333333333
sS'B-TIMEX3'
p352
F0.3333333333333333
ssS'two-week'
p353
g2
(g3
tp354
Rp355
S'B-TIMEX3'
p356
F1.0
ssS'spring'
p357
g2
(g3
tp358
Rp359
S'O-TIMEX3'
p360
F0.3333333333333333
sS'I-TIMEX3'
p361
F0.6666666666666666
ssS'1997.'
p362
g2
(g3
tp363
Rp364
S'O-TIMEX3'
p365
F0.3333333333333333
sS'B-TIMEX3'
p366
F0.6666666666666666
ssS'past'
p367
g2
(g3
tp368
Rp369
S'O-TIMEX3'
p370
F0.09090909090909091
sS'I-TIMEX3'
p371
F0.7878787878787878
sS'B-TIMEX3'
p372
F0.12121212121212122
ssS'19'
p373
g2
(g3
tp374
Rp375
S'O-TIMEX3'
p376
F0.6
sS'I-TIMEX3'
p377
F0.4
ssS'second'
p378
g2
(g3
tp379
Rp380
S'O-TIMEX3'
p381
F0.8125
sS'I-TIMEX3'
p382
F0.125
sS'B-TIMEX3'
p383
F0.0625
ssS'31.'
p384
g2
(g3
tp385
Rp386
S'I-TIMEX3'
p387
F1.0
ssS'year'
p388
g2
(g3
tp389
Rp390
S'O-TIMEX3'
p391
F0.08139534883720931
sS'I-TIMEX3'
p392
F0.9127906976744186
sS'B-TIMEX3'
p393
F0.005813953488372093
ssS'recently'
p394
g2
(g3
tp395
Rp396
S'O-TIMEX3'
p397
F0.29411764705882354
sS'I-TIMEX3'
p398
F0.058823529411764705
sS'B-TIMEX3'
p399
F0.6470588235294118
ssS'week'
p400
g2
(g3
tp401
Rp402
S'O-TIMEX3'
p403
F0.06153846153846154
sS'I-TIMEX3'
p404
F0.9076923076923077
sS'B-TIMEX3'
p405
F0.03076923076923077
ssS"'"
p406
g2
(g3
tp407
Rp408
S'O-TIMEX3'
p409
F0.9977426636568849
sS'I-TIMEX3'
p410
F0.002257336343115124
ssS'noon'
p411
g2
(g3
tp412
Rp413
S'O-TIMEX3'
p414
F0.3333333333333333
sS'B-TIMEX3'
p415
F0.6666666666666666
ssS'Earlier'
p416
g2
(g3
tp417
Rp418
S'O-TIMEX3'
p419
F0.5333333333333333
sS'B-TIMEX3'
p420
F0.4666666666666667
ssS'p.m.'
p421
g2
(g3
tp422
Rp423
S'I-TIMEX3'
p424
F1.0
ssS'current'
p425
g2
(g3
tp426
Rp427
S'O-TIMEX3'
p428
F0.42105263157894735
sS'I-TIMEX3'
p429
F0.15789473684210525
sS'B-TIMEX3'
p430
F0.42105263157894735
ssS'3'
p431
g2
(g3
tp432
Rp433
S'O-TIMEX3'
p434
F0.5
sS'I-TIMEX3'
p435
F0.5
ssS'currently'
p436
g2
(g3
tp437
Rp438
S'O-TIMEX3'
p439
F0.3333333333333333
sS'B-TIMEX3'
p440
F0.6666666666666666
ssS'7'
p441
g2
(g3
tp442
Rp443
S'O-TIMEX3'
p444
F0.16666666666666666
sS'I-TIMEX3'
p445
F0.8333333333333334
ssS'eight-year'
p446
g2
(g3
tp447
Rp448
S'B-TIMEX3'
p449
F1.0
ssS'July'
p450
g2
(g3
tp451
Rp452
S'I-TIMEX3'
p453
F0.1111111111111111
sS'B-TIMEX3'
p454
F0.8888888888888888
ssS'16-hour'
p455
g2
(g3
tp456
Rp457
S'B-TIMEX3'
p458
F1.0
ssS'1996.'
p459
g2
(g3
tp460
Rp461
S'I-TIMEX3'
p462
F0.6666666666666666
sS'B-TIMEX3'
p463
F0.3333333333333333
ssS'full'
p464
g2
(g3
tp465
Rp466
S'O-TIMEX3'
p467
F0.8181818181818182
sS'I-TIMEX3'
p468
F0.18181818181818182
ssS'10.'
p469
g2
(g3
tp470
Rp471
S'I-TIMEX3'
p472
F1.0
ssS'This'
p473
g2
(g3
tp474
Rp475
S'O-TIMEX3'
p476
F0.8695652173913043
sS'B-TIMEX3'
p477
F0.13043478260869565
ssS'each'
p478
g2
(g3
tp479
Rp480
S'O-TIMEX3'
p481
F0.8888888888888888
sS'B-TIMEX3'
p482
F0.1111111111111111
ssS'yesterday'
p483
g2
(g3
tp484
Rp485
S'I-TIMEX3'
p486
F0.13157894736842105
sS'B-TIMEX3'
p487
F0.868421052631579
ssS'hours'
p488
g2
(g3
tp489
Rp490
S'O-TIMEX3'
p491
F0.2222222222222222
sS'I-TIMEX3'
p492
F0.7777777777777778
ssS'following'
p493
g2
(g3
tp494
Rp495
S'O-TIMEX3'
p496
F0.8888888888888888
sS'I-TIMEX3'
p497
F0.1111111111111111
ssS'term'
p498
g2
(g3
tp499
Rp500
S'O-TIMEX3'
p501
F0.25
sS'I-TIMEX3'
p502
F0.75
ssS'30.'
p503
g2
(g3
tp504
Rp505
S'I-TIMEX3'
p506
F1.0
ssS'1984.'
p507
g2
(g3
tp508
Rp509
S'B-TIMEX3'
p510
F1.0
ssS'1988.'
p511
g2
(g3
tp512
Rp513
S'I-TIMEX3'
p514
F0.25
sS'B-TIMEX3'
p515
F0.75
ssS"month's"
p516
g2
(g3
tp517
Rp518
S'O-TIMEX3'
p519
F0.2
sS'I-TIMEX3'
p520
F0.8
ssS'1983'
p521
g2
(g3
tp522
Rp523
S'B-TIMEX3'
p524
F1.0
ssS'every'
p525
g2
(g3
tp526
Rp527
S'O-TIMEX3'
p528
F0.6153846153846154
sS'B-TIMEX3'
p529
F0.38461538461538464
ssS'about'
p530
g2
(g3
tp531
Rp532
S'O-TIMEX3'
p533
F0.9897959183673469
sS'B-TIMEX3'
p534
F0.01020408163265306
ssS'weeks'
p535
g2
(g3
tp536
Rp537
S'O-TIMEX3'
p538
F0.04
sS'I-TIMEX3'
p539
F0.68
sS'B-TIMEX3'
p540
F0.28
ssS'last'
p541
g2
(g3
tp542
Rp543
S'O-TIMEX3'
p544
F0.12698412698412698
sS'I-TIMEX3'
p545
F0.1111111111111111
sS'B-TIMEX3'
p546
F0.7619047619047619
ssS'1961'
p547
g2
(g3
tp548
Rp549
S'B-TIMEX3'
p550
F1.0
ssS'September'
p551
g2
(g3
tp552
Rp553
S'I-TIMEX3'
p554
F0.5
sS'B-TIMEX3'
p555
F0.5
ssS'December'
p556
g2
(g3
tp557
Rp558
S'I-TIMEX3'
p559
F0.25
sS'B-TIMEX3'
p560
F0.75
ssS'Tuesday'
p561
g2
(g3
tp562
Rp563
S'I-TIMEX3'
p564
F0.09375
sS'B-TIMEX3'
p565
F0.90625
ssS'months'
p566
g2
(g3
tp567
Rp568
S'O-TIMEX3'
p569
F0.07142857142857142
sS'I-TIMEX3'
p570
F0.9107142857142857
sS'B-TIMEX3'
p571
F0.017857142857142856
ssS'fourth-quarter'
p572
g2
(g3
tp573
Rp574
S'B-TIMEX3'
p575
F1.0
ssS'days'
p576
g2
(g3
tp577
Rp578
S'O-TIMEX3'
p579
F0.21428571428571427
sS'I-TIMEX3'
p580
F0.6190476190476191
sS'B-TIMEX3'
p581
F0.16666666666666666
ssS"year's"
p582
g2
(g3
tp583
Rp584
S'O-TIMEX3'
p585
F0.21428571428571427
sS'I-TIMEX3'
p586
F0.7142857142857143
sS'B-TIMEX3'
p587
F0.07142857142857142
ssS'ninety-six'
p588
g2
(g3
tp589
Rp590
S'I-TIMEX3'
p591
F1.0
ssS'a.m.'
p592
g2
(g3
tp593
Rp594
S'I-TIMEX3'
p595
F1.0
ssS'afternoon'
p596
g2
(g3
tp597
Rp598
S'I-TIMEX3'
p599
F1.0
ssS'or'
p600
g2
(g3
tp601
Rp602
S'O-TIMEX3'
p603
F0.9776119402985075
sS'I-TIMEX3'
p604
F0.022388059701492536
ssS'first'
p605
g2
(g3
tp606
Rp607
S'O-TIMEX3'
p608
F0.7833333333333333
sS'I-TIMEX3'
p609
F0.16666666666666666
sS'B-TIMEX3'
p610
F0.05
ssS'two'
p611
g2
(g3
tp612
Rp613
S'O-TIMEX3'
p614
F0.7045454545454546
sS'I-TIMEX3'
p615
F0.16666666666666666
sS'B-TIMEX3'
p616
F0.12878787878787878
ssS'Feb'
p617
g2
(g3
tp618
Rp619
S'B-TIMEX3'
p620
F1.0
ssS'Aug'
p621
g2
(g3
tp622
Rp623
S'B-TIMEX3'
p624
F1.0
ssS'March'
p625
g2
(g3
tp626
Rp627
S'O-TIMEX3'
p628
F0.08695652173913043
sS'I-TIMEX3'
p629
F0.043478260869565216
sS'B-TIMEX3'
p630
F0.8695652173913043
ssS'period'
p631
g2
(g3
tp632
Rp633
S'O-TIMEX3'
p634
F0.19047619047619047
sS'I-TIMEX3'
p635
F0.8095238095238095
ssS'6.'
p636
g2
(g3
tp637
Rp638
S'I-TIMEX3'
p639
F1.0
ssS'one'
p640
g2
(g3
tp641
Rp642
S'O-TIMEX3'
p643
F0.918918918918919
sS'I-TIMEX3'
p644
F0.009009009009009009
sS'B-TIMEX3'
p645
F0.07207207207207207
ssS'1988'
p646
g2
(g3
tp647
Rp648
S'I-TIMEX3'
p649
F0.6153846153846154
sS'B-TIMEX3'
p650
F0.38461538461538464
ssS'1950.'
p651
g2
(g3
tp652
Rp653
S'B-TIMEX3'
p654
F1.0
ssS'1990s'
p655
g2
(g3
tp656
Rp657
S'I-TIMEX3'
p658
F0.6666666666666666
sS'B-TIMEX3'
p659
F0.3333333333333333
ssS'next'
p660
g2
(g3
tp661
Rp662
S'O-TIMEX3'
p663
F0.2708333333333333
sS'I-TIMEX3'
p664
F0.3541666666666667
sS'B-TIMEX3'
p665
F0.375
ssS'two-year'
p666
g2
(g3
tp667
Rp668
S'B-TIMEX3'
p669
F1.0
ssS'tomorrow'
p670
g2
(g3
tp671
Rp672
S'O-TIMEX3'
p673
F0.25
sS'B-TIMEX3'
p674
F0.75
ssS'1987'
p675
g2
(g3
tp676
Rp677
S'O-TIMEX3'
p678
F0.2
sS'B-TIMEX3'
p679
F0.8
ssS'1984'
p680
g2
(g3
tp681
Rp682
S'I-TIMEX3'
p683
F0.6666666666666666
sS'B-TIMEX3'
p684
F0.3333333333333333
ssS'1985'
p685
g2
(g3
tp686
Rp687
S'B-TIMEX3'
p688
F1.0
ssS'August'
p689
g2
(g3
tp690
Rp691
S'O-TIMEX3'
p692
F0.125
sS'I-TIMEX3'
p693
F0.0625
sS'B-TIMEX3'
p694
F0.8125
ssS'Monday'
p695
g2
(g3
tp696
Rp697
S'I-TIMEX3'
p698
F0.03125
sS'B-TIMEX3'
p699
F0.96875
ssS'twenty'
p700
g2
(g3
tp701
Rp702
S'O-TIMEX3'
p703
F0.42857142857142855
sS'I-TIMEX3'
p704
F0.2857142857142857
sS'B-TIMEX3'
p705
F0.2857142857142857
ssS'June'
p706
g2
(g3
tp707
Rp708
S'I-TIMEX3'
p709
F0.16666666666666666
sS'B-TIMEX3'
p710
F0.8333333333333334
ssS'three'
p711
g2
(g3
tp712
Rp713
S'O-TIMEX3'
p714
F0.8372093023255814
sS'I-TIMEX3'
p715
F0.11627906976744186
sS'B-TIMEX3'
p716
F0.046511627906976744
ssS'least'
p717
g2
(g3
tp718
Rp719
S'O-TIMEX3'
p720
F0.9
sS'I-TIMEX3'
p721
F0.1
ssS'.'
p722
g2
(g3
tp723
Rp724
S'O-TIMEX3'
p725
F0.9694734164334775
sS'I-TIMEX3'
p726
F0.029254642584584076
sS'B-TIMEX3'
p727
F0.0012719409819384382
ssS'few'
p728
g2
(g3
tp729
Rp730
S'O-TIMEX3'
p731
F0.6666666666666666
sS'I-TIMEX3'
p732
F0.3333333333333333
ssS'2'
p733
g2
(g3
tp734
Rp735
S'O-TIMEX3'
p736
F0.5652173913043478
sS'I-TIMEX3'
p737
F0.391304347826087
sS'B-TIMEX3'
p738
F0.043478260869565216
ssS'_'
p739
g2
(g3
tp740
Rp741
S'O-TIMEX3'
p742
F0.9761904761904762
sS'I-TIMEX3'
p743
F0.023809523809523808
ssS'6'
p744
g2
(g3
tp745
Rp746
S'O-TIMEX3'
p747
F0.4444444444444444
sS'I-TIMEX3'
p748
F0.4444444444444444
sS'B-TIMEX3'
p749
F0.1111111111111111
ssS'November'
p750
g2
(g3
tp751
Rp752
S'I-TIMEX3'
p753
F0.6428571428571429
sS'B-TIMEX3'
p754
F0.35714285714285715
ssS'18'
p755
g2
(g3
tp756
Rp757
S'O-TIMEX3'
p758
F0.5
sS'I-TIMEX3'
p759
F0.375
sS'B-TIMEX3'
p760
F0.125
ssS'more'
p761
g2
(g3
tp762
Rp763
S'O-TIMEX3'
p764
F0.9607843137254902
sS'I-TIMEX3'
p765
F0.0196078431372549
sS'B-TIMEX3'
p766
F0.0196078431372549
ssS'fiscal'
p767
g2
(g3
tp768
Rp769
S'O-TIMEX3'
p770
F0.1
sS'I-TIMEX3'
p771
F0.5
sS'B-TIMEX3'
p772
F0.4
ssS'October'
p773
g2
(g3
tp774
Rp775
S'I-TIMEX3'
p776
F0.3
sS'B-TIMEX3'
p777
F0.7
ssS'1990.'
p778
g2
(g3
tp779
Rp780
S'I-TIMEX3'
p781
F0.5
sS'B-TIMEX3'
p782
F0.5
ssS'9.'
p783
g2
(g3
tp784
Rp785
S'I-TIMEX3'
p786
F1.0
ssS'month'
p787
g2
(g3
tp788
Rp789
S'O-TIMEX3'
p790
F0.075
sS'I-TIMEX3'
p791
F0.925
ssS'January'
p792
g2
(g3
tp793
Rp794
S'B-TIMEX3'
p795
F1.0
ssS'thousand'
p796
g2
(g3
tp797
Rp798
S'O-TIMEX3'
p799
F0.8
sS'I-TIMEX3'
p800
F0.2
ssS'1982.'
p801
g2
(g3
tp802
Rp803
S'B-TIMEX3'
p804
F1.0
ssS'Wednesday'
p805
g2
(g3
tp806
Rp807
S'O-TIMEX3'
p808
F0.04878048780487805
sS'I-TIMEX3'
p809
F0.07317073170731707
sS'B-TIMEX3'
p810
F0.8780487804878049
ssS'Third-quarter'
p811
g2
(g3
tp812
Rp813
S'B-TIMEX3'
p814
F1.0
ssS'ninety-seven'
p815
g2
(g3
tp816
Rp817
S'I-TIMEX3'
p818
F1.0
ssS'Dec'
p819
g2
(g3
tp820
Rp821
S'B-TIMEX3'
p822
F1.0
ssS'Sept'
p823
g2
(g3
tp824
Rp825
S'B-TIMEX3'
p826
F1.0
ssS'than'
p827
g2
(g3
tp828
Rp829
S'O-TIMEX3'
p830
F0.95
sS'I-TIMEX3'
p831
F0.05
ssS'1991'
p832
g2
(g3
tp833
Rp834
S'B-TIMEX3'
p835
F1.0
ssS'1990'
p836
g2
(g3
tp837
Rp838
S'I-TIMEX3'
p839
F0.2222222222222222
sS'B-TIMEX3'
p840
F0.7777777777777778
ssS'1993'
p841
g2
(g3
tp842
Rp843
S'B-TIMEX3'
p844
F1.0
ssS'1992'
p845
g2
(g3
tp846
Rp847
S'O-TIMEX3'
p848
F0.25
sS'B-TIMEX3'
p849
F0.75
ssS'1995'
p850
g2
(g3
tp851
Rp852
S'O-TIMEX3'
p853
F0.14285714285714285
sS'I-TIMEX3'
p854
F0.2857142857142857
sS'B-TIMEX3'
p855
F0.5714285714285714
ssS'1994'
p856
g2
(g3
tp857
Rp858
S'I-TIMEX3'
p859
F0.2
sS'B-TIMEX3'
p860
F0.8
ssS'1997'
p861
g2
(g3
tp862
Rp863
S'I-TIMEX3'
p864
F0.6
sS'B-TIMEX3'
p865
F0.4
ssS'1996'
p866
g2
(g3
tp867
Rp868
S'B-TIMEX3'
p869
F1.0
ssS'this'
p870
g2
(g3
tp871
Rp872
S'O-TIMEX3'
p873
F0.535031847133758
sS'I-TIMEX3'
p874
F0.08917197452229299
sS'B-TIMEX3'
p875
F0.37579617834394907
ssS'1998'
p876
g2
(g3
tp877
Rp878
S'I-TIMEX3'
p879
F0.8571428571428571
sS'B-TIMEX3'
p880
F0.14285714285714285
ssS'near'
p881
g2
(g3
tp882
Rp883
S'O-TIMEX3'
p884
F0.9230769230769231
sS'I-TIMEX3'
p885
F0.07692307692307693
ssS'future'
p886
g2
(g3
tp887
Rp888
S'O-TIMEX3'
p889
F0.5714285714285714
sS'I-TIMEX3'
p890
F0.25
sS'B-TIMEX3'
p891
F0.17857142857142858
ssS'nine'
p892
g2
(g3
tp893
Rp894
S'O-TIMEX3'
p895
F0.28
sS'I-TIMEX3'
p896
F0.72
ssS'today'
p897
g2
(g3
tp898
Rp899
S'B-TIMEX3'
p900
F1.0
ssS'of'
p901
g2
(g3
tp902
Rp903
S'O-TIMEX3'
p904
F0.9912603495860166
sS'I-TIMEX3'
p905
F0.008739650413983441
ssS'quarters'
p906
g2
(g3
tp907
Rp908
S'O-TIMEX3'
p909
F0.125
sS'I-TIMEX3'
p910
F0.875
ssS'31'
p911
g2
(g3
tp912
Rp913
S'O-TIMEX3'
p914
F0.36363636363636365
sS'I-TIMEX3'
p915
F0.6363636363636364
ssS'1/'
p916
g2
(g3
tp917
Rp918
S'O-TIMEX3'
p919
F0.6
sS'I-TIMEX3'
p920
F0.4
ssS'1.'
p921
g2
(g3
tp922
Rp923
S'I-TIMEX3'
p924
F1.0
ssS'and'
p925
g2
(g3
tp926
Rp927
S'O-TIMEX3'
p928
F0.99812734082397
sS'I-TIMEX3'
p929
F0.0018726591760299626
ssS'30'
p930
g2
(g3
tp931
Rp932
S'O-TIMEX3'
p933
F0.4444444444444444
sS'I-TIMEX3'
p934
F0.5555555555555556
ssS'century'
p935
g2
(g3
tp936
Rp937
S'O-TIMEX3'
p938
F0.2
sS'I-TIMEX3'
p939
F0.8
ssS'almost'
p940
g2
(g3
tp941
Rp942
S'O-TIMEX3'
p943
F0.8888888888888888
sS'B-TIMEX3'
p944
F0.1111111111111111
ssS'1952'
p945
g2
(g3
tp946
Rp947
S'B-TIMEX3'
p948
F1.0
ssS'Thursday'
p949
g2
(g3
tp950
Rp951
S'I-TIMEX3'
p952
F0.07142857142857142
sS'B-TIMEX3'
p953
F0.9285714285714286
ssS'an'
p954
g2
(g3
tp955
Rp956
S'O-TIMEX3'
p957
F0.9904458598726115
sS'I-TIMEX3'
p958
F0.006369426751592357
sS'B-TIMEX3'
p959
F0.0031847133757961785
ssS'at'
p960
g2
(g3
tp961
Rp962
S'O-TIMEX3'
p963
F0.989821882951654
sS'B-TIMEX3'
p964
F0.010178117048346057
ssS'in'
p965
g2
(g3
tp966
Rp967
S'O-TIMEX3'
p968
F0.9988269794721407
sS'I-TIMEX3'
p969
F0.0011730205278592375
ssS'15.'
p970
g2
(g3
tp971
Rp972
S'O-TIMEX3'
p973
F0.25
sS'I-TIMEX3'
p974
F0.75
ssS'end'
p975
g2
(g3
tp976
Rp977
S'O-TIMEX3'
p978
F0.7307692307692307
sS'I-TIMEX3'
p979
F0.23076923076923078
sS'B-TIMEX3'
p980
F0.038461538461538464
ssS"Thursday's"
p981
g2
(g3
tp982
Rp983
S'B-TIMEX3'
p984
F1.0
ssS'May'
p985
g2
(g3
tp986
Rp987
S'I-TIMEX3'
p988
F0.25
sS'B-TIMEX3'
p989
F0.75
ssS'that'
p990
g2
(g3
tp991
Rp992
S'O-TIMEX3'
p993
F0.994729907773386
sS'I-TIMEX3'
p994
F0.002635046113306983
sS'B-TIMEX3'
p995
F0.002635046113306983
ssS'Yesterday'
p996
g2
(g3
tp997
Rp998
S'B-TIMEX3'
p999
F1.0
ssS'40'
p1000
g2
(g3
tp1001
Rp1002
S'O-TIMEX3'
p1003
F0.8
sS'B-TIMEX3'
p1004
F0.2
ssS'1'
p1005
g2
(g3
tp1006
Rp1007
S'O-TIMEX3'
p1008
F0.5
sS'I-TIMEX3'
p1009
F0.5
ssS'5'
p1010
g2
(g3
tp1011
Rp1012
S'O-TIMEX3'
p1013
F0.8181818181818182
sS'I-TIMEX3'
p1014
F0.09090909090909091
sS'B-TIMEX3'
p1015
F0.09090909090909091
ssS'fourth'
p1016
g2
(g3
tp1017
Rp1018
S'O-TIMEX3'
p1019
F0.2
sS'I-TIMEX3'
p1020
F0.8
ssS'9'
p1021
g2
(g3
tp1022
Rp1023
S'O-TIMEX3'
p1024
F0.5
sS'I-TIMEX3'
p1025
F0.16666666666666666
sS'B-TIMEX3'
p1026
F0.3333333333333333
ssS'several'
p1027
g2
(g3
tp1028
Rp1029
S'O-TIMEX3'
p1030
F0.76
sS'I-TIMEX3'
p1031
F0.04
sS'B-TIMEX3'
p1032
F0.2
ssS'A'
p1033
g2
(g3
tp1034
Rp1035
S'O-TIMEX3'
p1036
F0.935064935064935
sS'B-TIMEX3'
p1037
F0.06493506493506493
ssS'February'
p1038
g2
(g3
tp1039
Rp1040
S'I-TIMEX3'
p1041
F0.1
sS'B-TIMEX3'
p1042
F0.9
ssS"quarter's"
p1043
g2
(g3
tp1044
Rp1045
S'I-TIMEX3'
p1046
F1.0
ssS'centuries'
p1047
g2
(g3
tp1048
Rp1049
S'B-TIMEX3'
p1050
F1.0
ssS'earlier'
p1051
g2
(g3
tp1052
Rp1053
S'O-TIMEX3'
p1054
F0.36363636363636365
sS'I-TIMEX3'
p1055
F0.5
sS'B-TIMEX3'
p1056
F0.13636363636363635
ssS'1980.'
p1057
g2
(g3
tp1058
Rp1059
S'I-TIMEX3'
p1060
F0.5
sS'B-TIMEX3'
p1061
F0.5
ssS'Thanksgiving'
p1062
g2
(g3
tp1063
Rp1064
S'I-TIMEX3'
p1065
F0.25
sS'B-TIMEX3'
p1066
F0.75
ssS'April'
p1067
g2
(g3
tp1068
Rp1069
S'I-TIMEX3'
p1070
F0.19047619047619047
sS'B-TIMEX3'
p1071
F0.8095238095238095
ssS'a'
p1072
g2
(g3
tp1073
Rp1074
S'O-TIMEX3'
p1075
F0.9586402266288951
sS'I-TIMEX3'
p1076
F0.0033994334277620396
sS'B-TIMEX3'
p1077
F0.037960339943342775
ssS'coming'
p1078
g2
(g3
tp1079
Rp1080
S'O-TIMEX3'
p1081
F0.7333333333333333
sS'B-TIMEX3'
p1082
F0.26666666666666666
ssS'14.'
p1083
g2
(g3
tp1084
Rp1085
S'I-TIMEX3'
p1086
F1.0
ssS'1968'
p1087
g2
(g3
tp1088
Rp1089
S'B-TIMEX3'
p1090
F1.0
ssS'The'
p1091
g2
(g3
tp1092
Rp1093
S'O-TIMEX3'
p1094
F0.992526158445441
sS'B-TIMEX3'
p1095
F0.007473841554559043
ssS"Friday's"
p1096
g2
(g3
tp1097
Rp1098
S'I-TIMEX3'
p1099
F0.2222222222222222
sS'B-TIMEX3'
p1100
F0.7777777777777778
ssS'weekend'
p1101
g2
(g3
tp1102
Rp1103
S'O-TIMEX3'
p1104
F0.1111111111111111
sS'I-TIMEX3'
p1105
F0.8888888888888888
ssS'recent'
p1106
g2
(g3
tp1107
Rp1108
S'O-TIMEX3'
p1109
F0.2727272727272727
sS'B-TIMEX3'
p1110
F0.7272727272727273
ssS'ago'
p1111
g2
(g3
tp1112
Rp1113
S'O-TIMEX3'
p1114
F0.022727272727272728
sS'I-TIMEX3'
p1115
F0.9772727272727273
ssS'early'
p1116
g2
(g3
tp1117
Rp1118
S'O-TIMEX3'
p1119
F0.6382978723404256
sS'I-TIMEX3'
p1120
F0.0425531914893617
sS'B-TIMEX3'
p1121
F0.3191489361702128
ssS'third'
p1122
g2
(g3
tp1123
Rp1124
S'O-TIMEX3'
p1125
F0.32142857142857145
sS'I-TIMEX3'
p1126
F0.6785714285714286
ssS'later'
p1127
g2
(g3
tp1128
Rp1129
S'O-TIMEX3'
p1130
F0.7894736842105263
sS'I-TIMEX3'
p1131
F0.10526315789473684
sS'B-TIMEX3'
p1132
F0.10526315789473684
ssS'daily'
p1133
g2
(g3
tp1134
Rp1135
S'O-TIMEX3'
p1136
F0.35294117647058826
sS'B-TIMEX3'
p1137
F0.6470588235294118
ssS'so'
p1138
g2
(g3
tp1139
Rp1140
S'O-TIMEX3'
p1141
F0.9523809523809523
sS'I-TIMEX3'
p1142
F0.047619047619047616
ssS'time'
p1143
g2
(g3
tp1144
Rp1145
S'O-TIMEX3'
p1146
F0.9444444444444444
sS'I-TIMEX3'
p1147
F0.05555555555555555
ssS"Wednesday's"
p1148
g2
(g3
tp1149
Rp1150
S'B-TIMEX3'
p1151
F1.0
ssS'the'
p1152
g2
(g3
tp1153
Rp1154
S'O-TIMEX3'
p1155
F0.9529411764705882
sS'I-TIMEX3'
p1156
F0.0016147635524798155
sS'B-TIMEX3'
p1157
F0.04544405997693195
ssS'12'
p1158
g2
(g3
tp1159
Rp1160
S'O-TIMEX3'
p1161
F0.7647058823529411
sS'I-TIMEX3'
p1162
F0.23529411764705882
ssS'Saturday'
p1163
g2
(g3
tp1164
Rp1165
S'I-TIMEX3'
p1166
F0.0625
sS'B-TIMEX3'
p1167
F0.9375
ssS'latest'
p1168
g2
(g3
tp1169
Rp1170
S'O-TIMEX3'
p1171
F0.4482758620689655
sS'I-TIMEX3'
p1172
F0.5517241379310345
ss.